ARM GAS  /var/folders/k1/1yttftd15rl7jxtpyc5m93n80000gn/T//ccVmGoI2.s 			page 1


   1              		.cpu cortex-m4
   2              		.arch armv7e-m
   3              		.fpu fpv4-sp-d16
   4              		.eabi_attribute 27, 1
   5              		.eabi_attribute 28, 1
   6              		.eabi_attribute 20, 1
   7              		.eabi_attribute 21, 1
   8              		.eabi_attribute 23, 3
   9              		.eabi_attribute 24, 1
  10              		.eabi_attribute 25, 1
  11              		.eabi_attribute 26, 1
  12              		.eabi_attribute 30, 6
  13              		.eabi_attribute 34, 1
  14              		.eabi_attribute 18, 4
  15              		.file	"stm32g4xx_hal_pwr.c"
  16              		.text
  17              		.section	.text.HAL_PWR_DeInit,"ax",%progbits
  18              		.align	1
  19              		.global	HAL_PWR_DeInit
  20              		.syntax unified
  21              		.thumb
  22              		.thumb_func
  24              	HAL_PWR_DeInit:
  25              		@ args = 0, pretend = 0, frame = 0
  26              		@ frame_needed = 1, uses_anonymous_args = 0
  27              		@ link register save eliminated.
  28 0000 80B4     		push	{r7}
  29 0002 00AF     		add	r7, sp, #0
  30 0004 084B     		ldr	r3, .L2
  31 0006 9B6B     		ldr	r3, [r3, #56]
  32 0008 074A     		ldr	r2, .L2
  33 000a 43F08053 		orr	r3, r3, #268435456
  34 000e 9363     		str	r3, [r2, #56]
  35 0010 054B     		ldr	r3, .L2
  36 0012 9B6B     		ldr	r3, [r3, #56]
  37 0014 044A     		ldr	r2, .L2
  38 0016 23F08053 		bic	r3, r3, #268435456
  39 001a 9363     		str	r3, [r2, #56]
  40 001c 00BF     		nop
  41 001e BD46     		mov	sp, r7
  42              		@ sp needed
  43 0020 5DF8047B 		ldr	r7, [sp], #4
  44 0024 7047     		bx	lr
  45              	.L3:
  46 0026 00BF     		.align	2
  47              	.L2:
  48 0028 00100240 		.word	1073876992
  50              		.section	.text.HAL_PWR_EnableBkUpAccess,"ax",%progbits
  51              		.align	1
  52              		.global	HAL_PWR_EnableBkUpAccess
  53              		.syntax unified
  54              		.thumb
  55              		.thumb_func
  57              	HAL_PWR_EnableBkUpAccess:
  58              		@ args = 0, pretend = 0, frame = 0
  59              		@ frame_needed = 1, uses_anonymous_args = 0
  60              		@ link register save eliminated.
ARM GAS  /var/folders/k1/1yttftd15rl7jxtpyc5m93n80000gn/T//ccVmGoI2.s 			page 2


  61 0000 80B4     		push	{r7}
  62 0002 00AF     		add	r7, sp, #0
  63 0004 054B     		ldr	r3, .L5
  64 0006 1B68     		ldr	r3, [r3]
  65 0008 044A     		ldr	r2, .L5
  66 000a 43F48073 		orr	r3, r3, #256
  67 000e 1360     		str	r3, [r2]
  68 0010 00BF     		nop
  69 0012 BD46     		mov	sp, r7
  70              		@ sp needed
  71 0014 5DF8047B 		ldr	r7, [sp], #4
  72 0018 7047     		bx	lr
  73              	.L6:
  74 001a 00BF     		.align	2
  75              	.L5:
  76 001c 00700040 		.word	1073770496
  78              		.section	.text.HAL_PWR_DisableBkUpAccess,"ax",%progbits
  79              		.align	1
  80              		.global	HAL_PWR_DisableBkUpAccess
  81              		.syntax unified
  82              		.thumb
  83              		.thumb_func
  85              	HAL_PWR_DisableBkUpAccess:
  86              		@ args = 0, pretend = 0, frame = 0
  87              		@ frame_needed = 1, uses_anonymous_args = 0
  88              		@ link register save eliminated.
  89 0000 80B4     		push	{r7}
  90 0002 00AF     		add	r7, sp, #0
  91 0004 054B     		ldr	r3, .L8
  92 0006 1B68     		ldr	r3, [r3]
  93 0008 044A     		ldr	r2, .L8
  94 000a 23F48073 		bic	r3, r3, #256
  95 000e 1360     		str	r3, [r2]
  96 0010 00BF     		nop
  97 0012 BD46     		mov	sp, r7
  98              		@ sp needed
  99 0014 5DF8047B 		ldr	r7, [sp], #4
 100 0018 7047     		bx	lr
 101              	.L9:
 102 001a 00BF     		.align	2
 103              	.L8:
 104 001c 00700040 		.word	1073770496
 106              		.section	.text.HAL_PWR_ConfigPVD,"ax",%progbits
 107              		.align	1
 108              		.global	HAL_PWR_ConfigPVD
 109              		.syntax unified
 110              		.thumb
 111              		.thumb_func
 113              	HAL_PWR_ConfigPVD:
 114              		@ args = 0, pretend = 0, frame = 8
 115              		@ frame_needed = 1, uses_anonymous_args = 0
 116              		@ link register save eliminated.
 117 0000 80B4     		push	{r7}
 118 0002 83B0     		sub	sp, sp, #12
 119 0004 00AF     		add	r7, sp, #0
 120 0006 7860     		str	r0, [r7, #4]
 121 0008 2B4B     		ldr	r3, .L16
ARM GAS  /var/folders/k1/1yttftd15rl7jxtpyc5m93n80000gn/T//ccVmGoI2.s 			page 3


 122 000a 5B68     		ldr	r3, [r3, #4]
 123 000c 23F00E02 		bic	r2, r3, #14
 124 0010 7B68     		ldr	r3, [r7, #4]
 125 0012 1B68     		ldr	r3, [r3]
 126 0014 2849     		ldr	r1, .L16
 127 0016 1343     		orrs	r3, r3, r2
 128 0018 4B60     		str	r3, [r1, #4]
 129 001a 284B     		ldr	r3, .L16+4
 130 001c 5B68     		ldr	r3, [r3, #4]
 131 001e 274A     		ldr	r2, .L16+4
 132 0020 23F48033 		bic	r3, r3, #65536
 133 0024 5360     		str	r3, [r2, #4]
 134 0026 254B     		ldr	r3, .L16+4
 135 0028 1B68     		ldr	r3, [r3]
 136 002a 244A     		ldr	r2, .L16+4
 137 002c 23F48033 		bic	r3, r3, #65536
 138 0030 1360     		str	r3, [r2]
 139 0032 224B     		ldr	r3, .L16+4
 140 0034 DB68     		ldr	r3, [r3, #12]
 141 0036 214A     		ldr	r2, .L16+4
 142 0038 23F48033 		bic	r3, r3, #65536
 143 003c D360     		str	r3, [r2, #12]
 144 003e 1F4B     		ldr	r3, .L16+4
 145 0040 9B68     		ldr	r3, [r3, #8]
 146 0042 1E4A     		ldr	r2, .L16+4
 147 0044 23F48033 		bic	r3, r3, #65536
 148 0048 9360     		str	r3, [r2, #8]
 149 004a 7B68     		ldr	r3, [r7, #4]
 150 004c 5B68     		ldr	r3, [r3, #4]
 151 004e 03F48033 		and	r3, r3, #65536
 152 0052 002B     		cmp	r3, #0
 153 0054 05D0     		beq	.L11
 154 0056 194B     		ldr	r3, .L16+4
 155 0058 1B68     		ldr	r3, [r3]
 156 005a 184A     		ldr	r2, .L16+4
 157 005c 43F48033 		orr	r3, r3, #65536
 158 0060 1360     		str	r3, [r2]
 159              	.L11:
 160 0062 7B68     		ldr	r3, [r7, #4]
 161 0064 5B68     		ldr	r3, [r3, #4]
 162 0066 03F40033 		and	r3, r3, #131072
 163 006a 002B     		cmp	r3, #0
 164 006c 05D0     		beq	.L12
 165 006e 134B     		ldr	r3, .L16+4
 166 0070 5B68     		ldr	r3, [r3, #4]
 167 0072 124A     		ldr	r2, .L16+4
 168 0074 43F48033 		orr	r3, r3, #65536
 169 0078 5360     		str	r3, [r2, #4]
 170              	.L12:
 171 007a 7B68     		ldr	r3, [r7, #4]
 172 007c 5B68     		ldr	r3, [r3, #4]
 173 007e 03F00103 		and	r3, r3, #1
 174 0082 002B     		cmp	r3, #0
 175 0084 05D0     		beq	.L13
 176 0086 0D4B     		ldr	r3, .L16+4
 177 0088 9B68     		ldr	r3, [r3, #8]
 178 008a 0C4A     		ldr	r2, .L16+4
ARM GAS  /var/folders/k1/1yttftd15rl7jxtpyc5m93n80000gn/T//ccVmGoI2.s 			page 4


 179 008c 43F48033 		orr	r3, r3, #65536
 180 0090 9360     		str	r3, [r2, #8]
 181              	.L13:
 182 0092 7B68     		ldr	r3, [r7, #4]
 183 0094 5B68     		ldr	r3, [r3, #4]
 184 0096 03F00203 		and	r3, r3, #2
 185 009a 002B     		cmp	r3, #0
 186 009c 05D0     		beq	.L14
 187 009e 074B     		ldr	r3, .L16+4
 188 00a0 DB68     		ldr	r3, [r3, #12]
 189 00a2 064A     		ldr	r2, .L16+4
 190 00a4 43F48033 		orr	r3, r3, #65536
 191 00a8 D360     		str	r3, [r2, #12]
 192              	.L14:
 193 00aa 0023     		movs	r3, #0
 194 00ac 1846     		mov	r0, r3
 195 00ae 0C37     		adds	r7, r7, #12
 196 00b0 BD46     		mov	sp, r7
 197              		@ sp needed
 198 00b2 5DF8047B 		ldr	r7, [sp], #4
 199 00b6 7047     		bx	lr
 200              	.L17:
 201              		.align	2
 202              	.L16:
 203 00b8 00700040 		.word	1073770496
 204 00bc 00040140 		.word	1073808384
 206              		.section	.text.HAL_PWR_EnablePVD,"ax",%progbits
 207              		.align	1
 208              		.global	HAL_PWR_EnablePVD
 209              		.syntax unified
 210              		.thumb
 211              		.thumb_func
 213              	HAL_PWR_EnablePVD:
 214              		@ args = 0, pretend = 0, frame = 0
 215              		@ frame_needed = 1, uses_anonymous_args = 0
 216              		@ link register save eliminated.
 217 0000 80B4     		push	{r7}
 218 0002 00AF     		add	r7, sp, #0
 219 0004 054B     		ldr	r3, .L19
 220 0006 5B68     		ldr	r3, [r3, #4]
 221 0008 044A     		ldr	r2, .L19
 222 000a 43F00103 		orr	r3, r3, #1
 223 000e 5360     		str	r3, [r2, #4]
 224 0010 00BF     		nop
 225 0012 BD46     		mov	sp, r7
 226              		@ sp needed
 227 0014 5DF8047B 		ldr	r7, [sp], #4
 228 0018 7047     		bx	lr
 229              	.L20:
 230 001a 00BF     		.align	2
 231              	.L19:
 232 001c 00700040 		.word	1073770496
 234              		.section	.text.HAL_PWR_DisablePVD,"ax",%progbits
 235              		.align	1
 236              		.global	HAL_PWR_DisablePVD
 237              		.syntax unified
 238              		.thumb
ARM GAS  /var/folders/k1/1yttftd15rl7jxtpyc5m93n80000gn/T//ccVmGoI2.s 			page 5


 239              		.thumb_func
 241              	HAL_PWR_DisablePVD:
 242              		@ args = 0, pretend = 0, frame = 0
 243              		@ frame_needed = 1, uses_anonymous_args = 0
 244              		@ link register save eliminated.
 245 0000 80B4     		push	{r7}
 246 0002 00AF     		add	r7, sp, #0
 247 0004 054B     		ldr	r3, .L22
 248 0006 5B68     		ldr	r3, [r3, #4]
 249 0008 044A     		ldr	r2, .L22
 250 000a 23F00103 		bic	r3, r3, #1
 251 000e 5360     		str	r3, [r2, #4]
 252 0010 00BF     		nop
 253 0012 BD46     		mov	sp, r7
 254              		@ sp needed
 255 0014 5DF8047B 		ldr	r7, [sp], #4
 256 0018 7047     		bx	lr
 257              	.L23:
 258 001a 00BF     		.align	2
 259              	.L22:
 260 001c 00700040 		.word	1073770496
 262              		.section	.text.HAL_PWR_EnableWakeUpPin,"ax",%progbits
 263              		.align	1
 264              		.global	HAL_PWR_EnableWakeUpPin
 265              		.syntax unified
 266              		.thumb
 267              		.thumb_func
 269              	HAL_PWR_EnableWakeUpPin:
 270              		@ args = 0, pretend = 0, frame = 8
 271              		@ frame_needed = 1, uses_anonymous_args = 0
 272              		@ link register save eliminated.
 273 0000 80B4     		push	{r7}
 274 0002 83B0     		sub	sp, sp, #12
 275 0004 00AF     		add	r7, sp, #0
 276 0006 7860     		str	r0, [r7, #4]
 277 0008 0C4B     		ldr	r3, .L25
 278 000a DA68     		ldr	r2, [r3, #12]
 279 000c 7B68     		ldr	r3, [r7, #4]
 280 000e 03F01F03 		and	r3, r3, #31
 281 0012 DB43     		mvns	r3, r3
 282 0014 1A40     		ands	r2, r2, r3
 283 0016 7B68     		ldr	r3, [r7, #4]
 284 0018 5B09     		lsrs	r3, r3, #5
 285 001a 0849     		ldr	r1, .L25
 286 001c 1343     		orrs	r3, r3, r2
 287 001e CB60     		str	r3, [r1, #12]
 288 0020 064B     		ldr	r3, .L25
 289 0022 9A68     		ldr	r2, [r3, #8]
 290 0024 7B68     		ldr	r3, [r7, #4]
 291 0026 03F01F03 		and	r3, r3, #31
 292 002a 0449     		ldr	r1, .L25
 293 002c 1343     		orrs	r3, r3, r2
 294 002e 8B60     		str	r3, [r1, #8]
 295 0030 00BF     		nop
 296 0032 0C37     		adds	r7, r7, #12
 297 0034 BD46     		mov	sp, r7
 298              		@ sp needed
ARM GAS  /var/folders/k1/1yttftd15rl7jxtpyc5m93n80000gn/T//ccVmGoI2.s 			page 6


 299 0036 5DF8047B 		ldr	r7, [sp], #4
 300 003a 7047     		bx	lr
 301              	.L26:
 302              		.align	2
 303              	.L25:
 304 003c 00700040 		.word	1073770496
 306              		.section	.text.HAL_PWR_DisableWakeUpPin,"ax",%progbits
 307              		.align	1
 308              		.global	HAL_PWR_DisableWakeUpPin
 309              		.syntax unified
 310              		.thumb
 311              		.thumb_func
 313              	HAL_PWR_DisableWakeUpPin:
 314              		@ args = 0, pretend = 0, frame = 8
 315              		@ frame_needed = 1, uses_anonymous_args = 0
 316              		@ link register save eliminated.
 317 0000 80B4     		push	{r7}
 318 0002 83B0     		sub	sp, sp, #12
 319 0004 00AF     		add	r7, sp, #0
 320 0006 7860     		str	r0, [r7, #4]
 321 0008 074B     		ldr	r3, .L28
 322 000a 9A68     		ldr	r2, [r3, #8]
 323 000c 7B68     		ldr	r3, [r7, #4]
 324 000e 03F01F03 		and	r3, r3, #31
 325 0012 DB43     		mvns	r3, r3
 326 0014 0449     		ldr	r1, .L28
 327 0016 1340     		ands	r3, r3, r2
 328 0018 8B60     		str	r3, [r1, #8]
 329 001a 00BF     		nop
 330 001c 0C37     		adds	r7, r7, #12
 331 001e BD46     		mov	sp, r7
 332              		@ sp needed
 333 0020 5DF8047B 		ldr	r7, [sp], #4
 334 0024 7047     		bx	lr
 335              	.L29:
 336 0026 00BF     		.align	2
 337              	.L28:
 338 0028 00700040 		.word	1073770496
 340              		.section	.text.HAL_PWR_EnterSLEEPMode,"ax",%progbits
 341              		.align	1
 342              		.global	HAL_PWR_EnterSLEEPMode
 343              		.syntax unified
 344              		.thumb
 345              		.thumb_func
 347              	HAL_PWR_EnterSLEEPMode:
 348              		@ args = 0, pretend = 0, frame = 8
 349              		@ frame_needed = 1, uses_anonymous_args = 0
 350 0000 80B5     		push	{r7, lr}
 351 0002 82B0     		sub	sp, sp, #8
 352 0004 00AF     		add	r7, sp, #0
 353 0006 7860     		str	r0, [r7, #4]
 354 0008 0B46     		mov	r3, r1
 355 000a FB70     		strb	r3, [r7, #3]
 356 000c 7B68     		ldr	r3, [r7, #4]
 357 000e 002B     		cmp	r3, #0
 358 0010 09D1     		bne	.L31
 359 0012 124B     		ldr	r3, .L36
ARM GAS  /var/folders/k1/1yttftd15rl7jxtpyc5m93n80000gn/T//ccVmGoI2.s 			page 7


 360 0014 5B69     		ldr	r3, [r3, #20]
 361 0016 03F40073 		and	r3, r3, #512
 362 001a B3F5007F 		cmp	r3, #512
 363 001e 0BD1     		bne	.L32
 364 0020 FFF7FEFF 		bl	HAL_PWREx_DisableLowPowerRunMode
 365 0024 08E0     		b	.L32
 366              	.L31:
 367 0026 0D4B     		ldr	r3, .L36
 368 0028 5B69     		ldr	r3, [r3, #20]
 369 002a 03F40073 		and	r3, r3, #512
 370 002e B3F5007F 		cmp	r3, #512
 371 0032 01D0     		beq	.L32
 372 0034 FFF7FEFF 		bl	HAL_PWREx_EnableLowPowerRunMode
 373              	.L32:
 374 0038 094B     		ldr	r3, .L36+4
 375 003a 1B69     		ldr	r3, [r3, #16]
 376 003c 084A     		ldr	r2, .L36+4
 377 003e 23F00403 		bic	r3, r3, #4
 378 0042 1361     		str	r3, [r2, #16]
 379 0044 FB78     		ldrb	r3, [r7, #3]	@ zero_extendqisi2
 380 0046 012B     		cmp	r3, #1
 381 0048 01D1     		bne	.L33
 382              		.syntax unified
 383              	@ 474 "Drivers/STM32G4xx_HAL_Driver/Src/stm32g4xx_hal_pwr.c" 1
 384 004a 30BF     		wfi
 385              	@ 0 "" 2
 386              		.thumb
 387              		.syntax unified
 388 004c 02E0     		b	.L35
 389              	.L33:
 390              		.syntax unified
 391              	@ 479 "Drivers/STM32G4xx_HAL_Driver/Src/stm32g4xx_hal_pwr.c" 1
 392 004e 40BF     		sev
 393              	@ 0 "" 2
 394              	@ 480 "Drivers/STM32G4xx_HAL_Driver/Src/stm32g4xx_hal_pwr.c" 1
 395 0050 20BF     		wfe
 396              	@ 0 "" 2
 397              	@ 481 "Drivers/STM32G4xx_HAL_Driver/Src/stm32g4xx_hal_pwr.c" 1
 398 0052 20BF     		wfe
 399              	@ 0 "" 2
 400              		.thumb
 401              		.syntax unified
 402              	.L35:
 403 0054 00BF     		nop
 404 0056 0837     		adds	r7, r7, #8
 405 0058 BD46     		mov	sp, r7
 406              		@ sp needed
 407 005a 80BD     		pop	{r7, pc}
 408              	.L37:
 409              		.align	2
 410              	.L36:
 411 005c 00700040 		.word	1073770496
 412 0060 00ED00E0 		.word	-536810240
 414              		.section	.text.HAL_PWR_EnterSTOPMode,"ax",%progbits
 415              		.align	1
 416              		.global	HAL_PWR_EnterSTOPMode
 417              		.syntax unified
ARM GAS  /var/folders/k1/1yttftd15rl7jxtpyc5m93n80000gn/T//ccVmGoI2.s 			page 8


 418              		.thumb
 419              		.thumb_func
 421              	HAL_PWR_EnterSTOPMode:
 422              		@ args = 0, pretend = 0, frame = 8
 423              		@ frame_needed = 1, uses_anonymous_args = 0
 424 0000 80B5     		push	{r7, lr}
 425 0002 82B0     		sub	sp, sp, #8
 426 0004 00AF     		add	r7, sp, #0
 427 0006 7860     		str	r0, [r7, #4]
 428 0008 0B46     		mov	r3, r1
 429 000a FB70     		strb	r3, [r7, #3]
 430 000c 7B68     		ldr	r3, [r7, #4]
 431 000e B3F5804F 		cmp	r3, #16384
 432 0012 04D1     		bne	.L39
 433 0014 FB78     		ldrb	r3, [r7, #3]	@ zero_extendqisi2
 434 0016 1846     		mov	r0, r3
 435 0018 FFF7FEFF 		bl	HAL_PWREx_EnterSTOP1Mode
 436 001c 03E0     		b	.L41
 437              	.L39:
 438 001e FB78     		ldrb	r3, [r7, #3]	@ zero_extendqisi2
 439 0020 1846     		mov	r0, r3
 440 0022 FFF7FEFF 		bl	HAL_PWREx_EnterSTOP0Mode
 441              	.L41:
 442 0026 00BF     		nop
 443 0028 0837     		adds	r7, r7, #8
 444 002a BD46     		mov	sp, r7
 445              		@ sp needed
 446 002c 80BD     		pop	{r7, pc}
 448              		.section	.text.HAL_PWR_EnterSTANDBYMode,"ax",%progbits
 449              		.align	1
 450              		.global	HAL_PWR_EnterSTANDBYMode
 451              		.syntax unified
 452              		.thumb
 453              		.thumb_func
 455              	HAL_PWR_EnterSTANDBYMode:
 456              		@ args = 0, pretend = 0, frame = 0
 457              		@ frame_needed = 1, uses_anonymous_args = 0
 458              		@ link register save eliminated.
 459 0000 80B4     		push	{r7}
 460 0002 00AF     		add	r7, sp, #0
 461 0004 094B     		ldr	r3, .L43
 462 0006 1B68     		ldr	r3, [r3]
 463 0008 23F00703 		bic	r3, r3, #7
 464 000c 074A     		ldr	r2, .L43
 465 000e 43F00303 		orr	r3, r3, #3
 466 0012 1360     		str	r3, [r2]
 467 0014 064B     		ldr	r3, .L43+4
 468 0016 1B69     		ldr	r3, [r3, #16]
 469 0018 054A     		ldr	r2, .L43+4
 470 001a 43F00403 		orr	r3, r3, #4
 471 001e 1361     		str	r3, [r2, #16]
 472              		.syntax unified
 473              	@ 562 "Drivers/STM32G4xx_HAL_Driver/Src/stm32g4xx_hal_pwr.c" 1
 474 0020 30BF     		wfi
 475              	@ 0 "" 2
 476              		.thumb
 477              		.syntax unified
ARM GAS  /var/folders/k1/1yttftd15rl7jxtpyc5m93n80000gn/T//ccVmGoI2.s 			page 9


 478 0022 00BF     		nop
 479 0024 BD46     		mov	sp, r7
 480              		@ sp needed
 481 0026 5DF8047B 		ldr	r7, [sp], #4
 482 002a 7047     		bx	lr
 483              	.L44:
 484              		.align	2
 485              	.L43:
 486 002c 00700040 		.word	1073770496
 487 0030 00ED00E0 		.word	-536810240
 489              		.section	.text.HAL_PWR_EnableSleepOnExit,"ax",%progbits
 490              		.align	1
 491              		.global	HAL_PWR_EnableSleepOnExit
 492              		.syntax unified
 493              		.thumb
 494              		.thumb_func
 496              	HAL_PWR_EnableSleepOnExit:
 497              		@ args = 0, pretend = 0, frame = 0
 498              		@ frame_needed = 1, uses_anonymous_args = 0
 499              		@ link register save eliminated.
 500 0000 80B4     		push	{r7}
 501 0002 00AF     		add	r7, sp, #0
 502 0004 054B     		ldr	r3, .L46
 503 0006 1B69     		ldr	r3, [r3, #16]
 504 0008 044A     		ldr	r2, .L46
 505 000a 43F00203 		orr	r3, r3, #2
 506 000e 1361     		str	r3, [r2, #16]
 507 0010 00BF     		nop
 508 0012 BD46     		mov	sp, r7
 509              		@ sp needed
 510 0014 5DF8047B 		ldr	r7, [sp], #4
 511 0018 7047     		bx	lr
 512              	.L47:
 513 001a 00BF     		.align	2
 514              	.L46:
 515 001c 00ED00E0 		.word	-536810240
 517              		.section	.text.HAL_PWR_DisableSleepOnExit,"ax",%progbits
 518              		.align	1
 519              		.global	HAL_PWR_DisableSleepOnExit
 520              		.syntax unified
 521              		.thumb
 522              		.thumb_func
 524              	HAL_PWR_DisableSleepOnExit:
 525              		@ args = 0, pretend = 0, frame = 0
 526              		@ frame_needed = 1, uses_anonymous_args = 0
 527              		@ link register save eliminated.
 528 0000 80B4     		push	{r7}
 529 0002 00AF     		add	r7, sp, #0
 530 0004 054B     		ldr	r3, .L49
 531 0006 1B69     		ldr	r3, [r3, #16]
 532 0008 044A     		ldr	r2, .L49
 533 000a 23F00203 		bic	r3, r3, #2
 534 000e 1361     		str	r3, [r2, #16]
 535 0010 00BF     		nop
 536 0012 BD46     		mov	sp, r7
 537              		@ sp needed
 538 0014 5DF8047B 		ldr	r7, [sp], #4
ARM GAS  /var/folders/k1/1yttftd15rl7jxtpyc5m93n80000gn/T//ccVmGoI2.s 			page 10


 539 0018 7047     		bx	lr
 540              	.L50:
 541 001a 00BF     		.align	2
 542              	.L49:
 543 001c 00ED00E0 		.word	-536810240
 545              		.section	.text.HAL_PWR_EnableSEVOnPend,"ax",%progbits
 546              		.align	1
 547              		.global	HAL_PWR_EnableSEVOnPend
 548              		.syntax unified
 549              		.thumb
 550              		.thumb_func
 552              	HAL_PWR_EnableSEVOnPend:
 553              		@ args = 0, pretend = 0, frame = 0
 554              		@ frame_needed = 1, uses_anonymous_args = 0
 555              		@ link register save eliminated.
 556 0000 80B4     		push	{r7}
 557 0002 00AF     		add	r7, sp, #0
 558 0004 054B     		ldr	r3, .L52
 559 0006 1B69     		ldr	r3, [r3, #16]
 560 0008 044A     		ldr	r2, .L52
 561 000a 43F01003 		orr	r3, r3, #16
 562 000e 1361     		str	r3, [r2, #16]
 563 0010 00BF     		nop
 564 0012 BD46     		mov	sp, r7
 565              		@ sp needed
 566 0014 5DF8047B 		ldr	r7, [sp], #4
 567 0018 7047     		bx	lr
 568              	.L53:
 569 001a 00BF     		.align	2
 570              	.L52:
 571 001c 00ED00E0 		.word	-536810240
 573              		.section	.text.HAL_PWR_DisableSEVOnPend,"ax",%progbits
 574              		.align	1
 575              		.global	HAL_PWR_DisableSEVOnPend
 576              		.syntax unified
 577              		.thumb
 578              		.thumb_func
 580              	HAL_PWR_DisableSEVOnPend:
 581              		@ args = 0, pretend = 0, frame = 0
 582              		@ frame_needed = 1, uses_anonymous_args = 0
 583              		@ link register save eliminated.
 584 0000 80B4     		push	{r7}
 585 0002 00AF     		add	r7, sp, #0
 586 0004 054B     		ldr	r3, .L55
 587 0006 1B69     		ldr	r3, [r3, #16]
 588 0008 044A     		ldr	r2, .L55
 589 000a 23F01003 		bic	r3, r3, #16
 590 000e 1361     		str	r3, [r2, #16]
 591 0010 00BF     		nop
 592 0012 BD46     		mov	sp, r7
 593              		@ sp needed
 594 0014 5DF8047B 		ldr	r7, [sp], #4
 595 0018 7047     		bx	lr
 596              	.L56:
 597 001a 00BF     		.align	2
 598              	.L55:
 599 001c 00ED00E0 		.word	-536810240
ARM GAS  /var/folders/k1/1yttftd15rl7jxtpyc5m93n80000gn/T//ccVmGoI2.s 			page 11


 601              		.section	.text.HAL_PWR_PVDCallback,"ax",%progbits
 602              		.align	1
 603              		.weak	HAL_PWR_PVDCallback
 604              		.syntax unified
 605              		.thumb
 606              		.thumb_func
 608              	HAL_PWR_PVDCallback:
 609              		@ args = 0, pretend = 0, frame = 0
 610              		@ frame_needed = 1, uses_anonymous_args = 0
 611              		@ link register save eliminated.
 612 0000 80B4     		push	{r7}
 613 0002 00AF     		add	r7, sp, #0
 614 0004 00BF     		nop
 615 0006 BD46     		mov	sp, r7
 616              		@ sp needed
 617 0008 5DF8047B 		ldr	r7, [sp], #4
 618 000c 7047     		bx	lr
 620              		.ident	"GCC: (GNU Tools for STM32 14.3.rel1.20251027-0700) 14.3.1 20250623"
ARM GAS  /var/folders/k1/1yttftd15rl7jxtpyc5m93n80000gn/T//ccVmGoI2.s 			page 12

