ARM GAS  /var/folders/k1/1yttftd15rl7jxtpyc5m93n80000gn/T//ccqqVpOc.s 			page 1


   1              		.cpu cortex-m4
   2              		.arch armv7e-m
   3              		.fpu fpv4-sp-d16
   4              		.eabi_attribute 27, 1
   5              		.eabi_attribute 28, 1
   6              		.eabi_attribute 20, 1
   7              		.eabi_attribute 21, 1
   8              		.eabi_attribute 23, 3
   9              		.eabi_attribute 24, 1
  10              		.eabi_attribute 25, 1
  11              		.eabi_attribute 26, 1
  12              		.eabi_attribute 30, 6
  13              		.eabi_attribute 34, 1
  14              		.eabi_attribute 18, 4
  15              		.file	"stm32g4xx_hal_i2c.c"
  16              		.text
  17              		.section	.text.HAL_I2C_Init,"ax",%progbits
  18              		.align	1
  19              		.global	HAL_I2C_Init
  20              		.syntax unified
  21              		.thumb
  22              		.thumb_func
  24              	HAL_I2C_Init:
  25              		@ args = 0, pretend = 0, frame = 8
  26              		@ frame_needed = 1, uses_anonymous_args = 0
  27 0000 80B5     		push	{r7, lr}
  28 0002 82B0     		sub	sp, sp, #8
  29 0004 00AF     		add	r7, sp, #0
  30 0006 7860     		str	r0, [r7, #4]
  31 0008 7B68     		ldr	r3, [r7, #4]
  32 000a 002B     		cmp	r3, #0
  33 000c 01D1     		bne	.L2
  34 000e 0123     		movs	r3, #1
  35 0010 8DE0     		b	.L3
  36              	.L2:
  37 0012 7B68     		ldr	r3, [r7, #4]
  38 0014 93F84130 		ldrb	r3, [r3, #65]
  39 0018 DBB2     		uxtb	r3, r3
  40 001a 002B     		cmp	r3, #0
  41 001c 06D1     		bne	.L4
  42 001e 7B68     		ldr	r3, [r7, #4]
  43 0020 0022     		movs	r2, #0
  44 0022 83F84020 		strb	r2, [r3, #64]
  45 0026 7868     		ldr	r0, [r7, #4]
  46 0028 FFF7FEFF 		bl	HAL_I2C_MspInit
  47              	.L4:
  48 002c 7B68     		ldr	r3, [r7, #4]
  49 002e 2422     		movs	r2, #36
  50 0030 83F84120 		strb	r2, [r3, #65]
  51 0034 7B68     		ldr	r3, [r7, #4]
  52 0036 1B68     		ldr	r3, [r3]
  53 0038 1A68     		ldr	r2, [r3]
  54 003a 7B68     		ldr	r3, [r7, #4]
  55 003c 1B68     		ldr	r3, [r3]
  56 003e 22F00102 		bic	r2, r2, #1
  57 0042 1A60     		str	r2, [r3]
  58 0044 7B68     		ldr	r3, [r7, #4]
ARM GAS  /var/folders/k1/1yttftd15rl7jxtpyc5m93n80000gn/T//ccqqVpOc.s 			page 2


  59 0046 5A68     		ldr	r2, [r3, #4]
  60 0048 7B68     		ldr	r3, [r7, #4]
  61 004a 1B68     		ldr	r3, [r3]
  62 004c 22F07062 		bic	r2, r2, #251658240
  63 0050 1A61     		str	r2, [r3, #16]
  64 0052 7B68     		ldr	r3, [r7, #4]
  65 0054 1B68     		ldr	r3, [r3]
  66 0056 9A68     		ldr	r2, [r3, #8]
  67 0058 7B68     		ldr	r3, [r7, #4]
  68 005a 1B68     		ldr	r3, [r3]
  69 005c 22F40042 		bic	r2, r2, #32768
  70 0060 9A60     		str	r2, [r3, #8]
  71 0062 7B68     		ldr	r3, [r7, #4]
  72 0064 DB68     		ldr	r3, [r3, #12]
  73 0066 012B     		cmp	r3, #1
  74 0068 07D1     		bne	.L5
  75 006a 7B68     		ldr	r3, [r7, #4]
  76 006c 9A68     		ldr	r2, [r3, #8]
  77 006e 7B68     		ldr	r3, [r7, #4]
  78 0070 1B68     		ldr	r3, [r3]
  79 0072 42F40042 		orr	r2, r2, #32768
  80 0076 9A60     		str	r2, [r3, #8]
  81 0078 06E0     		b	.L6
  82              	.L5:
  83 007a 7B68     		ldr	r3, [r7, #4]
  84 007c 9A68     		ldr	r2, [r3, #8]
  85 007e 7B68     		ldr	r3, [r7, #4]
  86 0080 1B68     		ldr	r3, [r3]
  87 0082 42F40442 		orr	r2, r2, #33792
  88 0086 9A60     		str	r2, [r3, #8]
  89              	.L6:
  90 0088 7B68     		ldr	r3, [r7, #4]
  91 008a DB68     		ldr	r3, [r3, #12]
  92 008c 022B     		cmp	r3, #2
  93 008e 08D1     		bne	.L7
  94 0090 7B68     		ldr	r3, [r7, #4]
  95 0092 1B68     		ldr	r3, [r3]
  96 0094 5A68     		ldr	r2, [r3, #4]
  97 0096 7B68     		ldr	r3, [r7, #4]
  98 0098 1B68     		ldr	r3, [r3]
  99 009a 42F40062 		orr	r2, r2, #2048
 100 009e 5A60     		str	r2, [r3, #4]
 101 00a0 07E0     		b	.L8
 102              	.L7:
 103 00a2 7B68     		ldr	r3, [r7, #4]
 104 00a4 1B68     		ldr	r3, [r3]
 105 00a6 5A68     		ldr	r2, [r3, #4]
 106 00a8 7B68     		ldr	r3, [r7, #4]
 107 00aa 1B68     		ldr	r3, [r3]
 108 00ac 22F40062 		bic	r2, r2, #2048
 109 00b0 5A60     		str	r2, [r3, #4]
 110              	.L8:
 111 00b2 7B68     		ldr	r3, [r7, #4]
 112 00b4 1B68     		ldr	r3, [r3]
 113 00b6 5B68     		ldr	r3, [r3, #4]
 114 00b8 7A68     		ldr	r2, [r7, #4]
 115 00ba 1268     		ldr	r2, [r2]
ARM GAS  /var/folders/k1/1yttftd15rl7jxtpyc5m93n80000gn/T//ccqqVpOc.s 			page 3


 116 00bc 43F00073 		orr	r3, r3, #33554432
 117 00c0 43F40043 		orr	r3, r3, #32768
 118 00c4 5360     		str	r3, [r2, #4]
 119 00c6 7B68     		ldr	r3, [r7, #4]
 120 00c8 1B68     		ldr	r3, [r3]
 121 00ca DA68     		ldr	r2, [r3, #12]
 122 00cc 7B68     		ldr	r3, [r7, #4]
 123 00ce 1B68     		ldr	r3, [r3]
 124 00d0 22F40042 		bic	r2, r2, #32768
 125 00d4 DA60     		str	r2, [r3, #12]
 126 00d6 7B68     		ldr	r3, [r7, #4]
 127 00d8 1A69     		ldr	r2, [r3, #16]
 128 00da 7B68     		ldr	r3, [r7, #4]
 129 00dc 5B69     		ldr	r3, [r3, #20]
 130 00de 42EA0301 		orr	r1, r2, r3
 131 00e2 7B68     		ldr	r3, [r7, #4]
 132 00e4 9B69     		ldr	r3, [r3, #24]
 133 00e6 1A02     		lsls	r2, r3, #8
 134 00e8 7B68     		ldr	r3, [r7, #4]
 135 00ea 1B68     		ldr	r3, [r3]
 136 00ec 0A43     		orrs	r2, r2, r1
 137 00ee DA60     		str	r2, [r3, #12]
 138 00f0 7B68     		ldr	r3, [r7, #4]
 139 00f2 D969     		ldr	r1, [r3, #28]
 140 00f4 7B68     		ldr	r3, [r7, #4]
 141 00f6 1A6A     		ldr	r2, [r3, #32]
 142 00f8 7B68     		ldr	r3, [r7, #4]
 143 00fa 1B68     		ldr	r3, [r3]
 144 00fc 0A43     		orrs	r2, r2, r1
 145 00fe 1A60     		str	r2, [r3]
 146 0100 7B68     		ldr	r3, [r7, #4]
 147 0102 1B68     		ldr	r3, [r3]
 148 0104 1A68     		ldr	r2, [r3]
 149 0106 7B68     		ldr	r3, [r7, #4]
 150 0108 1B68     		ldr	r3, [r3]
 151 010a 42F00102 		orr	r2, r2, #1
 152 010e 1A60     		str	r2, [r3]
 153 0110 7B68     		ldr	r3, [r7, #4]
 154 0112 0022     		movs	r2, #0
 155 0114 5A64     		str	r2, [r3, #68]
 156 0116 7B68     		ldr	r3, [r7, #4]
 157 0118 2022     		movs	r2, #32
 158 011a 83F84120 		strb	r2, [r3, #65]
 159 011e 7B68     		ldr	r3, [r7, #4]
 160 0120 0022     		movs	r2, #0
 161 0122 1A63     		str	r2, [r3, #48]
 162 0124 7B68     		ldr	r3, [r7, #4]
 163 0126 0022     		movs	r2, #0
 164 0128 83F84220 		strb	r2, [r3, #66]
 165 012c 0023     		movs	r3, #0
 166              	.L3:
 167 012e 1846     		mov	r0, r3
 168 0130 0837     		adds	r7, r7, #8
 169 0132 BD46     		mov	sp, r7
 170              		@ sp needed
 171 0134 80BD     		pop	{r7, pc}
 173              		.section	.text.HAL_I2C_DeInit,"ax",%progbits
ARM GAS  /var/folders/k1/1yttftd15rl7jxtpyc5m93n80000gn/T//ccqqVpOc.s 			page 4


 174              		.align	1
 175              		.global	HAL_I2C_DeInit
 176              		.syntax unified
 177              		.thumb
 178              		.thumb_func
 180              	HAL_I2C_DeInit:
 181              		@ args = 0, pretend = 0, frame = 8
 182              		@ frame_needed = 1, uses_anonymous_args = 0
 183 0000 80B5     		push	{r7, lr}
 184 0002 82B0     		sub	sp, sp, #8
 185 0004 00AF     		add	r7, sp, #0
 186 0006 7860     		str	r0, [r7, #4]
 187 0008 7B68     		ldr	r3, [r7, #4]
 188 000a 002B     		cmp	r3, #0
 189 000c 01D1     		bne	.L10
 190 000e 0123     		movs	r3, #1
 191 0010 21E0     		b	.L11
 192              	.L10:
 193 0012 7B68     		ldr	r3, [r7, #4]
 194 0014 2422     		movs	r2, #36
 195 0016 83F84120 		strb	r2, [r3, #65]
 196 001a 7B68     		ldr	r3, [r7, #4]
 197 001c 1B68     		ldr	r3, [r3]
 198 001e 1A68     		ldr	r2, [r3]
 199 0020 7B68     		ldr	r3, [r7, #4]
 200 0022 1B68     		ldr	r3, [r3]
 201 0024 22F00102 		bic	r2, r2, #1
 202 0028 1A60     		str	r2, [r3]
 203 002a 7868     		ldr	r0, [r7, #4]
 204 002c FFF7FEFF 		bl	HAL_I2C_MspDeInit
 205 0030 7B68     		ldr	r3, [r7, #4]
 206 0032 0022     		movs	r2, #0
 207 0034 5A64     		str	r2, [r3, #68]
 208 0036 7B68     		ldr	r3, [r7, #4]
 209 0038 0022     		movs	r2, #0
 210 003a 83F84120 		strb	r2, [r3, #65]
 211 003e 7B68     		ldr	r3, [r7, #4]
 212 0040 0022     		movs	r2, #0
 213 0042 1A63     		str	r2, [r3, #48]
 214 0044 7B68     		ldr	r3, [r7, #4]
 215 0046 0022     		movs	r2, #0
 216 0048 83F84220 		strb	r2, [r3, #66]
 217 004c 7B68     		ldr	r3, [r7, #4]
 218 004e 0022     		movs	r2, #0
 219 0050 83F84020 		strb	r2, [r3, #64]
 220 0054 0023     		movs	r3, #0
 221              	.L11:
 222 0056 1846     		mov	r0, r3
 223 0058 0837     		adds	r7, r7, #8
 224 005a BD46     		mov	sp, r7
 225              		@ sp needed
 226 005c 80BD     		pop	{r7, pc}
 228              		.section	.text.HAL_I2C_MspInit,"ax",%progbits
 229              		.align	1
 230              		.weak	HAL_I2C_MspInit
 231              		.syntax unified
 232              		.thumb
ARM GAS  /var/folders/k1/1yttftd15rl7jxtpyc5m93n80000gn/T//ccqqVpOc.s 			page 5


 233              		.thumb_func
 235              	HAL_I2C_MspInit:
 236              		@ args = 0, pretend = 0, frame = 8
 237              		@ frame_needed = 1, uses_anonymous_args = 0
 238              		@ link register save eliminated.
 239 0000 80B4     		push	{r7}
 240 0002 83B0     		sub	sp, sp, #12
 241 0004 00AF     		add	r7, sp, #0
 242 0006 7860     		str	r0, [r7, #4]
 243 0008 00BF     		nop
 244 000a 0C37     		adds	r7, r7, #12
 245 000c BD46     		mov	sp, r7
 246              		@ sp needed
 247 000e 5DF8047B 		ldr	r7, [sp], #4
 248 0012 7047     		bx	lr
 250              		.section	.text.HAL_I2C_MspDeInit,"ax",%progbits
 251              		.align	1
 252              		.weak	HAL_I2C_MspDeInit
 253              		.syntax unified
 254              		.thumb
 255              		.thumb_func
 257              	HAL_I2C_MspDeInit:
 258              		@ args = 0, pretend = 0, frame = 8
 259              		@ frame_needed = 1, uses_anonymous_args = 0
 260              		@ link register save eliminated.
 261 0000 80B4     		push	{r7}
 262 0002 83B0     		sub	sp, sp, #12
 263 0004 00AF     		add	r7, sp, #0
 264 0006 7860     		str	r0, [r7, #4]
 265 0008 00BF     		nop
 266 000a 0C37     		adds	r7, r7, #12
 267 000c BD46     		mov	sp, r7
 268              		@ sp needed
 269 000e 5DF8047B 		ldr	r7, [sp], #4
 270 0012 7047     		bx	lr
 272              		.section	.text.HAL_I2C_Master_Transmit,"ax",%progbits
 273              		.align	1
 274              		.global	HAL_I2C_Master_Transmit
 275              		.syntax unified
 276              		.thumb
 277              		.thumb_func
 279              	HAL_I2C_Master_Transmit:
 280              		@ args = 4, pretend = 0, frame = 24
 281              		@ frame_needed = 1, uses_anonymous_args = 0
 282 0000 80B5     		push	{r7, lr}
 283 0002 88B0     		sub	sp, sp, #32
 284 0004 02AF     		add	r7, sp, #8
 285 0006 F860     		str	r0, [r7, #12]
 286 0008 7A60     		str	r2, [r7, #4]
 287 000a 1A46     		mov	r2, r3
 288 000c 0B46     		mov	r3, r1	@ movhi
 289 000e 7B81     		strh	r3, [r7, #10]	@ movhi
 290 0010 1346     		mov	r3, r2	@ movhi
 291 0012 3B81     		strh	r3, [r7, #8]	@ movhi
 292 0014 FB68     		ldr	r3, [r7, #12]
 293 0016 93F84130 		ldrb	r3, [r3, #65]
 294 001a DBB2     		uxtb	r3, r3
ARM GAS  /var/folders/k1/1yttftd15rl7jxtpyc5m93n80000gn/T//ccqqVpOc.s 			page 6


 295 001c 202B     		cmp	r3, #32
 296 001e 40F0FD80 		bne	.L15
 297 0022 FB68     		ldr	r3, [r7, #12]
 298 0024 93F84030 		ldrb	r3, [r3, #64]	@ zero_extendqisi2
 299 0028 012B     		cmp	r3, #1
 300 002a 01D1     		bne	.L16
 301 002c 0223     		movs	r3, #2
 302 002e F6E0     		b	.L17
 303              	.L16:
 304 0030 FB68     		ldr	r3, [r7, #12]
 305 0032 0122     		movs	r2, #1
 306 0034 83F84020 		strb	r2, [r3, #64]
 307 0038 FFF7FEFF 		bl	HAL_GetTick
 308 003c 3861     		str	r0, [r7, #16]
 309 003e 3B69     		ldr	r3, [r7, #16]
 310 0040 0093     		str	r3, [sp]
 311 0042 1923     		movs	r3, #25
 312 0044 0122     		movs	r2, #1
 313 0046 4FF40041 		mov	r1, #32768
 314 004a F868     		ldr	r0, [r7, #12]
 315 004c FFF7FEFF 		bl	I2C_WaitOnFlagUntilTimeout
 316 0050 0346     		mov	r3, r0
 317 0052 002B     		cmp	r3, #0
 318 0054 01D0     		beq	.L18
 319 0056 0123     		movs	r3, #1
 320 0058 E1E0     		b	.L17
 321              	.L18:
 322 005a FB68     		ldr	r3, [r7, #12]
 323 005c 2122     		movs	r2, #33
 324 005e 83F84120 		strb	r2, [r3, #65]
 325 0062 FB68     		ldr	r3, [r7, #12]
 326 0064 1022     		movs	r2, #16
 327 0066 83F84220 		strb	r2, [r3, #66]
 328 006a FB68     		ldr	r3, [r7, #12]
 329 006c 0022     		movs	r2, #0
 330 006e 5A64     		str	r2, [r3, #68]
 331 0070 FB68     		ldr	r3, [r7, #12]
 332 0072 7A68     		ldr	r2, [r7, #4]
 333 0074 5A62     		str	r2, [r3, #36]
 334 0076 FB68     		ldr	r3, [r7, #12]
 335 0078 3A89     		ldrh	r2, [r7, #8]	@ movhi
 336 007a 5A85     		strh	r2, [r3, #42]	@ movhi
 337 007c FB68     		ldr	r3, [r7, #12]
 338 007e 0022     		movs	r2, #0
 339 0080 5A63     		str	r2, [r3, #52]
 340 0082 FB68     		ldr	r3, [r7, #12]
 341 0084 5B8D     		ldrh	r3, [r3, #42]	@ movhi
 342 0086 9BB2     		uxth	r3, r3
 343 0088 FF2B     		cmp	r3, #255
 344 008a 06D9     		bls	.L19
 345 008c FB68     		ldr	r3, [r7, #12]
 346 008e FF22     		movs	r2, #255
 347 0090 1A85     		strh	r2, [r3, #40]	@ movhi
 348 0092 4FF08073 		mov	r3, #16777216
 349 0096 7B61     		str	r3, [r7, #20]
 350 0098 07E0     		b	.L20
 351              	.L19:
ARM GAS  /var/folders/k1/1yttftd15rl7jxtpyc5m93n80000gn/T//ccqqVpOc.s 			page 7


 352 009a FB68     		ldr	r3, [r7, #12]
 353 009c 5B8D     		ldrh	r3, [r3, #42]	@ movhi
 354 009e 9AB2     		uxth	r2, r3
 355 00a0 FB68     		ldr	r3, [r7, #12]
 356 00a2 1A85     		strh	r2, [r3, #40]	@ movhi
 357 00a4 4FF00073 		mov	r3, #33554432
 358 00a8 7B61     		str	r3, [r7, #20]
 359              	.L20:
 360 00aa FB68     		ldr	r3, [r7, #12]
 361 00ac 1B8D     		ldrh	r3, [r3, #40]
 362 00ae 002B     		cmp	r3, #0
 363 00b0 24D0     		beq	.L21
 364 00b2 FB68     		ldr	r3, [r7, #12]
 365 00b4 5B6A     		ldr	r3, [r3, #36]
 366 00b6 1A78     		ldrb	r2, [r3]	@ zero_extendqisi2
 367 00b8 FB68     		ldr	r3, [r7, #12]
 368 00ba 1B68     		ldr	r3, [r3]
 369 00bc 9A62     		str	r2, [r3, #40]
 370 00be FB68     		ldr	r3, [r7, #12]
 371 00c0 5B6A     		ldr	r3, [r3, #36]
 372 00c2 5A1C     		adds	r2, r3, #1
 373 00c4 FB68     		ldr	r3, [r7, #12]
 374 00c6 5A62     		str	r2, [r3, #36]
 375 00c8 FB68     		ldr	r3, [r7, #12]
 376 00ca 5B8D     		ldrh	r3, [r3, #42]	@ movhi
 377 00cc 9BB2     		uxth	r3, r3
 378 00ce 013B     		subs	r3, r3, #1
 379 00d0 9AB2     		uxth	r2, r3
 380 00d2 FB68     		ldr	r3, [r7, #12]
 381 00d4 5A85     		strh	r2, [r3, #42]	@ movhi
 382 00d6 FB68     		ldr	r3, [r7, #12]
 383 00d8 1B8D     		ldrh	r3, [r3, #40]
 384 00da 013B     		subs	r3, r3, #1
 385 00dc 9AB2     		uxth	r2, r3
 386 00de FB68     		ldr	r3, [r7, #12]
 387 00e0 1A85     		strh	r2, [r3, #40]	@ movhi
 388 00e2 FB68     		ldr	r3, [r7, #12]
 389 00e4 1B8D     		ldrh	r3, [r3, #40]
 390 00e6 DBB2     		uxtb	r3, r3
 391 00e8 0133     		adds	r3, r3, #1
 392 00ea DAB2     		uxtb	r2, r3
 393 00ec 7989     		ldrh	r1, [r7, #10]
 394 00ee 4E4B     		ldr	r3, .L30
 395 00f0 0093     		str	r3, [sp]
 396 00f2 7B69     		ldr	r3, [r7, #20]
 397 00f4 F868     		ldr	r0, [r7, #12]
 398 00f6 FFF7FEFF 		bl	I2C_TransferConfig
 399 00fa 66E0     		b	.L23
 400              	.L21:
 401 00fc FB68     		ldr	r3, [r7, #12]
 402 00fe 1B8D     		ldrh	r3, [r3, #40]
 403 0100 DAB2     		uxtb	r2, r3
 404 0102 7989     		ldrh	r1, [r7, #10]
 405 0104 484B     		ldr	r3, .L30
 406 0106 0093     		str	r3, [sp]
 407 0108 7B69     		ldr	r3, [r7, #20]
 408 010a F868     		ldr	r0, [r7, #12]
ARM GAS  /var/folders/k1/1yttftd15rl7jxtpyc5m93n80000gn/T//ccqqVpOc.s 			page 8


 409 010c FFF7FEFF 		bl	I2C_TransferConfig
 410 0110 5BE0     		b	.L23
 411              	.L28:
 412 0112 3A69     		ldr	r2, [r7, #16]
 413 0114 396A     		ldr	r1, [r7, #32]
 414 0116 F868     		ldr	r0, [r7, #12]
 415 0118 FFF7FEFF 		bl	I2C_WaitOnTXISFlagUntilTimeout
 416 011c 0346     		mov	r3, r0
 417 011e 002B     		cmp	r3, #0
 418 0120 01D0     		beq	.L24
 419 0122 0123     		movs	r3, #1
 420 0124 7BE0     		b	.L17
 421              	.L24:
 422 0126 FB68     		ldr	r3, [r7, #12]
 423 0128 5B6A     		ldr	r3, [r3, #36]
 424 012a 1A78     		ldrb	r2, [r3]	@ zero_extendqisi2
 425 012c FB68     		ldr	r3, [r7, #12]
 426 012e 1B68     		ldr	r3, [r3]
 427 0130 9A62     		str	r2, [r3, #40]
 428 0132 FB68     		ldr	r3, [r7, #12]
 429 0134 5B6A     		ldr	r3, [r3, #36]
 430 0136 5A1C     		adds	r2, r3, #1
 431 0138 FB68     		ldr	r3, [r7, #12]
 432 013a 5A62     		str	r2, [r3, #36]
 433 013c FB68     		ldr	r3, [r7, #12]
 434 013e 5B8D     		ldrh	r3, [r3, #42]	@ movhi
 435 0140 9BB2     		uxth	r3, r3
 436 0142 013B     		subs	r3, r3, #1
 437 0144 9AB2     		uxth	r2, r3
 438 0146 FB68     		ldr	r3, [r7, #12]
 439 0148 5A85     		strh	r2, [r3, #42]	@ movhi
 440 014a FB68     		ldr	r3, [r7, #12]
 441 014c 1B8D     		ldrh	r3, [r3, #40]
 442 014e 013B     		subs	r3, r3, #1
 443 0150 9AB2     		uxth	r2, r3
 444 0152 FB68     		ldr	r3, [r7, #12]
 445 0154 1A85     		strh	r2, [r3, #40]	@ movhi
 446 0156 FB68     		ldr	r3, [r7, #12]
 447 0158 5B8D     		ldrh	r3, [r3, #42]	@ movhi
 448 015a 9BB2     		uxth	r3, r3
 449 015c 002B     		cmp	r3, #0
 450 015e 34D0     		beq	.L23
 451 0160 FB68     		ldr	r3, [r7, #12]
 452 0162 1B8D     		ldrh	r3, [r3, #40]
 453 0164 002B     		cmp	r3, #0
 454 0166 30D1     		bne	.L23
 455 0168 3B69     		ldr	r3, [r7, #16]
 456 016a 0093     		str	r3, [sp]
 457 016c 3B6A     		ldr	r3, [r7, #32]
 458 016e 0022     		movs	r2, #0
 459 0170 8021     		movs	r1, #128
 460 0172 F868     		ldr	r0, [r7, #12]
 461 0174 FFF7FEFF 		bl	I2C_WaitOnFlagUntilTimeout
 462 0178 0346     		mov	r3, r0
 463 017a 002B     		cmp	r3, #0
 464 017c 01D0     		beq	.L26
 465 017e 0123     		movs	r3, #1
ARM GAS  /var/folders/k1/1yttftd15rl7jxtpyc5m93n80000gn/T//ccqqVpOc.s 			page 9


 466 0180 4DE0     		b	.L17
 467              	.L26:
 468 0182 FB68     		ldr	r3, [r7, #12]
 469 0184 5B8D     		ldrh	r3, [r3, #42]	@ movhi
 470 0186 9BB2     		uxth	r3, r3
 471 0188 FF2B     		cmp	r3, #255
 472 018a 0ED9     		bls	.L27
 473 018c FB68     		ldr	r3, [r7, #12]
 474 018e FF22     		movs	r2, #255
 475 0190 1A85     		strh	r2, [r3, #40]	@ movhi
 476 0192 FB68     		ldr	r3, [r7, #12]
 477 0194 1B8D     		ldrh	r3, [r3, #40]
 478 0196 DAB2     		uxtb	r2, r3
 479 0198 7989     		ldrh	r1, [r7, #10]
 480 019a 0023     		movs	r3, #0
 481 019c 0093     		str	r3, [sp]
 482 019e 4FF08073 		mov	r3, #16777216
 483 01a2 F868     		ldr	r0, [r7, #12]
 484 01a4 FFF7FEFF 		bl	I2C_TransferConfig
 485 01a8 0FE0     		b	.L23
 486              	.L27:
 487 01aa FB68     		ldr	r3, [r7, #12]
 488 01ac 5B8D     		ldrh	r3, [r3, #42]	@ movhi
 489 01ae 9AB2     		uxth	r2, r3
 490 01b0 FB68     		ldr	r3, [r7, #12]
 491 01b2 1A85     		strh	r2, [r3, #40]	@ movhi
 492 01b4 FB68     		ldr	r3, [r7, #12]
 493 01b6 1B8D     		ldrh	r3, [r3, #40]
 494 01b8 DAB2     		uxtb	r2, r3
 495 01ba 7989     		ldrh	r1, [r7, #10]
 496 01bc 0023     		movs	r3, #0
 497 01be 0093     		str	r3, [sp]
 498 01c0 4FF00073 		mov	r3, #33554432
 499 01c4 F868     		ldr	r0, [r7, #12]
 500 01c6 FFF7FEFF 		bl	I2C_TransferConfig
 501              	.L23:
 502 01ca FB68     		ldr	r3, [r7, #12]
 503 01cc 5B8D     		ldrh	r3, [r3, #42]	@ movhi
 504 01ce 9BB2     		uxth	r3, r3
 505 01d0 002B     		cmp	r3, #0
 506 01d2 9ED1     		bne	.L28
 507 01d4 3A69     		ldr	r2, [r7, #16]
 508 01d6 396A     		ldr	r1, [r7, #32]
 509 01d8 F868     		ldr	r0, [r7, #12]
 510 01da FFF7FEFF 		bl	I2C_WaitOnSTOPFlagUntilTimeout
 511 01de 0346     		mov	r3, r0
 512 01e0 002B     		cmp	r3, #0
 513 01e2 01D0     		beq	.L29
 514 01e4 0123     		movs	r3, #1
 515 01e6 1AE0     		b	.L17
 516              	.L29:
 517 01e8 FB68     		ldr	r3, [r7, #12]
 518 01ea 1B68     		ldr	r3, [r3]
 519 01ec 2022     		movs	r2, #32
 520 01ee DA61     		str	r2, [r3, #28]
 521 01f0 FB68     		ldr	r3, [r7, #12]
 522 01f2 1B68     		ldr	r3, [r3]
ARM GAS  /var/folders/k1/1yttftd15rl7jxtpyc5m93n80000gn/T//ccqqVpOc.s 			page 10


 523 01f4 5968     		ldr	r1, [r3, #4]
 524 01f6 FB68     		ldr	r3, [r7, #12]
 525 01f8 1A68     		ldr	r2, [r3]
 526 01fa 0C4B     		ldr	r3, .L30+4
 527 01fc 0B40     		ands	r3, r3, r1
 528 01fe 5360     		str	r3, [r2, #4]
 529 0200 FB68     		ldr	r3, [r7, #12]
 530 0202 2022     		movs	r2, #32
 531 0204 83F84120 		strb	r2, [r3, #65]
 532 0208 FB68     		ldr	r3, [r7, #12]
 533 020a 0022     		movs	r2, #0
 534 020c 83F84220 		strb	r2, [r3, #66]
 535 0210 FB68     		ldr	r3, [r7, #12]
 536 0212 0022     		movs	r2, #0
 537 0214 83F84020 		strb	r2, [r3, #64]
 538 0218 0023     		movs	r3, #0
 539 021a 00E0     		b	.L17
 540              	.L15:
 541 021c 0223     		movs	r3, #2
 542              	.L17:
 543 021e 1846     		mov	r0, r3
 544 0220 1837     		adds	r7, r7, #24
 545 0222 BD46     		mov	sp, r7
 546              		@ sp needed
 547 0224 80BD     		pop	{r7, pc}
 548              	.L31:
 549 0226 00BF     		.align	2
 550              	.L30:
 551 0228 00200080 		.word	-2147475456
 552 022c 00E800FE 		.word	-33495040
 554              		.section	.text.HAL_I2C_Master_Receive,"ax",%progbits
 555              		.align	1
 556              		.global	HAL_I2C_Master_Receive
 557              		.syntax unified
 558              		.thumb
 559              		.thumb_func
 561              	HAL_I2C_Master_Receive:
 562              		@ args = 4, pretend = 0, frame = 24
 563              		@ frame_needed = 1, uses_anonymous_args = 0
 564 0000 80B5     		push	{r7, lr}
 565 0002 88B0     		sub	sp, sp, #32
 566 0004 02AF     		add	r7, sp, #8
 567 0006 F860     		str	r0, [r7, #12]
 568 0008 7A60     		str	r2, [r7, #4]
 569 000a 1A46     		mov	r2, r3
 570 000c 0B46     		mov	r3, r1	@ movhi
 571 000e 7B81     		strh	r3, [r7, #10]	@ movhi
 572 0010 1346     		mov	r3, r2	@ movhi
 573 0012 3B81     		strh	r3, [r7, #8]	@ movhi
 574 0014 FB68     		ldr	r3, [r7, #12]
 575 0016 93F84130 		ldrb	r3, [r3, #65]
 576 001a DBB2     		uxtb	r3, r3
 577 001c 202B     		cmp	r3, #32
 578 001e 40F0DB80 		bne	.L33
 579 0022 FB68     		ldr	r3, [r7, #12]
 580 0024 93F84030 		ldrb	r3, [r3, #64]	@ zero_extendqisi2
 581 0028 012B     		cmp	r3, #1
ARM GAS  /var/folders/k1/1yttftd15rl7jxtpyc5m93n80000gn/T//ccqqVpOc.s 			page 11


 582 002a 01D1     		bne	.L34
 583 002c 0223     		movs	r3, #2
 584 002e D4E0     		b	.L35
 585              	.L34:
 586 0030 FB68     		ldr	r3, [r7, #12]
 587 0032 0122     		movs	r2, #1
 588 0034 83F84020 		strb	r2, [r3, #64]
 589 0038 FFF7FEFF 		bl	HAL_GetTick
 590 003c 7861     		str	r0, [r7, #20]
 591 003e 7B69     		ldr	r3, [r7, #20]
 592 0040 0093     		str	r3, [sp]
 593 0042 1923     		movs	r3, #25
 594 0044 0122     		movs	r2, #1
 595 0046 4FF40041 		mov	r1, #32768
 596 004a F868     		ldr	r0, [r7, #12]
 597 004c FFF7FEFF 		bl	I2C_WaitOnFlagUntilTimeout
 598 0050 0346     		mov	r3, r0
 599 0052 002B     		cmp	r3, #0
 600 0054 01D0     		beq	.L36
 601 0056 0123     		movs	r3, #1
 602 0058 BFE0     		b	.L35
 603              	.L36:
 604 005a FB68     		ldr	r3, [r7, #12]
 605 005c 2222     		movs	r2, #34
 606 005e 83F84120 		strb	r2, [r3, #65]
 607 0062 FB68     		ldr	r3, [r7, #12]
 608 0064 1022     		movs	r2, #16
 609 0066 83F84220 		strb	r2, [r3, #66]
 610 006a FB68     		ldr	r3, [r7, #12]
 611 006c 0022     		movs	r2, #0
 612 006e 5A64     		str	r2, [r3, #68]
 613 0070 FB68     		ldr	r3, [r7, #12]
 614 0072 7A68     		ldr	r2, [r7, #4]
 615 0074 5A62     		str	r2, [r3, #36]
 616 0076 FB68     		ldr	r3, [r7, #12]
 617 0078 3A89     		ldrh	r2, [r7, #8]	@ movhi
 618 007a 5A85     		strh	r2, [r3, #42]	@ movhi
 619 007c FB68     		ldr	r3, [r7, #12]
 620 007e 0022     		movs	r2, #0
 621 0080 5A63     		str	r2, [r3, #52]
 622 0082 FB68     		ldr	r3, [r7, #12]
 623 0084 5B8D     		ldrh	r3, [r3, #42]	@ movhi
 624 0086 9BB2     		uxth	r3, r3
 625 0088 FF2B     		cmp	r3, #255
 626 008a 0ED9     		bls	.L37
 627 008c FB68     		ldr	r3, [r7, #12]
 628 008e FF22     		movs	r2, #255
 629 0090 1A85     		strh	r2, [r3, #40]	@ movhi
 630 0092 FB68     		ldr	r3, [r7, #12]
 631 0094 1B8D     		ldrh	r3, [r3, #40]
 632 0096 DAB2     		uxtb	r2, r3
 633 0098 7989     		ldrh	r1, [r7, #10]
 634 009a 524B     		ldr	r3, .L46
 635 009c 0093     		str	r3, [sp]
 636 009e 4FF08073 		mov	r3, #16777216
 637 00a2 F868     		ldr	r0, [r7, #12]
 638 00a4 FFF7FEFF 		bl	I2C_TransferConfig
ARM GAS  /var/folders/k1/1yttftd15rl7jxtpyc5m93n80000gn/T//ccqqVpOc.s 			page 12


 639 00a8 6DE0     		b	.L39
 640              	.L37:
 641 00aa FB68     		ldr	r3, [r7, #12]
 642 00ac 5B8D     		ldrh	r3, [r3, #42]	@ movhi
 643 00ae 9AB2     		uxth	r2, r3
 644 00b0 FB68     		ldr	r3, [r7, #12]
 645 00b2 1A85     		strh	r2, [r3, #40]	@ movhi
 646 00b4 FB68     		ldr	r3, [r7, #12]
 647 00b6 1B8D     		ldrh	r3, [r3, #40]
 648 00b8 DAB2     		uxtb	r2, r3
 649 00ba 7989     		ldrh	r1, [r7, #10]
 650 00bc 494B     		ldr	r3, .L46
 651 00be 0093     		str	r3, [sp]
 652 00c0 4FF00073 		mov	r3, #33554432
 653 00c4 F868     		ldr	r0, [r7, #12]
 654 00c6 FFF7FEFF 		bl	I2C_TransferConfig
 655 00ca 5CE0     		b	.L39
 656              	.L44:
 657 00cc 7A69     		ldr	r2, [r7, #20]
 658 00ce 396A     		ldr	r1, [r7, #32]
 659 00d0 F868     		ldr	r0, [r7, #12]
 660 00d2 FFF7FEFF 		bl	I2C_WaitOnRXNEFlagUntilTimeout
 661 00d6 0346     		mov	r3, r0
 662 00d8 002B     		cmp	r3, #0
 663 00da 01D0     		beq	.L40
 664 00dc 0123     		movs	r3, #1
 665 00de 7CE0     		b	.L35
 666              	.L40:
 667 00e0 FB68     		ldr	r3, [r7, #12]
 668 00e2 1B68     		ldr	r3, [r3]
 669 00e4 5A6A     		ldr	r2, [r3, #36]
 670 00e6 FB68     		ldr	r3, [r7, #12]
 671 00e8 5B6A     		ldr	r3, [r3, #36]
 672 00ea D2B2     		uxtb	r2, r2
 673 00ec 1A70     		strb	r2, [r3]
 674 00ee FB68     		ldr	r3, [r7, #12]
 675 00f0 5B6A     		ldr	r3, [r3, #36]
 676 00f2 5A1C     		adds	r2, r3, #1
 677 00f4 FB68     		ldr	r3, [r7, #12]
 678 00f6 5A62     		str	r2, [r3, #36]
 679 00f8 FB68     		ldr	r3, [r7, #12]
 680 00fa 1B8D     		ldrh	r3, [r3, #40]
 681 00fc 013B     		subs	r3, r3, #1
 682 00fe 9AB2     		uxth	r2, r3
 683 0100 FB68     		ldr	r3, [r7, #12]
 684 0102 1A85     		strh	r2, [r3, #40]	@ movhi
 685 0104 FB68     		ldr	r3, [r7, #12]
 686 0106 5B8D     		ldrh	r3, [r3, #42]	@ movhi
 687 0108 9BB2     		uxth	r3, r3
 688 010a 013B     		subs	r3, r3, #1
 689 010c 9AB2     		uxth	r2, r3
 690 010e FB68     		ldr	r3, [r7, #12]
 691 0110 5A85     		strh	r2, [r3, #42]	@ movhi
 692 0112 FB68     		ldr	r3, [r7, #12]
 693 0114 5B8D     		ldrh	r3, [r3, #42]	@ movhi
 694 0116 9BB2     		uxth	r3, r3
 695 0118 002B     		cmp	r3, #0
ARM GAS  /var/folders/k1/1yttftd15rl7jxtpyc5m93n80000gn/T//ccqqVpOc.s 			page 13


 696 011a 34D0     		beq	.L39
 697 011c FB68     		ldr	r3, [r7, #12]
 698 011e 1B8D     		ldrh	r3, [r3, #40]
 699 0120 002B     		cmp	r3, #0
 700 0122 30D1     		bne	.L39
 701 0124 7B69     		ldr	r3, [r7, #20]
 702 0126 0093     		str	r3, [sp]
 703 0128 3B6A     		ldr	r3, [r7, #32]
 704 012a 0022     		movs	r2, #0
 705 012c 8021     		movs	r1, #128
 706 012e F868     		ldr	r0, [r7, #12]
 707 0130 FFF7FEFF 		bl	I2C_WaitOnFlagUntilTimeout
 708 0134 0346     		mov	r3, r0
 709 0136 002B     		cmp	r3, #0
 710 0138 01D0     		beq	.L42
 711 013a 0123     		movs	r3, #1
 712 013c 4DE0     		b	.L35
 713              	.L42:
 714 013e FB68     		ldr	r3, [r7, #12]
 715 0140 5B8D     		ldrh	r3, [r3, #42]	@ movhi
 716 0142 9BB2     		uxth	r3, r3
 717 0144 FF2B     		cmp	r3, #255
 718 0146 0ED9     		bls	.L43
 719 0148 FB68     		ldr	r3, [r7, #12]
 720 014a FF22     		movs	r2, #255
 721 014c 1A85     		strh	r2, [r3, #40]	@ movhi
 722 014e FB68     		ldr	r3, [r7, #12]
 723 0150 1B8D     		ldrh	r3, [r3, #40]
 724 0152 DAB2     		uxtb	r2, r3
 725 0154 7989     		ldrh	r1, [r7, #10]
 726 0156 0023     		movs	r3, #0
 727 0158 0093     		str	r3, [sp]
 728 015a 4FF08073 		mov	r3, #16777216
 729 015e F868     		ldr	r0, [r7, #12]
 730 0160 FFF7FEFF 		bl	I2C_TransferConfig
 731 0164 0FE0     		b	.L39
 732              	.L43:
 733 0166 FB68     		ldr	r3, [r7, #12]
 734 0168 5B8D     		ldrh	r3, [r3, #42]	@ movhi
 735 016a 9AB2     		uxth	r2, r3
 736 016c FB68     		ldr	r3, [r7, #12]
 737 016e 1A85     		strh	r2, [r3, #40]	@ movhi
 738 0170 FB68     		ldr	r3, [r7, #12]
 739 0172 1B8D     		ldrh	r3, [r3, #40]
 740 0174 DAB2     		uxtb	r2, r3
 741 0176 7989     		ldrh	r1, [r7, #10]
 742 0178 0023     		movs	r3, #0
 743 017a 0093     		str	r3, [sp]
 744 017c 4FF00073 		mov	r3, #33554432
 745 0180 F868     		ldr	r0, [r7, #12]
 746 0182 FFF7FEFF 		bl	I2C_TransferConfig
 747              	.L39:
 748 0186 FB68     		ldr	r3, [r7, #12]
 749 0188 5B8D     		ldrh	r3, [r3, #42]	@ movhi
 750 018a 9BB2     		uxth	r3, r3
 751 018c 002B     		cmp	r3, #0
 752 018e 9DD1     		bne	.L44
ARM GAS  /var/folders/k1/1yttftd15rl7jxtpyc5m93n80000gn/T//ccqqVpOc.s 			page 14


 753 0190 7A69     		ldr	r2, [r7, #20]
 754 0192 396A     		ldr	r1, [r7, #32]
 755 0194 F868     		ldr	r0, [r7, #12]
 756 0196 FFF7FEFF 		bl	I2C_WaitOnSTOPFlagUntilTimeout
 757 019a 0346     		mov	r3, r0
 758 019c 002B     		cmp	r3, #0
 759 019e 01D0     		beq	.L45
 760 01a0 0123     		movs	r3, #1
 761 01a2 1AE0     		b	.L35
 762              	.L45:
 763 01a4 FB68     		ldr	r3, [r7, #12]
 764 01a6 1B68     		ldr	r3, [r3]
 765 01a8 2022     		movs	r2, #32
 766 01aa DA61     		str	r2, [r3, #28]
 767 01ac FB68     		ldr	r3, [r7, #12]
 768 01ae 1B68     		ldr	r3, [r3]
 769 01b0 5968     		ldr	r1, [r3, #4]
 770 01b2 FB68     		ldr	r3, [r7, #12]
 771 01b4 1A68     		ldr	r2, [r3]
 772 01b6 0C4B     		ldr	r3, .L46+4
 773 01b8 0B40     		ands	r3, r3, r1
 774 01ba 5360     		str	r3, [r2, #4]
 775 01bc FB68     		ldr	r3, [r7, #12]
 776 01be 2022     		movs	r2, #32
 777 01c0 83F84120 		strb	r2, [r3, #65]
 778 01c4 FB68     		ldr	r3, [r7, #12]
 779 01c6 0022     		movs	r2, #0
 780 01c8 83F84220 		strb	r2, [r3, #66]
 781 01cc FB68     		ldr	r3, [r7, #12]
 782 01ce 0022     		movs	r2, #0
 783 01d0 83F84020 		strb	r2, [r3, #64]
 784 01d4 0023     		movs	r3, #0
 785 01d6 00E0     		b	.L35
 786              	.L33:
 787 01d8 0223     		movs	r3, #2
 788              	.L35:
 789 01da 1846     		mov	r0, r3
 790 01dc 1837     		adds	r7, r7, #24
 791 01de BD46     		mov	sp, r7
 792              		@ sp needed
 793 01e0 80BD     		pop	{r7, pc}
 794              	.L47:
 795 01e2 00BF     		.align	2
 796              	.L46:
 797 01e4 00240080 		.word	-2147474432
 798 01e8 00E800FE 		.word	-33495040
 800              		.section	.text.HAL_I2C_Slave_Transmit,"ax",%progbits
 801              		.align	1
 802              		.global	HAL_I2C_Slave_Transmit
 803              		.syntax unified
 804              		.thumb
 805              		.thumb_func
 807              	HAL_I2C_Slave_Transmit:
 808              		@ args = 0, pretend = 0, frame = 24
 809              		@ frame_needed = 1, uses_anonymous_args = 0
 810 0000 80B5     		push	{r7, lr}
 811 0002 88B0     		sub	sp, sp, #32
ARM GAS  /var/folders/k1/1yttftd15rl7jxtpyc5m93n80000gn/T//ccqqVpOc.s 			page 15


 812 0004 02AF     		add	r7, sp, #8
 813 0006 F860     		str	r0, [r7, #12]
 814 0008 B960     		str	r1, [r7, #8]
 815 000a 3B60     		str	r3, [r7]
 816 000c 1346     		mov	r3, r2	@ movhi
 817 000e FB80     		strh	r3, [r7, #6]	@ movhi
 818 0010 FB68     		ldr	r3, [r7, #12]
 819 0012 93F84130 		ldrb	r3, [r3, #65]
 820 0016 DBB2     		uxtb	r3, r3
 821 0018 202B     		cmp	r3, #32
 822 001a 40F03981 		bne	.L49
 823 001e BB68     		ldr	r3, [r7, #8]
 824 0020 002B     		cmp	r3, #0
 825 0022 02D0     		beq	.L50
 826 0024 FB88     		ldrh	r3, [r7, #6]
 827 0026 002B     		cmp	r3, #0
 828 0028 05D1     		bne	.L51
 829              	.L50:
 830 002a FB68     		ldr	r3, [r7, #12]
 831 002c 4FF40072 		mov	r2, #512
 832 0030 5A64     		str	r2, [r3, #68]
 833 0032 0123     		movs	r3, #1
 834 0034 2DE1     		b	.L52
 835              	.L51:
 836 0036 FB68     		ldr	r3, [r7, #12]
 837 0038 93F84030 		ldrb	r3, [r3, #64]	@ zero_extendqisi2
 838 003c 012B     		cmp	r3, #1
 839 003e 01D1     		bne	.L53
 840 0040 0223     		movs	r3, #2
 841 0042 26E1     		b	.L52
 842              	.L53:
 843 0044 FB68     		ldr	r3, [r7, #12]
 844 0046 0122     		movs	r2, #1
 845 0048 83F84020 		strb	r2, [r3, #64]
 846 004c FFF7FEFF 		bl	HAL_GetTick
 847 0050 7861     		str	r0, [r7, #20]
 848 0052 FB68     		ldr	r3, [r7, #12]
 849 0054 2122     		movs	r2, #33
 850 0056 83F84120 		strb	r2, [r3, #65]
 851 005a FB68     		ldr	r3, [r7, #12]
 852 005c 2022     		movs	r2, #32
 853 005e 83F84220 		strb	r2, [r3, #66]
 854 0062 FB68     		ldr	r3, [r7, #12]
 855 0064 0022     		movs	r2, #0
 856 0066 5A64     		str	r2, [r3, #68]
 857 0068 FB68     		ldr	r3, [r7, #12]
 858 006a BA68     		ldr	r2, [r7, #8]
 859 006c 5A62     		str	r2, [r3, #36]
 860 006e FB68     		ldr	r3, [r7, #12]
 861 0070 FA88     		ldrh	r2, [r7, #6]	@ movhi
 862 0072 5A85     		strh	r2, [r3, #42]	@ movhi
 863 0074 FB68     		ldr	r3, [r7, #12]
 864 0076 0022     		movs	r2, #0
 865 0078 5A63     		str	r2, [r3, #52]
 866 007a FB68     		ldr	r3, [r7, #12]
 867 007c 1B68     		ldr	r3, [r3]
 868 007e 5A68     		ldr	r2, [r3, #4]
ARM GAS  /var/folders/k1/1yttftd15rl7jxtpyc5m93n80000gn/T//ccqqVpOc.s 			page 16


 869 0080 FB68     		ldr	r3, [r7, #12]
 870 0082 1B68     		ldr	r3, [r3]
 871 0084 22F40042 		bic	r2, r2, #32768
 872 0088 5A60     		str	r2, [r3, #4]
 873 008a FB68     		ldr	r3, [r7, #12]
 874 008c 1B6A     		ldr	r3, [r3, #32]
 875 008e B3F5003F 		cmp	r3, #131072
 876 0092 11D1     		bne	.L54
 877 0094 FB68     		ldr	r3, [r7, #12]
 878 0096 5B6A     		ldr	r3, [r3, #36]
 879 0098 1A78     		ldrb	r2, [r3]	@ zero_extendqisi2
 880 009a FB68     		ldr	r3, [r7, #12]
 881 009c 1B68     		ldr	r3, [r3]
 882 009e 9A62     		str	r2, [r3, #40]
 883 00a0 FB68     		ldr	r3, [r7, #12]
 884 00a2 5B6A     		ldr	r3, [r3, #36]
 885 00a4 5A1C     		adds	r2, r3, #1
 886 00a6 FB68     		ldr	r3, [r7, #12]
 887 00a8 5A62     		str	r2, [r3, #36]
 888 00aa FB68     		ldr	r3, [r7, #12]
 889 00ac 5B8D     		ldrh	r3, [r3, #42]	@ movhi
 890 00ae 9BB2     		uxth	r3, r3
 891 00b0 013B     		subs	r3, r3, #1
 892 00b2 9AB2     		uxth	r2, r3
 893 00b4 FB68     		ldr	r3, [r7, #12]
 894 00b6 5A85     		strh	r2, [r3, #42]	@ movhi
 895              	.L54:
 896 00b8 7B69     		ldr	r3, [r7, #20]
 897 00ba 0093     		str	r3, [sp]
 898 00bc 3B68     		ldr	r3, [r7]
 899 00be 0022     		movs	r2, #0
 900 00c0 0821     		movs	r1, #8
 901 00c2 F868     		ldr	r0, [r7, #12]
 902 00c4 FFF7FEFF 		bl	I2C_WaitOnFlagUntilTimeout
 903 00c8 0346     		mov	r3, r0
 904 00ca 002B     		cmp	r3, #0
 905 00cc 0CD0     		beq	.L55
 906 00ce FB68     		ldr	r3, [r7, #12]
 907 00d0 1B68     		ldr	r3, [r3]
 908 00d2 5A68     		ldr	r2, [r3, #4]
 909 00d4 FB68     		ldr	r3, [r7, #12]
 910 00d6 1B68     		ldr	r3, [r3]
 911 00d8 42F40042 		orr	r2, r2, #32768
 912 00dc 5A60     		str	r2, [r3, #4]
 913 00de F868     		ldr	r0, [r7, #12]
 914 00e0 FFF7FEFF 		bl	I2C_Flush_TXDR
 915 00e4 0123     		movs	r3, #1
 916 00e6 D4E0     		b	.L52
 917              	.L55:
 918 00e8 FB68     		ldr	r3, [r7, #12]
 919 00ea 1B68     		ldr	r3, [r3]
 920 00ec 0822     		movs	r2, #8
 921 00ee DA61     		str	r2, [r3, #28]
 922 00f0 FB68     		ldr	r3, [r7, #12]
 923 00f2 DB68     		ldr	r3, [r3, #12]
 924 00f4 022B     		cmp	r3, #2
 925 00f6 1BD1     		bne	.L56
ARM GAS  /var/folders/k1/1yttftd15rl7jxtpyc5m93n80000gn/T//ccqqVpOc.s 			page 17


 926 00f8 7B69     		ldr	r3, [r7, #20]
 927 00fa 0093     		str	r3, [sp]
 928 00fc 3B68     		ldr	r3, [r7]
 929 00fe 0022     		movs	r2, #0
 930 0100 0821     		movs	r1, #8
 931 0102 F868     		ldr	r0, [r7, #12]
 932 0104 FFF7FEFF 		bl	I2C_WaitOnFlagUntilTimeout
 933 0108 0346     		mov	r3, r0
 934 010a 002B     		cmp	r3, #0
 935 010c 0CD0     		beq	.L57
 936 010e FB68     		ldr	r3, [r7, #12]
 937 0110 1B68     		ldr	r3, [r3]
 938 0112 5A68     		ldr	r2, [r3, #4]
 939 0114 FB68     		ldr	r3, [r7, #12]
 940 0116 1B68     		ldr	r3, [r3]
 941 0118 42F40042 		orr	r2, r2, #32768
 942 011c 5A60     		str	r2, [r3, #4]
 943 011e F868     		ldr	r0, [r7, #12]
 944 0120 FFF7FEFF 		bl	I2C_Flush_TXDR
 945 0124 0123     		movs	r3, #1
 946 0126 B4E0     		b	.L52
 947              	.L57:
 948 0128 FB68     		ldr	r3, [r7, #12]
 949 012a 1B68     		ldr	r3, [r3]
 950 012c 0822     		movs	r2, #8
 951 012e DA61     		str	r2, [r3, #28]
 952              	.L56:
 953 0130 7B69     		ldr	r3, [r7, #20]
 954 0132 0093     		str	r3, [sp]
 955 0134 3B68     		ldr	r3, [r7]
 956 0136 0022     		movs	r2, #0
 957 0138 4FF48031 		mov	r1, #65536
 958 013c F868     		ldr	r0, [r7, #12]
 959 013e FFF7FEFF 		bl	I2C_WaitOnFlagUntilTimeout
 960 0142 0346     		mov	r3, r0
 961 0144 002B     		cmp	r3, #0
 962 0146 30D0     		beq	.L59
 963 0148 FB68     		ldr	r3, [r7, #12]
 964 014a 1B68     		ldr	r3, [r3]
 965 014c 5A68     		ldr	r2, [r3, #4]
 966 014e FB68     		ldr	r3, [r7, #12]
 967 0150 1B68     		ldr	r3, [r3]
 968 0152 42F40042 		orr	r2, r2, #32768
 969 0156 5A60     		str	r2, [r3, #4]
 970 0158 F868     		ldr	r0, [r7, #12]
 971 015a FFF7FEFF 		bl	I2C_Flush_TXDR
 972 015e 0123     		movs	r3, #1
 973 0160 97E0     		b	.L52
 974              	.L61:
 975 0162 7A69     		ldr	r2, [r7, #20]
 976 0164 3968     		ldr	r1, [r7]
 977 0166 F868     		ldr	r0, [r7, #12]
 978 0168 FFF7FEFF 		bl	I2C_WaitOnTXISFlagUntilTimeout
 979 016c 0346     		mov	r3, r0
 980 016e 002B     		cmp	r3, #0
 981 0170 09D0     		beq	.L60
 982 0172 FB68     		ldr	r3, [r7, #12]
ARM GAS  /var/folders/k1/1yttftd15rl7jxtpyc5m93n80000gn/T//ccqqVpOc.s 			page 18


 983 0174 1B68     		ldr	r3, [r3]
 984 0176 5A68     		ldr	r2, [r3, #4]
 985 0178 FB68     		ldr	r3, [r7, #12]
 986 017a 1B68     		ldr	r3, [r3]
 987 017c 42F40042 		orr	r2, r2, #32768
 988 0180 5A60     		str	r2, [r3, #4]
 989 0182 0123     		movs	r3, #1
 990 0184 85E0     		b	.L52
 991              	.L60:
 992 0186 FB68     		ldr	r3, [r7, #12]
 993 0188 5B6A     		ldr	r3, [r3, #36]
 994 018a 1A78     		ldrb	r2, [r3]	@ zero_extendqisi2
 995 018c FB68     		ldr	r3, [r7, #12]
 996 018e 1B68     		ldr	r3, [r3]
 997 0190 9A62     		str	r2, [r3, #40]
 998 0192 FB68     		ldr	r3, [r7, #12]
 999 0194 5B6A     		ldr	r3, [r3, #36]
 1000 0196 5A1C     		adds	r2, r3, #1
 1001 0198 FB68     		ldr	r3, [r7, #12]
 1002 019a 5A62     		str	r2, [r3, #36]
 1003 019c FB68     		ldr	r3, [r7, #12]
 1004 019e 5B8D     		ldrh	r3, [r3, #42]	@ movhi
 1005 01a0 9BB2     		uxth	r3, r3
 1006 01a2 013B     		subs	r3, r3, #1
 1007 01a4 9AB2     		uxth	r2, r3
 1008 01a6 FB68     		ldr	r3, [r7, #12]
 1009 01a8 5A85     		strh	r2, [r3, #42]	@ movhi
 1010              	.L59:
 1011 01aa FB68     		ldr	r3, [r7, #12]
 1012 01ac 5B8D     		ldrh	r3, [r3, #42]	@ movhi
 1013 01ae 9BB2     		uxth	r3, r3
 1014 01b0 002B     		cmp	r3, #0
 1015 01b2 D6D1     		bne	.L61
 1016 01b4 7B69     		ldr	r3, [r7, #20]
 1017 01b6 0093     		str	r3, [sp]
 1018 01b8 3B68     		ldr	r3, [r7]
 1019 01ba 0022     		movs	r2, #0
 1020 01bc 1021     		movs	r1, #16
 1021 01be F868     		ldr	r0, [r7, #12]
 1022 01c0 FFF7FEFF 		bl	I2C_WaitOnFlagUntilTimeout
 1023 01c4 0346     		mov	r3, r0
 1024 01c6 FB74     		strb	r3, [r7, #19]
 1025 01c8 FB7C     		ldrb	r3, [r7, #19]	@ zero_extendqisi2
 1026 01ca 002B     		cmp	r3, #0
 1027 01cc 17D0     		beq	.L62
 1028 01ce FB68     		ldr	r3, [r7, #12]
 1029 01d0 5B8D     		ldrh	r3, [r3, #42]	@ movhi
 1030 01d2 3B82     		strh	r3, [r7, #16]	@ movhi
 1031 01d4 FB68     		ldr	r3, [r7, #12]
 1032 01d6 5B6C     		ldr	r3, [r3, #68]
 1033 01d8 042B     		cmp	r3, #4
 1034 01da 06D1     		bne	.L63
 1035 01dc 3B8A     		ldrh	r3, [r7, #16]
 1036 01de 002B     		cmp	r3, #0
 1037 01e0 03D1     		bne	.L63
 1038 01e2 FB68     		ldr	r3, [r7, #12]
 1039 01e4 0022     		movs	r2, #0
ARM GAS  /var/folders/k1/1yttftd15rl7jxtpyc5m93n80000gn/T//ccqqVpOc.s 			page 19


 1040 01e6 5A64     		str	r2, [r3, #68]
 1041 01e8 26E0     		b	.L64
 1042              	.L63:
 1043 01ea FB68     		ldr	r3, [r7, #12]
 1044 01ec 1B68     		ldr	r3, [r3]
 1045 01ee 5A68     		ldr	r2, [r3, #4]
 1046 01f0 FB68     		ldr	r3, [r7, #12]
 1047 01f2 1B68     		ldr	r3, [r3]
 1048 01f4 42F40042 		orr	r2, r2, #32768
 1049 01f8 5A60     		str	r2, [r3, #4]
 1050 01fa 0123     		movs	r3, #1
 1051 01fc 49E0     		b	.L52
 1052              	.L62:
 1053 01fe F868     		ldr	r0, [r7, #12]
 1054 0200 FFF7FEFF 		bl	I2C_Flush_TXDR
 1055 0204 FB68     		ldr	r3, [r7, #12]
 1056 0206 1B68     		ldr	r3, [r3]
 1057 0208 1022     		movs	r2, #16
 1058 020a DA61     		str	r2, [r3, #28]
 1059 020c 7A69     		ldr	r2, [r7, #20]
 1060 020e 3968     		ldr	r1, [r7]
 1061 0210 F868     		ldr	r0, [r7, #12]
 1062 0212 FFF7FEFF 		bl	I2C_WaitOnSTOPFlagUntilTimeout
 1063 0216 0346     		mov	r3, r0
 1064 0218 002B     		cmp	r3, #0
 1065 021a 09D0     		beq	.L65
 1066 021c FB68     		ldr	r3, [r7, #12]
 1067 021e 1B68     		ldr	r3, [r3]
 1068 0220 5A68     		ldr	r2, [r3, #4]
 1069 0222 FB68     		ldr	r3, [r7, #12]
 1070 0224 1B68     		ldr	r3, [r3]
 1071 0226 42F40042 		orr	r2, r2, #32768
 1072 022a 5A60     		str	r2, [r3, #4]
 1073 022c 0123     		movs	r3, #1
 1074 022e 30E0     		b	.L52
 1075              	.L65:
 1076 0230 FB68     		ldr	r3, [r7, #12]
 1077 0232 1B68     		ldr	r3, [r3]
 1078 0234 2022     		movs	r2, #32
 1079 0236 DA61     		str	r2, [r3, #28]
 1080              	.L64:
 1081 0238 7B69     		ldr	r3, [r7, #20]
 1082 023a 0093     		str	r3, [sp]
 1083 023c 3B68     		ldr	r3, [r7]
 1084 023e 0122     		movs	r2, #1
 1085 0240 4FF40041 		mov	r1, #32768
 1086 0244 F868     		ldr	r0, [r7, #12]
 1087 0246 FFF7FEFF 		bl	I2C_WaitOnFlagUntilTimeout
 1088 024a 0346     		mov	r3, r0
 1089 024c 002B     		cmp	r3, #0
 1090 024e 09D0     		beq	.L66
 1091 0250 FB68     		ldr	r3, [r7, #12]
 1092 0252 1B68     		ldr	r3, [r3]
 1093 0254 5A68     		ldr	r2, [r3, #4]
 1094 0256 FB68     		ldr	r3, [r7, #12]
 1095 0258 1B68     		ldr	r3, [r3]
 1096 025a 42F40042 		orr	r2, r2, #32768
ARM GAS  /var/folders/k1/1yttftd15rl7jxtpyc5m93n80000gn/T//ccqqVpOc.s 			page 20


 1097 025e 5A60     		str	r2, [r3, #4]
 1098 0260 0123     		movs	r3, #1
 1099 0262 16E0     		b	.L52
 1100              	.L66:
 1101 0264 FB68     		ldr	r3, [r7, #12]
 1102 0266 1B68     		ldr	r3, [r3]
 1103 0268 5A68     		ldr	r2, [r3, #4]
 1104 026a FB68     		ldr	r3, [r7, #12]
 1105 026c 1B68     		ldr	r3, [r3]
 1106 026e 42F40042 		orr	r2, r2, #32768
 1107 0272 5A60     		str	r2, [r3, #4]
 1108 0274 FB68     		ldr	r3, [r7, #12]
 1109 0276 2022     		movs	r2, #32
 1110 0278 83F84120 		strb	r2, [r3, #65]
 1111 027c FB68     		ldr	r3, [r7, #12]
 1112 027e 0022     		movs	r2, #0
 1113 0280 83F84220 		strb	r2, [r3, #66]
 1114 0284 FB68     		ldr	r3, [r7, #12]
 1115 0286 0022     		movs	r2, #0
 1116 0288 83F84020 		strb	r2, [r3, #64]
 1117 028c 0023     		movs	r3, #0
 1118 028e 00E0     		b	.L52
 1119              	.L49:
 1120 0290 0223     		movs	r3, #2
 1121              	.L52:
 1122 0292 1846     		mov	r0, r3
 1123 0294 1837     		adds	r7, r7, #24
 1124 0296 BD46     		mov	sp, r7
 1125              		@ sp needed
 1126 0298 80BD     		pop	{r7, pc}
 1128              		.section	.text.HAL_I2C_Slave_Receive,"ax",%progbits
 1129              		.align	1
 1130              		.global	HAL_I2C_Slave_Receive
 1131              		.syntax unified
 1132              		.thumb
 1133              		.thumb_func
 1135              	HAL_I2C_Slave_Receive:
 1136              		@ args = 0, pretend = 0, frame = 24
 1137              		@ frame_needed = 1, uses_anonymous_args = 0
 1138 0000 80B5     		push	{r7, lr}
 1139 0002 88B0     		sub	sp, sp, #32
 1140 0004 02AF     		add	r7, sp, #8
 1141 0006 F860     		str	r0, [r7, #12]
 1142 0008 B960     		str	r1, [r7, #8]
 1143 000a 3B60     		str	r3, [r7]
 1144 000c 1346     		mov	r3, r2	@ movhi
 1145 000e FB80     		strh	r3, [r7, #6]	@ movhi
 1146 0010 FB68     		ldr	r3, [r7, #12]
 1147 0012 93F84130 		ldrb	r3, [r3, #65]
 1148 0016 DBB2     		uxtb	r3, r3
 1149 0018 202B     		cmp	r3, #32
 1150 001a 40F0FC80 		bne	.L68
 1151 001e BB68     		ldr	r3, [r7, #8]
 1152 0020 002B     		cmp	r3, #0
 1153 0022 02D0     		beq	.L69
 1154 0024 FB88     		ldrh	r3, [r7, #6]
 1155 0026 002B     		cmp	r3, #0
ARM GAS  /var/folders/k1/1yttftd15rl7jxtpyc5m93n80000gn/T//ccqqVpOc.s 			page 21


 1156 0028 05D1     		bne	.L70
 1157              	.L69:
 1158 002a FB68     		ldr	r3, [r7, #12]
 1159 002c 4FF40072 		mov	r2, #512
 1160 0030 5A64     		str	r2, [r3, #68]
 1161 0032 0123     		movs	r3, #1
 1162 0034 F0E0     		b	.L71
 1163              	.L70:
 1164 0036 FB68     		ldr	r3, [r7, #12]
 1165 0038 93F84030 		ldrb	r3, [r3, #64]	@ zero_extendqisi2
 1166 003c 012B     		cmp	r3, #1
 1167 003e 01D1     		bne	.L72
 1168 0040 0223     		movs	r3, #2
 1169 0042 E9E0     		b	.L71
 1170              	.L72:
 1171 0044 FB68     		ldr	r3, [r7, #12]
 1172 0046 0122     		movs	r2, #1
 1173 0048 83F84020 		strb	r2, [r3, #64]
 1174 004c FFF7FEFF 		bl	HAL_GetTick
 1175 0050 7861     		str	r0, [r7, #20]
 1176 0052 FB68     		ldr	r3, [r7, #12]
 1177 0054 2222     		movs	r2, #34
 1178 0056 83F84120 		strb	r2, [r3, #65]
 1179 005a FB68     		ldr	r3, [r7, #12]
 1180 005c 2022     		movs	r2, #32
 1181 005e 83F84220 		strb	r2, [r3, #66]
 1182 0062 FB68     		ldr	r3, [r7, #12]
 1183 0064 0022     		movs	r2, #0
 1184 0066 5A64     		str	r2, [r3, #68]
 1185 0068 FB68     		ldr	r3, [r7, #12]
 1186 006a BA68     		ldr	r2, [r7, #8]
 1187 006c 5A62     		str	r2, [r3, #36]
 1188 006e FB68     		ldr	r3, [r7, #12]
 1189 0070 FA88     		ldrh	r2, [r7, #6]	@ movhi
 1190 0072 5A85     		strh	r2, [r3, #42]	@ movhi
 1191 0074 FB68     		ldr	r3, [r7, #12]
 1192 0076 5B8D     		ldrh	r3, [r3, #42]	@ movhi
 1193 0078 9AB2     		uxth	r2, r3
 1194 007a FB68     		ldr	r3, [r7, #12]
 1195 007c 1A85     		strh	r2, [r3, #40]	@ movhi
 1196 007e FB68     		ldr	r3, [r7, #12]
 1197 0080 0022     		movs	r2, #0
 1198 0082 5A63     		str	r2, [r3, #52]
 1199 0084 FB68     		ldr	r3, [r7, #12]
 1200 0086 1B68     		ldr	r3, [r3]
 1201 0088 5A68     		ldr	r2, [r3, #4]
 1202 008a FB68     		ldr	r3, [r7, #12]
 1203 008c 1B68     		ldr	r3, [r3]
 1204 008e 22F40042 		bic	r2, r2, #32768
 1205 0092 5A60     		str	r2, [r3, #4]
 1206 0094 7B69     		ldr	r3, [r7, #20]
 1207 0096 0093     		str	r3, [sp]
 1208 0098 3B68     		ldr	r3, [r7]
 1209 009a 0022     		movs	r2, #0
 1210 009c 0821     		movs	r1, #8
 1211 009e F868     		ldr	r0, [r7, #12]
 1212 00a0 FFF7FEFF 		bl	I2C_WaitOnFlagUntilTimeout
ARM GAS  /var/folders/k1/1yttftd15rl7jxtpyc5m93n80000gn/T//ccqqVpOc.s 			page 22


 1213 00a4 0346     		mov	r3, r0
 1214 00a6 002B     		cmp	r3, #0
 1215 00a8 09D0     		beq	.L73
 1216 00aa FB68     		ldr	r3, [r7, #12]
 1217 00ac 1B68     		ldr	r3, [r3]
 1218 00ae 5A68     		ldr	r2, [r3, #4]
 1219 00b0 FB68     		ldr	r3, [r7, #12]
 1220 00b2 1B68     		ldr	r3, [r3]
 1221 00b4 42F40042 		orr	r2, r2, #32768
 1222 00b8 5A60     		str	r2, [r3, #4]
 1223 00ba 0123     		movs	r3, #1
 1224 00bc ACE0     		b	.L71
 1225              	.L73:
 1226 00be FB68     		ldr	r3, [r7, #12]
 1227 00c0 1B68     		ldr	r3, [r3]
 1228 00c2 0822     		movs	r2, #8
 1229 00c4 DA61     		str	r2, [r3, #28]
 1230 00c6 7B69     		ldr	r3, [r7, #20]
 1231 00c8 0093     		str	r3, [sp]
 1232 00ca 3B68     		ldr	r3, [r7]
 1233 00cc 0122     		movs	r2, #1
 1234 00ce 4FF48031 		mov	r1, #65536
 1235 00d2 F868     		ldr	r0, [r7, #12]
 1236 00d4 FFF7FEFF 		bl	I2C_WaitOnFlagUntilTimeout
 1237 00d8 0346     		mov	r3, r0
 1238 00da 002B     		cmp	r3, #0
 1239 00dc 54D0     		beq	.L75
 1240 00de FB68     		ldr	r3, [r7, #12]
 1241 00e0 1B68     		ldr	r3, [r3]
 1242 00e2 5A68     		ldr	r2, [r3, #4]
 1243 00e4 FB68     		ldr	r3, [r7, #12]
 1244 00e6 1B68     		ldr	r3, [r3]
 1245 00e8 42F40042 		orr	r2, r2, #32768
 1246 00ec 5A60     		str	r2, [r3, #4]
 1247 00ee 0123     		movs	r3, #1
 1248 00f0 92E0     		b	.L71
 1249              	.L78:
 1250 00f2 7A69     		ldr	r2, [r7, #20]
 1251 00f4 3968     		ldr	r1, [r7]
 1252 00f6 F868     		ldr	r0, [r7, #12]
 1253 00f8 FFF7FEFF 		bl	I2C_WaitOnRXNEFlagUntilTimeout
 1254 00fc 0346     		mov	r3, r0
 1255 00fe 002B     		cmp	r3, #0
 1256 0100 29D0     		beq	.L76
 1257 0102 FB68     		ldr	r3, [r7, #12]
 1258 0104 1B68     		ldr	r3, [r3]
 1259 0106 5A68     		ldr	r2, [r3, #4]
 1260 0108 FB68     		ldr	r3, [r7, #12]
 1261 010a 1B68     		ldr	r3, [r3]
 1262 010c 42F40042 		orr	r2, r2, #32768
 1263 0110 5A60     		str	r2, [r3, #4]
 1264 0112 FB68     		ldr	r3, [r7, #12]
 1265 0114 1B68     		ldr	r3, [r3]
 1266 0116 9B69     		ldr	r3, [r3, #24]
 1267 0118 03F00403 		and	r3, r3, #4
 1268 011c 042B     		cmp	r3, #4
 1269 011e 18D1     		bne	.L77
ARM GAS  /var/folders/k1/1yttftd15rl7jxtpyc5m93n80000gn/T//ccqqVpOc.s 			page 23


 1270 0120 FB68     		ldr	r3, [r7, #12]
 1271 0122 1B68     		ldr	r3, [r3]
 1272 0124 5A6A     		ldr	r2, [r3, #36]
 1273 0126 FB68     		ldr	r3, [r7, #12]
 1274 0128 5B6A     		ldr	r3, [r3, #36]
 1275 012a D2B2     		uxtb	r2, r2
 1276 012c 1A70     		strb	r2, [r3]
 1277 012e FB68     		ldr	r3, [r7, #12]
 1278 0130 5B6A     		ldr	r3, [r3, #36]
 1279 0132 5A1C     		adds	r2, r3, #1
 1280 0134 FB68     		ldr	r3, [r7, #12]
 1281 0136 5A62     		str	r2, [r3, #36]
 1282 0138 FB68     		ldr	r3, [r7, #12]
 1283 013a 5B8D     		ldrh	r3, [r3, #42]	@ movhi
 1284 013c 9BB2     		uxth	r3, r3
 1285 013e 013B     		subs	r3, r3, #1
 1286 0140 9AB2     		uxth	r2, r3
 1287 0142 FB68     		ldr	r3, [r7, #12]
 1288 0144 5A85     		strh	r2, [r3, #42]	@ movhi
 1289 0146 FB68     		ldr	r3, [r7, #12]
 1290 0148 1B8D     		ldrh	r3, [r3, #40]
 1291 014a 013B     		subs	r3, r3, #1
 1292 014c 9AB2     		uxth	r2, r3
 1293 014e FB68     		ldr	r3, [r7, #12]
 1294 0150 1A85     		strh	r2, [r3, #40]	@ movhi
 1295              	.L77:
 1296 0152 0123     		movs	r3, #1
 1297 0154 60E0     		b	.L71
 1298              	.L76:
 1299 0156 FB68     		ldr	r3, [r7, #12]
 1300 0158 1B68     		ldr	r3, [r3]
 1301 015a 5A6A     		ldr	r2, [r3, #36]
 1302 015c FB68     		ldr	r3, [r7, #12]
 1303 015e 5B6A     		ldr	r3, [r3, #36]
 1304 0160 D2B2     		uxtb	r2, r2
 1305 0162 1A70     		strb	r2, [r3]
 1306 0164 FB68     		ldr	r3, [r7, #12]
 1307 0166 5B6A     		ldr	r3, [r3, #36]
 1308 0168 5A1C     		adds	r2, r3, #1
 1309 016a FB68     		ldr	r3, [r7, #12]
 1310 016c 5A62     		str	r2, [r3, #36]
 1311 016e FB68     		ldr	r3, [r7, #12]
 1312 0170 5B8D     		ldrh	r3, [r3, #42]	@ movhi
 1313 0172 9BB2     		uxth	r3, r3
 1314 0174 013B     		subs	r3, r3, #1
 1315 0176 9AB2     		uxth	r2, r3
 1316 0178 FB68     		ldr	r3, [r7, #12]
 1317 017a 5A85     		strh	r2, [r3, #42]	@ movhi
 1318 017c FB68     		ldr	r3, [r7, #12]
 1319 017e 1B8D     		ldrh	r3, [r3, #40]
 1320 0180 013B     		subs	r3, r3, #1
 1321 0182 9AB2     		uxth	r2, r3
 1322 0184 FB68     		ldr	r3, [r7, #12]
 1323 0186 1A85     		strh	r2, [r3, #40]	@ movhi
 1324              	.L75:
 1325 0188 FB68     		ldr	r3, [r7, #12]
 1326 018a 5B8D     		ldrh	r3, [r3, #42]	@ movhi
ARM GAS  /var/folders/k1/1yttftd15rl7jxtpyc5m93n80000gn/T//ccqqVpOc.s 			page 24


 1327 018c 9BB2     		uxth	r3, r3
 1328 018e 002B     		cmp	r3, #0
 1329 0190 AFD1     		bne	.L78
 1330 0192 7A69     		ldr	r2, [r7, #20]
 1331 0194 3968     		ldr	r1, [r7]
 1332 0196 F868     		ldr	r0, [r7, #12]
 1333 0198 FFF7FEFF 		bl	I2C_WaitOnSTOPFlagUntilTimeout
 1334 019c 0346     		mov	r3, r0
 1335 019e 002B     		cmp	r3, #0
 1336 01a0 09D0     		beq	.L79
 1337 01a2 FB68     		ldr	r3, [r7, #12]
 1338 01a4 1B68     		ldr	r3, [r3]
 1339 01a6 5A68     		ldr	r2, [r3, #4]
 1340 01a8 FB68     		ldr	r3, [r7, #12]
 1341 01aa 1B68     		ldr	r3, [r3]
 1342 01ac 42F40042 		orr	r2, r2, #32768
 1343 01b0 5A60     		str	r2, [r3, #4]
 1344 01b2 0123     		movs	r3, #1
 1345 01b4 30E0     		b	.L71
 1346              	.L79:
 1347 01b6 FB68     		ldr	r3, [r7, #12]
 1348 01b8 1B68     		ldr	r3, [r3]
 1349 01ba 2022     		movs	r2, #32
 1350 01bc DA61     		str	r2, [r3, #28]
 1351 01be 7B69     		ldr	r3, [r7, #20]
 1352 01c0 0093     		str	r3, [sp]
 1353 01c2 3B68     		ldr	r3, [r7]
 1354 01c4 0122     		movs	r2, #1
 1355 01c6 4FF40041 		mov	r1, #32768
 1356 01ca F868     		ldr	r0, [r7, #12]
 1357 01cc FFF7FEFF 		bl	I2C_WaitOnFlagUntilTimeout
 1358 01d0 0346     		mov	r3, r0
 1359 01d2 002B     		cmp	r3, #0
 1360 01d4 09D0     		beq	.L80
 1361 01d6 FB68     		ldr	r3, [r7, #12]
 1362 01d8 1B68     		ldr	r3, [r3]
 1363 01da 5A68     		ldr	r2, [r3, #4]
 1364 01dc FB68     		ldr	r3, [r7, #12]
 1365 01de 1B68     		ldr	r3, [r3]
 1366 01e0 42F40042 		orr	r2, r2, #32768
 1367 01e4 5A60     		str	r2, [r3, #4]
 1368 01e6 0123     		movs	r3, #1
 1369 01e8 16E0     		b	.L71
 1370              	.L80:
 1371 01ea FB68     		ldr	r3, [r7, #12]
 1372 01ec 1B68     		ldr	r3, [r3]
 1373 01ee 5A68     		ldr	r2, [r3, #4]
 1374 01f0 FB68     		ldr	r3, [r7, #12]
 1375 01f2 1B68     		ldr	r3, [r3]
 1376 01f4 42F40042 		orr	r2, r2, #32768
 1377 01f8 5A60     		str	r2, [r3, #4]
 1378 01fa FB68     		ldr	r3, [r7, #12]
 1379 01fc 2022     		movs	r2, #32
 1380 01fe 83F84120 		strb	r2, [r3, #65]
 1381 0202 FB68     		ldr	r3, [r7, #12]
 1382 0204 0022     		movs	r2, #0
 1383 0206 83F84220 		strb	r2, [r3, #66]
ARM GAS  /var/folders/k1/1yttftd15rl7jxtpyc5m93n80000gn/T//ccqqVpOc.s 			page 25


 1384 020a FB68     		ldr	r3, [r7, #12]
 1385 020c 0022     		movs	r2, #0
 1386 020e 83F84020 		strb	r2, [r3, #64]
 1387 0212 0023     		movs	r3, #0
 1388 0214 00E0     		b	.L71
 1389              	.L68:
 1390 0216 0223     		movs	r3, #2
 1391              	.L71:
 1392 0218 1846     		mov	r0, r3
 1393 021a 1837     		adds	r7, r7, #24
 1394 021c BD46     		mov	sp, r7
 1395              		@ sp needed
 1396 021e 80BD     		pop	{r7, pc}
 1398              		.section	.text.HAL_I2C_Master_Transmit_IT,"ax",%progbits
 1399              		.align	1
 1400              		.global	HAL_I2C_Master_Transmit_IT
 1401              		.syntax unified
 1402              		.thumb
 1403              		.thumb_func
 1405              	HAL_I2C_Master_Transmit_IT:
 1406              		@ args = 0, pretend = 0, frame = 24
 1407              		@ frame_needed = 1, uses_anonymous_args = 0
 1408 0000 80B5     		push	{r7, lr}
 1409 0002 88B0     		sub	sp, sp, #32
 1410 0004 02AF     		add	r7, sp, #8
 1411 0006 F860     		str	r0, [r7, #12]
 1412 0008 7A60     		str	r2, [r7, #4]
 1413 000a 1A46     		mov	r2, r3
 1414 000c 0B46     		mov	r3, r1	@ movhi
 1415 000e 7B81     		strh	r3, [r7, #10]	@ movhi
 1416 0010 1346     		mov	r3, r2	@ movhi
 1417 0012 3B81     		strh	r3, [r7, #8]	@ movhi
 1418 0014 FB68     		ldr	r3, [r7, #12]
 1419 0016 93F84130 		ldrb	r3, [r3, #65]
 1420 001a DBB2     		uxtb	r3, r3
 1421 001c 202B     		cmp	r3, #32
 1422 001e 7CD1     		bne	.L82
 1423 0020 FB68     		ldr	r3, [r7, #12]
 1424 0022 1B68     		ldr	r3, [r3]
 1425 0024 9B69     		ldr	r3, [r3, #24]
 1426 0026 03F40043 		and	r3, r3, #32768
 1427 002a B3F5004F 		cmp	r3, #32768
 1428 002e 01D1     		bne	.L83
 1429 0030 0223     		movs	r3, #2
 1430 0032 73E0     		b	.L84
 1431              	.L83:
 1432 0034 FB68     		ldr	r3, [r7, #12]
 1433 0036 93F84030 		ldrb	r3, [r3, #64]	@ zero_extendqisi2
 1434 003a 012B     		cmp	r3, #1
 1435 003c 01D1     		bne	.L85
 1436 003e 0223     		movs	r3, #2
 1437 0040 6CE0     		b	.L84
 1438              	.L85:
 1439 0042 FB68     		ldr	r3, [r7, #12]
 1440 0044 0122     		movs	r2, #1
 1441 0046 83F84020 		strb	r2, [r3, #64]
 1442 004a FB68     		ldr	r3, [r7, #12]
ARM GAS  /var/folders/k1/1yttftd15rl7jxtpyc5m93n80000gn/T//ccqqVpOc.s 			page 26


 1443 004c 2122     		movs	r2, #33
 1444 004e 83F84120 		strb	r2, [r3, #65]
 1445 0052 FB68     		ldr	r3, [r7, #12]
 1446 0054 1022     		movs	r2, #16
 1447 0056 83F84220 		strb	r2, [r3, #66]
 1448 005a FB68     		ldr	r3, [r7, #12]
 1449 005c 0022     		movs	r2, #0
 1450 005e 5A64     		str	r2, [r3, #68]
 1451 0060 FB68     		ldr	r3, [r7, #12]
 1452 0062 7A68     		ldr	r2, [r7, #4]
 1453 0064 5A62     		str	r2, [r3, #36]
 1454 0066 FB68     		ldr	r3, [r7, #12]
 1455 0068 3A89     		ldrh	r2, [r7, #8]	@ movhi
 1456 006a 5A85     		strh	r2, [r3, #42]	@ movhi
 1457 006c FB68     		ldr	r3, [r7, #12]
 1458 006e 2D4A     		ldr	r2, .L90
 1459 0070 DA62     		str	r2, [r3, #44]
 1460 0072 FB68     		ldr	r3, [r7, #12]
 1461 0074 2C4A     		ldr	r2, .L90+4
 1462 0076 5A63     		str	r2, [r3, #52]
 1463 0078 FB68     		ldr	r3, [r7, #12]
 1464 007a 5B8D     		ldrh	r3, [r3, #42]	@ movhi
 1465 007c 9BB2     		uxth	r3, r3
 1466 007e FF2B     		cmp	r3, #255
 1467 0080 06D9     		bls	.L86
 1468 0082 FB68     		ldr	r3, [r7, #12]
 1469 0084 FF22     		movs	r2, #255
 1470 0086 1A85     		strh	r2, [r3, #40]	@ movhi
 1471 0088 4FF08073 		mov	r3, #16777216
 1472 008c 7B61     		str	r3, [r7, #20]
 1473 008e 07E0     		b	.L87
 1474              	.L86:
 1475 0090 FB68     		ldr	r3, [r7, #12]
 1476 0092 5B8D     		ldrh	r3, [r3, #42]	@ movhi
 1477 0094 9AB2     		uxth	r2, r3
 1478 0096 FB68     		ldr	r3, [r7, #12]
 1479 0098 1A85     		strh	r2, [r3, #40]	@ movhi
 1480 009a 4FF00073 		mov	r3, #33554432
 1481 009e 7B61     		str	r3, [r7, #20]
 1482              	.L87:
 1483 00a0 FB68     		ldr	r3, [r7, #12]
 1484 00a2 1B8D     		ldrh	r3, [r3, #40]
 1485 00a4 002B     		cmp	r3, #0
 1486 00a6 24D0     		beq	.L88
 1487 00a8 FB68     		ldr	r3, [r7, #12]
 1488 00aa 5B6A     		ldr	r3, [r3, #36]
 1489 00ac 1A78     		ldrb	r2, [r3]	@ zero_extendqisi2
 1490 00ae FB68     		ldr	r3, [r7, #12]
 1491 00b0 1B68     		ldr	r3, [r3]
 1492 00b2 9A62     		str	r2, [r3, #40]
 1493 00b4 FB68     		ldr	r3, [r7, #12]
 1494 00b6 5B6A     		ldr	r3, [r3, #36]
 1495 00b8 5A1C     		adds	r2, r3, #1
 1496 00ba FB68     		ldr	r3, [r7, #12]
 1497 00bc 5A62     		str	r2, [r3, #36]
 1498 00be FB68     		ldr	r3, [r7, #12]
 1499 00c0 5B8D     		ldrh	r3, [r3, #42]	@ movhi
ARM GAS  /var/folders/k1/1yttftd15rl7jxtpyc5m93n80000gn/T//ccqqVpOc.s 			page 27


 1500 00c2 9BB2     		uxth	r3, r3
 1501 00c4 013B     		subs	r3, r3, #1
 1502 00c6 9AB2     		uxth	r2, r3
 1503 00c8 FB68     		ldr	r3, [r7, #12]
 1504 00ca 5A85     		strh	r2, [r3, #42]	@ movhi
 1505 00cc FB68     		ldr	r3, [r7, #12]
 1506 00ce 1B8D     		ldrh	r3, [r3, #40]
 1507 00d0 013B     		subs	r3, r3, #1
 1508 00d2 9AB2     		uxth	r2, r3
 1509 00d4 FB68     		ldr	r3, [r7, #12]
 1510 00d6 1A85     		strh	r2, [r3, #40]	@ movhi
 1511 00d8 FB68     		ldr	r3, [r7, #12]
 1512 00da 1B8D     		ldrh	r3, [r3, #40]
 1513 00dc DBB2     		uxtb	r3, r3
 1514 00de 0133     		adds	r3, r3, #1
 1515 00e0 DAB2     		uxtb	r2, r3
 1516 00e2 7989     		ldrh	r1, [r7, #10]
 1517 00e4 114B     		ldr	r3, .L90+8
 1518 00e6 0093     		str	r3, [sp]
 1519 00e8 7B69     		ldr	r3, [r7, #20]
 1520 00ea F868     		ldr	r0, [r7, #12]
 1521 00ec FFF7FEFF 		bl	I2C_TransferConfig
 1522 00f0 09E0     		b	.L89
 1523              	.L88:
 1524 00f2 FB68     		ldr	r3, [r7, #12]
 1525 00f4 1B8D     		ldrh	r3, [r3, #40]
 1526 00f6 DAB2     		uxtb	r2, r3
 1527 00f8 7989     		ldrh	r1, [r7, #10]
 1528 00fa 0C4B     		ldr	r3, .L90+8
 1529 00fc 0093     		str	r3, [sp]
 1530 00fe 7B69     		ldr	r3, [r7, #20]
 1531 0100 F868     		ldr	r0, [r7, #12]
 1532 0102 FFF7FEFF 		bl	I2C_TransferConfig
 1533              	.L89:
 1534 0106 FB68     		ldr	r3, [r7, #12]
 1535 0108 0022     		movs	r2, #0
 1536 010a 83F84020 		strb	r2, [r3, #64]
 1537 010e 0121     		movs	r1, #1
 1538 0110 F868     		ldr	r0, [r7, #12]
 1539 0112 FFF7FEFF 		bl	I2C_Enable_IRQ
 1540 0116 0023     		movs	r3, #0
 1541 0118 00E0     		b	.L84
 1542              	.L82:
 1543 011a 0223     		movs	r3, #2
 1544              	.L84:
 1545 011c 1846     		mov	r0, r3
 1546 011e 1837     		adds	r7, r7, #24
 1547 0120 BD46     		mov	sp, r7
 1548              		@ sp needed
 1549 0122 80BD     		pop	{r7, pc}
 1550              	.L91:
 1551              		.align	2
 1552              	.L90:
 1553 0124 0000FFFF 		.word	-65536
 1554 0128 00000000 		.word	I2C_Master_ISR_IT
 1555 012c 00200080 		.word	-2147475456
 1557              		.section	.text.HAL_I2C_Master_Receive_IT,"ax",%progbits
ARM GAS  /var/folders/k1/1yttftd15rl7jxtpyc5m93n80000gn/T//ccqqVpOc.s 			page 28


 1558              		.align	1
 1559              		.global	HAL_I2C_Master_Receive_IT
 1560              		.syntax unified
 1561              		.thumb
 1562              		.thumb_func
 1564              	HAL_I2C_Master_Receive_IT:
 1565              		@ args = 0, pretend = 0, frame = 24
 1566              		@ frame_needed = 1, uses_anonymous_args = 0
 1567 0000 80B5     		push	{r7, lr}
 1568 0002 88B0     		sub	sp, sp, #32
 1569 0004 02AF     		add	r7, sp, #8
 1570 0006 F860     		str	r0, [r7, #12]
 1571 0008 7A60     		str	r2, [r7, #4]
 1572 000a 1A46     		mov	r2, r3
 1573 000c 0B46     		mov	r3, r1	@ movhi
 1574 000e 7B81     		strh	r3, [r7, #10]	@ movhi
 1575 0010 1346     		mov	r3, r2	@ movhi
 1576 0012 3B81     		strh	r3, [r7, #8]	@ movhi
 1577 0014 FB68     		ldr	r3, [r7, #12]
 1578 0016 93F84130 		ldrb	r3, [r3, #65]
 1579 001a DBB2     		uxtb	r3, r3
 1580 001c 202B     		cmp	r3, #32
 1581 001e 53D1     		bne	.L93
 1582 0020 FB68     		ldr	r3, [r7, #12]
 1583 0022 1B68     		ldr	r3, [r3]
 1584 0024 9B69     		ldr	r3, [r3, #24]
 1585 0026 03F40043 		and	r3, r3, #32768
 1586 002a B3F5004F 		cmp	r3, #32768
 1587 002e 01D1     		bne	.L94
 1588 0030 0223     		movs	r3, #2
 1589 0032 4AE0     		b	.L95
 1590              	.L94:
 1591 0034 FB68     		ldr	r3, [r7, #12]
 1592 0036 93F84030 		ldrb	r3, [r3, #64]	@ zero_extendqisi2
 1593 003a 012B     		cmp	r3, #1
 1594 003c 01D1     		bne	.L96
 1595 003e 0223     		movs	r3, #2
 1596 0040 43E0     		b	.L95
 1597              	.L96:
 1598 0042 FB68     		ldr	r3, [r7, #12]
 1599 0044 0122     		movs	r2, #1
 1600 0046 83F84020 		strb	r2, [r3, #64]
 1601 004a FB68     		ldr	r3, [r7, #12]
 1602 004c 2222     		movs	r2, #34
 1603 004e 83F84120 		strb	r2, [r3, #65]
 1604 0052 FB68     		ldr	r3, [r7, #12]
 1605 0054 1022     		movs	r2, #16
 1606 0056 83F84220 		strb	r2, [r3, #66]
 1607 005a FB68     		ldr	r3, [r7, #12]
 1608 005c 0022     		movs	r2, #0
 1609 005e 5A64     		str	r2, [r3, #68]
 1610 0060 FB68     		ldr	r3, [r7, #12]
 1611 0062 7A68     		ldr	r2, [r7, #4]
 1612 0064 5A62     		str	r2, [r3, #36]
 1613 0066 FB68     		ldr	r3, [r7, #12]
 1614 0068 3A89     		ldrh	r2, [r7, #8]	@ movhi
 1615 006a 5A85     		strh	r2, [r3, #42]	@ movhi
ARM GAS  /var/folders/k1/1yttftd15rl7jxtpyc5m93n80000gn/T//ccqqVpOc.s 			page 29


 1616 006c FB68     		ldr	r3, [r7, #12]
 1617 006e 194A     		ldr	r2, .L99
 1618 0070 DA62     		str	r2, [r3, #44]
 1619 0072 FB68     		ldr	r3, [r7, #12]
 1620 0074 184A     		ldr	r2, .L99+4
 1621 0076 5A63     		str	r2, [r3, #52]
 1622 0078 FB68     		ldr	r3, [r7, #12]
 1623 007a 5B8D     		ldrh	r3, [r3, #42]	@ movhi
 1624 007c 9BB2     		uxth	r3, r3
 1625 007e FF2B     		cmp	r3, #255
 1626 0080 06D9     		bls	.L97
 1627 0082 FB68     		ldr	r3, [r7, #12]
 1628 0084 FF22     		movs	r2, #255
 1629 0086 1A85     		strh	r2, [r3, #40]	@ movhi
 1630 0088 4FF08073 		mov	r3, #16777216
 1631 008c 7B61     		str	r3, [r7, #20]
 1632 008e 07E0     		b	.L98
 1633              	.L97:
 1634 0090 FB68     		ldr	r3, [r7, #12]
 1635 0092 5B8D     		ldrh	r3, [r3, #42]	@ movhi
 1636 0094 9AB2     		uxth	r2, r3
 1637 0096 FB68     		ldr	r3, [r7, #12]
 1638 0098 1A85     		strh	r2, [r3, #40]	@ movhi
 1639 009a 4FF00073 		mov	r3, #33554432
 1640 009e 7B61     		str	r3, [r7, #20]
 1641              	.L98:
 1642 00a0 FB68     		ldr	r3, [r7, #12]
 1643 00a2 1B8D     		ldrh	r3, [r3, #40]
 1644 00a4 DAB2     		uxtb	r2, r3
 1645 00a6 7989     		ldrh	r1, [r7, #10]
 1646 00a8 0C4B     		ldr	r3, .L99+8
 1647 00aa 0093     		str	r3, [sp]
 1648 00ac 7B69     		ldr	r3, [r7, #20]
 1649 00ae F868     		ldr	r0, [r7, #12]
 1650 00b0 FFF7FEFF 		bl	I2C_TransferConfig
 1651 00b4 FB68     		ldr	r3, [r7, #12]
 1652 00b6 0022     		movs	r2, #0
 1653 00b8 83F84020 		strb	r2, [r3, #64]
 1654 00bc 0221     		movs	r1, #2
 1655 00be F868     		ldr	r0, [r7, #12]
 1656 00c0 FFF7FEFF 		bl	I2C_Enable_IRQ
 1657 00c4 0023     		movs	r3, #0
 1658 00c6 00E0     		b	.L95
 1659              	.L93:
 1660 00c8 0223     		movs	r3, #2
 1661              	.L95:
 1662 00ca 1846     		mov	r0, r3
 1663 00cc 1837     		adds	r7, r7, #24
 1664 00ce BD46     		mov	sp, r7
 1665              		@ sp needed
 1666 00d0 80BD     		pop	{r7, pc}
 1667              	.L100:
 1668 00d2 00BF     		.align	2
 1669              	.L99:
 1670 00d4 0000FFFF 		.word	-65536
 1671 00d8 00000000 		.word	I2C_Master_ISR_IT
 1672 00dc 00240080 		.word	-2147474432
ARM GAS  /var/folders/k1/1yttftd15rl7jxtpyc5m93n80000gn/T//ccqqVpOc.s 			page 30


 1674              		.section	.text.HAL_I2C_Slave_Transmit_IT,"ax",%progbits
 1675              		.align	1
 1676              		.global	HAL_I2C_Slave_Transmit_IT
 1677              		.syntax unified
 1678              		.thumb
 1679              		.thumb_func
 1681              	HAL_I2C_Slave_Transmit_IT:
 1682              		@ args = 0, pretend = 0, frame = 16
 1683              		@ frame_needed = 1, uses_anonymous_args = 0
 1684 0000 80B5     		push	{r7, lr}
 1685 0002 84B0     		sub	sp, sp, #16
 1686 0004 00AF     		add	r7, sp, #0
 1687 0006 F860     		str	r0, [r7, #12]
 1688 0008 B960     		str	r1, [r7, #8]
 1689 000a 1346     		mov	r3, r2
 1690 000c FB80     		strh	r3, [r7, #6]	@ movhi
 1691 000e FB68     		ldr	r3, [r7, #12]
 1692 0010 93F84130 		ldrb	r3, [r3, #65]
 1693 0014 DBB2     		uxtb	r3, r3
 1694 0016 202B     		cmp	r3, #32
 1695 0018 56D1     		bne	.L102
 1696 001a FB68     		ldr	r3, [r7, #12]
 1697 001c 93F84030 		ldrb	r3, [r3, #64]	@ zero_extendqisi2
 1698 0020 012B     		cmp	r3, #1
 1699 0022 01D1     		bne	.L103
 1700 0024 0223     		movs	r3, #2
 1701 0026 50E0     		b	.L104
 1702              	.L103:
 1703 0028 FB68     		ldr	r3, [r7, #12]
 1704 002a 0122     		movs	r2, #1
 1705 002c 83F84020 		strb	r2, [r3, #64]
 1706 0030 FB68     		ldr	r3, [r7, #12]
 1707 0032 2122     		movs	r2, #33
 1708 0034 83F84120 		strb	r2, [r3, #65]
 1709 0038 FB68     		ldr	r3, [r7, #12]
 1710 003a 2022     		movs	r2, #32
 1711 003c 83F84220 		strb	r2, [r3, #66]
 1712 0040 FB68     		ldr	r3, [r7, #12]
 1713 0042 0022     		movs	r2, #0
 1714 0044 5A64     		str	r2, [r3, #68]
 1715 0046 FB68     		ldr	r3, [r7, #12]
 1716 0048 1B68     		ldr	r3, [r3]
 1717 004a 5A68     		ldr	r2, [r3, #4]
 1718 004c FB68     		ldr	r3, [r7, #12]
 1719 004e 1B68     		ldr	r3, [r3]
 1720 0050 22F40042 		bic	r2, r2, #32768
 1721 0054 5A60     		str	r2, [r3, #4]
 1722 0056 FB68     		ldr	r3, [r7, #12]
 1723 0058 BA68     		ldr	r2, [r7, #8]
 1724 005a 5A62     		str	r2, [r3, #36]
 1725 005c FB68     		ldr	r3, [r7, #12]
 1726 005e FA88     		ldrh	r2, [r7, #6]	@ movhi
 1727 0060 5A85     		strh	r2, [r3, #42]	@ movhi
 1728 0062 FB68     		ldr	r3, [r7, #12]
 1729 0064 5B8D     		ldrh	r3, [r3, #42]	@ movhi
 1730 0066 9AB2     		uxth	r2, r3
 1731 0068 FB68     		ldr	r3, [r7, #12]
ARM GAS  /var/folders/k1/1yttftd15rl7jxtpyc5m93n80000gn/T//ccqqVpOc.s 			page 31


 1732 006a 1A85     		strh	r2, [r3, #40]	@ movhi
 1733 006c FB68     		ldr	r3, [r7, #12]
 1734 006e 194A     		ldr	r2, .L106
 1735 0070 DA62     		str	r2, [r3, #44]
 1736 0072 FB68     		ldr	r3, [r7, #12]
 1737 0074 184A     		ldr	r2, .L106+4
 1738 0076 5A63     		str	r2, [r3, #52]
 1739 0078 FB68     		ldr	r3, [r7, #12]
 1740 007a 1B6A     		ldr	r3, [r3, #32]
 1741 007c B3F5003F 		cmp	r3, #131072
 1742 0080 17D1     		bne	.L105
 1743 0082 FB68     		ldr	r3, [r7, #12]
 1744 0084 5B6A     		ldr	r3, [r3, #36]
 1745 0086 1A78     		ldrb	r2, [r3]	@ zero_extendqisi2
 1746 0088 FB68     		ldr	r3, [r7, #12]
 1747 008a 1B68     		ldr	r3, [r3]
 1748 008c 9A62     		str	r2, [r3, #40]
 1749 008e FB68     		ldr	r3, [r7, #12]
 1750 0090 5B6A     		ldr	r3, [r3, #36]
 1751 0092 5A1C     		adds	r2, r3, #1
 1752 0094 FB68     		ldr	r3, [r7, #12]
 1753 0096 5A62     		str	r2, [r3, #36]
 1754 0098 FB68     		ldr	r3, [r7, #12]
 1755 009a 5B8D     		ldrh	r3, [r3, #42]	@ movhi
 1756 009c 9BB2     		uxth	r3, r3
 1757 009e 013B     		subs	r3, r3, #1
 1758 00a0 9AB2     		uxth	r2, r3
 1759 00a2 FB68     		ldr	r3, [r7, #12]
 1760 00a4 5A85     		strh	r2, [r3, #42]	@ movhi
 1761 00a6 FB68     		ldr	r3, [r7, #12]
 1762 00a8 1B8D     		ldrh	r3, [r3, #40]
 1763 00aa 013B     		subs	r3, r3, #1
 1764 00ac 9AB2     		uxth	r2, r3
 1765 00ae FB68     		ldr	r3, [r7, #12]
 1766 00b0 1A85     		strh	r2, [r3, #40]	@ movhi
 1767              	.L105:
 1768 00b2 FB68     		ldr	r3, [r7, #12]
 1769 00b4 0022     		movs	r2, #0
 1770 00b6 83F84020 		strb	r2, [r3, #64]
 1771 00ba 48F20101 		movw	r1, #32769
 1772 00be F868     		ldr	r0, [r7, #12]
 1773 00c0 FFF7FEFF 		bl	I2C_Enable_IRQ
 1774 00c4 0023     		movs	r3, #0
 1775 00c6 00E0     		b	.L104
 1776              	.L102:
 1777 00c8 0223     		movs	r3, #2
 1778              	.L104:
 1779 00ca 1846     		mov	r0, r3
 1780 00cc 1037     		adds	r7, r7, #16
 1781 00ce BD46     		mov	sp, r7
 1782              		@ sp needed
 1783 00d0 80BD     		pop	{r7, pc}
 1784              	.L107:
 1785 00d2 00BF     		.align	2
 1786              	.L106:
 1787 00d4 0000FFFF 		.word	-65536
 1788 00d8 00000000 		.word	I2C_Slave_ISR_IT
ARM GAS  /var/folders/k1/1yttftd15rl7jxtpyc5m93n80000gn/T//ccqqVpOc.s 			page 32


 1790              		.section	.text.HAL_I2C_Slave_Receive_IT,"ax",%progbits
 1791              		.align	1
 1792              		.global	HAL_I2C_Slave_Receive_IT
 1793              		.syntax unified
 1794              		.thumb
 1795              		.thumb_func
 1797              	HAL_I2C_Slave_Receive_IT:
 1798              		@ args = 0, pretend = 0, frame = 16
 1799              		@ frame_needed = 1, uses_anonymous_args = 0
 1800 0000 80B5     		push	{r7, lr}
 1801 0002 84B0     		sub	sp, sp, #16
 1802 0004 00AF     		add	r7, sp, #0
 1803 0006 F860     		str	r0, [r7, #12]
 1804 0008 B960     		str	r1, [r7, #8]
 1805 000a 1346     		mov	r3, r2
 1806 000c FB80     		strh	r3, [r7, #6]	@ movhi
 1807 000e FB68     		ldr	r3, [r7, #12]
 1808 0010 93F84130 		ldrb	r3, [r3, #65]
 1809 0014 DBB2     		uxtb	r3, r3
 1810 0016 202B     		cmp	r3, #32
 1811 0018 39D1     		bne	.L109
 1812 001a FB68     		ldr	r3, [r7, #12]
 1813 001c 93F84030 		ldrb	r3, [r3, #64]	@ zero_extendqisi2
 1814 0020 012B     		cmp	r3, #1
 1815 0022 01D1     		bne	.L110
 1816 0024 0223     		movs	r3, #2
 1817 0026 33E0     		b	.L111
 1818              	.L110:
 1819 0028 FB68     		ldr	r3, [r7, #12]
 1820 002a 0122     		movs	r2, #1
 1821 002c 83F84020 		strb	r2, [r3, #64]
 1822 0030 FB68     		ldr	r3, [r7, #12]
 1823 0032 2222     		movs	r2, #34
 1824 0034 83F84120 		strb	r2, [r3, #65]
 1825 0038 FB68     		ldr	r3, [r7, #12]
 1826 003a 2022     		movs	r2, #32
 1827 003c 83F84220 		strb	r2, [r3, #66]
 1828 0040 FB68     		ldr	r3, [r7, #12]
 1829 0042 0022     		movs	r2, #0
 1830 0044 5A64     		str	r2, [r3, #68]
 1831 0046 FB68     		ldr	r3, [r7, #12]
 1832 0048 1B68     		ldr	r3, [r3]
 1833 004a 5A68     		ldr	r2, [r3, #4]
 1834 004c FB68     		ldr	r3, [r7, #12]
 1835 004e 1B68     		ldr	r3, [r3]
 1836 0050 22F40042 		bic	r2, r2, #32768
 1837 0054 5A60     		str	r2, [r3, #4]
 1838 0056 FB68     		ldr	r3, [r7, #12]
 1839 0058 BA68     		ldr	r2, [r7, #8]
 1840 005a 5A62     		str	r2, [r3, #36]
 1841 005c FB68     		ldr	r3, [r7, #12]
 1842 005e FA88     		ldrh	r2, [r7, #6]	@ movhi
 1843 0060 5A85     		strh	r2, [r3, #42]	@ movhi
 1844 0062 FB68     		ldr	r3, [r7, #12]
 1845 0064 5B8D     		ldrh	r3, [r3, #42]	@ movhi
 1846 0066 9AB2     		uxth	r2, r3
 1847 0068 FB68     		ldr	r3, [r7, #12]
ARM GAS  /var/folders/k1/1yttftd15rl7jxtpyc5m93n80000gn/T//ccqqVpOc.s 			page 33


 1848 006a 1A85     		strh	r2, [r3, #40]	@ movhi
 1849 006c FB68     		ldr	r3, [r7, #12]
 1850 006e 0A4A     		ldr	r2, .L112
 1851 0070 DA62     		str	r2, [r3, #44]
 1852 0072 FB68     		ldr	r3, [r7, #12]
 1853 0074 094A     		ldr	r2, .L112+4
 1854 0076 5A63     		str	r2, [r3, #52]
 1855 0078 FB68     		ldr	r3, [r7, #12]
 1856 007a 0022     		movs	r2, #0
 1857 007c 83F84020 		strb	r2, [r3, #64]
 1858 0080 48F20201 		movw	r1, #32770
 1859 0084 F868     		ldr	r0, [r7, #12]
 1860 0086 FFF7FEFF 		bl	I2C_Enable_IRQ
 1861 008a 0023     		movs	r3, #0
 1862 008c 00E0     		b	.L111
 1863              	.L109:
 1864 008e 0223     		movs	r3, #2
 1865              	.L111:
 1866 0090 1846     		mov	r0, r3
 1867 0092 1037     		adds	r7, r7, #16
 1868 0094 BD46     		mov	sp, r7
 1869              		@ sp needed
 1870 0096 80BD     		pop	{r7, pc}
 1871              	.L113:
 1872              		.align	2
 1873              	.L112:
 1874 0098 0000FFFF 		.word	-65536
 1875 009c 00000000 		.word	I2C_Slave_ISR_IT
 1877              		.section	.text.HAL_I2C_Master_Transmit_DMA,"ax",%progbits
 1878              		.align	1
 1879              		.global	HAL_I2C_Master_Transmit_DMA
 1880              		.syntax unified
 1881              		.thumb
 1882              		.thumb_func
 1884              	HAL_I2C_Master_Transmit_DMA:
 1885              		@ args = 0, pretend = 0, frame = 32
 1886              		@ frame_needed = 1, uses_anonymous_args = 0
 1887 0000 80B5     		push	{r7, lr}
 1888 0002 8AB0     		sub	sp, sp, #40
 1889 0004 02AF     		add	r7, sp, #8
 1890 0006 F860     		str	r0, [r7, #12]
 1891 0008 7A60     		str	r2, [r7, #4]
 1892 000a 1A46     		mov	r2, r3
 1893 000c 0B46     		mov	r3, r1	@ movhi
 1894 000e 7B81     		strh	r3, [r7, #10]	@ movhi
 1895 0010 1346     		mov	r3, r2	@ movhi
 1896 0012 3B81     		strh	r3, [r7, #8]	@ movhi
 1897 0014 0023     		movs	r3, #0
 1898 0016 BB61     		str	r3, [r7, #24]
 1899 0018 FB68     		ldr	r3, [r7, #12]
 1900 001a 93F84130 		ldrb	r3, [r3, #65]
 1901 001e DBB2     		uxtb	r3, r3
 1902 0020 202B     		cmp	r3, #32
 1903 0022 40F0EF80 		bne	.L115
 1904 0026 FB68     		ldr	r3, [r7, #12]
 1905 0028 1B68     		ldr	r3, [r3]
 1906 002a 9B69     		ldr	r3, [r3, #24]
ARM GAS  /var/folders/k1/1yttftd15rl7jxtpyc5m93n80000gn/T//ccqqVpOc.s 			page 34


 1907 002c 03F40043 		and	r3, r3, #32768
 1908 0030 B3F5004F 		cmp	r3, #32768
 1909 0034 01D1     		bne	.L116
 1910 0036 0223     		movs	r3, #2
 1911 0038 E5E0     		b	.L117
 1912              	.L116:
 1913 003a FB68     		ldr	r3, [r7, #12]
 1914 003c 93F84030 		ldrb	r3, [r3, #64]	@ zero_extendqisi2
 1915 0040 012B     		cmp	r3, #1
 1916 0042 01D1     		bne	.L118
 1917 0044 0223     		movs	r3, #2
 1918 0046 DEE0     		b	.L117
 1919              	.L118:
 1920 0048 FB68     		ldr	r3, [r7, #12]
 1921 004a 0122     		movs	r2, #1
 1922 004c 83F84020 		strb	r2, [r3, #64]
 1923 0050 FB68     		ldr	r3, [r7, #12]
 1924 0052 2122     		movs	r2, #33
 1925 0054 83F84120 		strb	r2, [r3, #65]
 1926 0058 FB68     		ldr	r3, [r7, #12]
 1927 005a 1022     		movs	r2, #16
 1928 005c 83F84220 		strb	r2, [r3, #66]
 1929 0060 FB68     		ldr	r3, [r7, #12]
 1930 0062 0022     		movs	r2, #0
 1931 0064 5A64     		str	r2, [r3, #68]
 1932 0066 FB68     		ldr	r3, [r7, #12]
 1933 0068 7A68     		ldr	r2, [r7, #4]
 1934 006a 5A62     		str	r2, [r3, #36]
 1935 006c FB68     		ldr	r3, [r7, #12]
 1936 006e 3A89     		ldrh	r2, [r7, #8]	@ movhi
 1937 0070 5A85     		strh	r2, [r3, #42]	@ movhi
 1938 0072 FB68     		ldr	r3, [r7, #12]
 1939 0074 664A     		ldr	r2, .L128
 1940 0076 DA62     		str	r2, [r3, #44]
 1941 0078 FB68     		ldr	r3, [r7, #12]
 1942 007a 664A     		ldr	r2, .L128+4
 1943 007c 5A63     		str	r2, [r3, #52]
 1944 007e FB68     		ldr	r3, [r7, #12]
 1945 0080 5B8D     		ldrh	r3, [r3, #42]	@ movhi
 1946 0082 9BB2     		uxth	r3, r3
 1947 0084 FF2B     		cmp	r3, #255
 1948 0086 06D9     		bls	.L119
 1949 0088 FB68     		ldr	r3, [r7, #12]
 1950 008a FF22     		movs	r2, #255
 1951 008c 1A85     		strh	r2, [r3, #40]	@ movhi
 1952 008e 4FF08073 		mov	r3, #16777216
 1953 0092 FB61     		str	r3, [r7, #28]
 1954 0094 07E0     		b	.L120
 1955              	.L119:
 1956 0096 FB68     		ldr	r3, [r7, #12]
 1957 0098 5B8D     		ldrh	r3, [r3, #42]	@ movhi
 1958 009a 9AB2     		uxth	r2, r3
 1959 009c FB68     		ldr	r3, [r7, #12]
 1960 009e 1A85     		strh	r2, [r3, #40]	@ movhi
 1961 00a0 4FF00073 		mov	r3, #33554432
 1962 00a4 FB61     		str	r3, [r7, #28]
 1963              	.L120:
ARM GAS  /var/folders/k1/1yttftd15rl7jxtpyc5m93n80000gn/T//ccqqVpOc.s 			page 35


 1964 00a6 FB68     		ldr	r3, [r7, #12]
 1965 00a8 1B8D     		ldrh	r3, [r3, #40]
 1966 00aa 002B     		cmp	r3, #0
 1967 00ac 1AD0     		beq	.L121
 1968 00ae FB68     		ldr	r3, [r7, #12]
 1969 00b0 5B6A     		ldr	r3, [r3, #36]
 1970 00b2 1A78     		ldrb	r2, [r3]	@ zero_extendqisi2
 1971 00b4 FB68     		ldr	r3, [r7, #12]
 1972 00b6 1B68     		ldr	r3, [r3]
 1973 00b8 9A62     		str	r2, [r3, #40]
 1974 00ba FB68     		ldr	r3, [r7, #12]
 1975 00bc 5B6A     		ldr	r3, [r3, #36]
 1976 00be 5A1C     		adds	r2, r3, #1
 1977 00c0 FB68     		ldr	r3, [r7, #12]
 1978 00c2 5A62     		str	r2, [r3, #36]
 1979 00c4 FB68     		ldr	r3, [r7, #12]
 1980 00c6 1B8D     		ldrh	r3, [r3, #40]
 1981 00c8 BB61     		str	r3, [r7, #24]
 1982 00ca FB68     		ldr	r3, [r7, #12]
 1983 00cc 5B8D     		ldrh	r3, [r3, #42]	@ movhi
 1984 00ce 9BB2     		uxth	r3, r3
 1985 00d0 013B     		subs	r3, r3, #1
 1986 00d2 9AB2     		uxth	r2, r3
 1987 00d4 FB68     		ldr	r3, [r7, #12]
 1988 00d6 5A85     		strh	r2, [r3, #42]	@ movhi
 1989 00d8 FB68     		ldr	r3, [r7, #12]
 1990 00da 1B8D     		ldrh	r3, [r3, #40]
 1991 00dc 013B     		subs	r3, r3, #1
 1992 00de 9AB2     		uxth	r2, r3
 1993 00e0 FB68     		ldr	r3, [r7, #12]
 1994 00e2 1A85     		strh	r2, [r3, #40]	@ movhi
 1995              	.L121:
 1996 00e4 FB68     		ldr	r3, [r7, #12]
 1997 00e6 1B8D     		ldrh	r3, [r3, #40]
 1998 00e8 002B     		cmp	r3, #0
 1999 00ea 74D0     		beq	.L122
 2000 00ec FB68     		ldr	r3, [r7, #12]
 2001 00ee 9B6B     		ldr	r3, [r3, #56]
 2002 00f0 002B     		cmp	r3, #0
 2003 00f2 22D0     		beq	.L123
 2004 00f4 FB68     		ldr	r3, [r7, #12]
 2005 00f6 9B6B     		ldr	r3, [r3, #56]
 2006 00f8 474A     		ldr	r2, .L128+8
 2007 00fa DA62     		str	r2, [r3, #44]
 2008 00fc FB68     		ldr	r3, [r7, #12]
 2009 00fe 9B6B     		ldr	r3, [r3, #56]
 2010 0100 464A     		ldr	r2, .L128+12
 2011 0102 5A63     		str	r2, [r3, #52]
 2012 0104 FB68     		ldr	r3, [r7, #12]
 2013 0106 9B6B     		ldr	r3, [r3, #56]
 2014 0108 0022     		movs	r2, #0
 2015 010a 1A63     		str	r2, [r3, #48]
 2016 010c FB68     		ldr	r3, [r7, #12]
 2017 010e 9B6B     		ldr	r3, [r3, #56]
 2018 0110 0022     		movs	r2, #0
 2019 0112 9A63     		str	r2, [r3, #56]
 2020 0114 FB68     		ldr	r3, [r7, #12]
ARM GAS  /var/folders/k1/1yttftd15rl7jxtpyc5m93n80000gn/T//ccqqVpOc.s 			page 36


 2021 0116 986B     		ldr	r0, [r3, #56]
 2022 0118 FB68     		ldr	r3, [r7, #12]
 2023 011a 5B6A     		ldr	r3, [r3, #36]
 2024 011c 1946     		mov	r1, r3
 2025 011e FB68     		ldr	r3, [r7, #12]
 2026 0120 1B68     		ldr	r3, [r3]
 2027 0122 2833     		adds	r3, r3, #40
 2028 0124 1A46     		mov	r2, r3
 2029 0126 FB68     		ldr	r3, [r7, #12]
 2030 0128 1B8D     		ldrh	r3, [r3, #40]
 2031 012a FFF7FEFF 		bl	HAL_DMA_Start_IT
 2032 012e 0346     		mov	r3, r0
 2033 0130 FB75     		strb	r3, [r7, #23]
 2034 0132 FB7D     		ldrb	r3, [r7, #23]	@ zero_extendqisi2
 2035 0134 002B     		cmp	r3, #0
 2036 0136 3AD1     		bne	.L125
 2037 0138 13E0     		b	.L127
 2038              	.L123:
 2039 013a FB68     		ldr	r3, [r7, #12]
 2040 013c 2022     		movs	r2, #32
 2041 013e 83F84120 		strb	r2, [r3, #65]
 2042 0142 FB68     		ldr	r3, [r7, #12]
 2043 0144 0022     		movs	r2, #0
 2044 0146 83F84220 		strb	r2, [r3, #66]
 2045 014a FB68     		ldr	r3, [r7, #12]
 2046 014c 5B6C     		ldr	r3, [r3, #68]
 2047 014e 43F08002 		orr	r2, r3, #128
 2048 0152 FB68     		ldr	r3, [r7, #12]
 2049 0154 5A64     		str	r2, [r3, #68]
 2050 0156 FB68     		ldr	r3, [r7, #12]
 2051 0158 0022     		movs	r2, #0
 2052 015a 83F84020 		strb	r2, [r3, #64]
 2053 015e 0123     		movs	r3, #1
 2054 0160 51E0     		b	.L117
 2055              	.L127:
 2056 0162 FB68     		ldr	r3, [r7, #12]
 2057 0164 1B8D     		ldrh	r3, [r3, #40]
 2058 0166 DBB2     		uxtb	r3, r3
 2059 0168 0133     		adds	r3, r3, #1
 2060 016a DAB2     		uxtb	r2, r3
 2061 016c 7989     		ldrh	r1, [r7, #10]
 2062 016e 2C4B     		ldr	r3, .L128+16
 2063 0170 0093     		str	r3, [sp]
 2064 0172 FB69     		ldr	r3, [r7, #28]
 2065 0174 F868     		ldr	r0, [r7, #12]
 2066 0176 FFF7FEFF 		bl	I2C_TransferConfig
 2067 017a FB68     		ldr	r3, [r7, #12]
 2068 017c 5B8D     		ldrh	r3, [r3, #42]	@ movhi
 2069 017e 9AB2     		uxth	r2, r3
 2070 0180 FB68     		ldr	r3, [r7, #12]
 2071 0182 1B8D     		ldrh	r3, [r3, #40]
 2072 0184 D31A     		subs	r3, r2, r3
 2073 0186 9AB2     		uxth	r2, r3
 2074 0188 FB68     		ldr	r3, [r7, #12]
 2075 018a 5A85     		strh	r2, [r3, #42]	@ movhi
 2076 018c FB68     		ldr	r3, [r7, #12]
 2077 018e 0022     		movs	r2, #0
ARM GAS  /var/folders/k1/1yttftd15rl7jxtpyc5m93n80000gn/T//ccqqVpOc.s 			page 37


 2078 0190 83F84020 		strb	r2, [r3, #64]
 2079 0194 1021     		movs	r1, #16
 2080 0196 F868     		ldr	r0, [r7, #12]
 2081 0198 FFF7FEFF 		bl	I2C_Enable_IRQ
 2082 019c FB68     		ldr	r3, [r7, #12]
 2083 019e 1B68     		ldr	r3, [r3]
 2084 01a0 1A68     		ldr	r2, [r3]
 2085 01a2 FB68     		ldr	r3, [r7, #12]
 2086 01a4 1B68     		ldr	r3, [r3]
 2087 01a6 42F48042 		orr	r2, r2, #16384
 2088 01aa 1A60     		str	r2, [r3]
 2089 01ac 28E0     		b	.L126
 2090              	.L125:
 2091 01ae FB68     		ldr	r3, [r7, #12]
 2092 01b0 2022     		movs	r2, #32
 2093 01b2 83F84120 		strb	r2, [r3, #65]
 2094 01b6 FB68     		ldr	r3, [r7, #12]
 2095 01b8 0022     		movs	r2, #0
 2096 01ba 83F84220 		strb	r2, [r3, #66]
 2097 01be FB68     		ldr	r3, [r7, #12]
 2098 01c0 5B6C     		ldr	r3, [r3, #68]
 2099 01c2 43F01002 		orr	r2, r3, #16
 2100 01c6 FB68     		ldr	r3, [r7, #12]
 2101 01c8 5A64     		str	r2, [r3, #68]
 2102 01ca FB68     		ldr	r3, [r7, #12]
 2103 01cc 0022     		movs	r2, #0
 2104 01ce 83F84020 		strb	r2, [r3, #64]
 2105 01d2 0123     		movs	r3, #1
 2106 01d4 17E0     		b	.L117
 2107              	.L122:
 2108 01d6 FB68     		ldr	r3, [r7, #12]
 2109 01d8 124A     		ldr	r2, .L128+20
 2110 01da 5A63     		str	r2, [r3, #52]
 2111 01dc BB69     		ldr	r3, [r7, #24]
 2112 01de DAB2     		uxtb	r2, r3
 2113 01e0 7989     		ldrh	r1, [r7, #10]
 2114 01e2 0F4B     		ldr	r3, .L128+16
 2115 01e4 0093     		str	r3, [sp]
 2116 01e6 4FF00073 		mov	r3, #33554432
 2117 01ea F868     		ldr	r0, [r7, #12]
 2118 01ec FFF7FEFF 		bl	I2C_TransferConfig
 2119 01f0 FB68     		ldr	r3, [r7, #12]
 2120 01f2 0022     		movs	r2, #0
 2121 01f4 83F84020 		strb	r2, [r3, #64]
 2122 01f8 0121     		movs	r1, #1
 2123 01fa F868     		ldr	r0, [r7, #12]
 2124 01fc FFF7FEFF 		bl	I2C_Enable_IRQ
 2125              	.L126:
 2126 0200 0023     		movs	r3, #0
 2127 0202 00E0     		b	.L117
 2128              	.L115:
 2129 0204 0223     		movs	r3, #2
 2130              	.L117:
 2131 0206 1846     		mov	r0, r3
 2132 0208 2037     		adds	r7, r7, #32
 2133 020a BD46     		mov	sp, r7
 2134              		@ sp needed
ARM GAS  /var/folders/k1/1yttftd15rl7jxtpyc5m93n80000gn/T//ccqqVpOc.s 			page 38


 2135 020c 80BD     		pop	{r7, pc}
 2136              	.L129:
 2137 020e 00BF     		.align	2
 2138              	.L128:
 2139 0210 0000FFFF 		.word	-65536
 2140 0214 00000000 		.word	I2C_Master_ISR_DMA
 2141 0218 00000000 		.word	I2C_DMAMasterTransmitCplt
 2142 021c 00000000 		.word	I2C_DMAError
 2143 0220 00200080 		.word	-2147475456
 2144 0224 00000000 		.word	I2C_Master_ISR_IT
 2146              		.section	.text.HAL_I2C_Master_Receive_DMA,"ax",%progbits
 2147              		.align	1
 2148              		.global	HAL_I2C_Master_Receive_DMA
 2149              		.syntax unified
 2150              		.thumb
 2151              		.thumb_func
 2153              	HAL_I2C_Master_Receive_DMA:
 2154              		@ args = 0, pretend = 0, frame = 24
 2155              		@ frame_needed = 1, uses_anonymous_args = 0
 2156 0000 80B5     		push	{r7, lr}
 2157 0002 88B0     		sub	sp, sp, #32
 2158 0004 02AF     		add	r7, sp, #8
 2159 0006 F860     		str	r0, [r7, #12]
 2160 0008 7A60     		str	r2, [r7, #4]
 2161 000a 1A46     		mov	r2, r3
 2162 000c 0B46     		mov	r3, r1	@ movhi
 2163 000e 7B81     		strh	r3, [r7, #10]	@ movhi
 2164 0010 1346     		mov	r3, r2	@ movhi
 2165 0012 3B81     		strh	r3, [r7, #8]	@ movhi
 2166 0014 FB68     		ldr	r3, [r7, #12]
 2167 0016 93F84130 		ldrb	r3, [r3, #65]
 2168 001a DBB2     		uxtb	r3, r3
 2169 001c 202B     		cmp	r3, #32
 2170 001e 40F0CD80 		bne	.L131
 2171 0022 FB68     		ldr	r3, [r7, #12]
 2172 0024 1B68     		ldr	r3, [r3]
 2173 0026 9B69     		ldr	r3, [r3, #24]
 2174 0028 03F40043 		and	r3, r3, #32768
 2175 002c B3F5004F 		cmp	r3, #32768
 2176 0030 01D1     		bne	.L132
 2177 0032 0223     		movs	r3, #2
 2178 0034 C3E0     		b	.L133
 2179              	.L132:
 2180 0036 FB68     		ldr	r3, [r7, #12]
 2181 0038 93F84030 		ldrb	r3, [r3, #64]	@ zero_extendqisi2
 2182 003c 012B     		cmp	r3, #1
 2183 003e 01D1     		bne	.L134
 2184 0040 0223     		movs	r3, #2
 2185 0042 BCE0     		b	.L133
 2186              	.L134:
 2187 0044 FB68     		ldr	r3, [r7, #12]
 2188 0046 0122     		movs	r2, #1
 2189 0048 83F84020 		strb	r2, [r3, #64]
 2190 004c FB68     		ldr	r3, [r7, #12]
 2191 004e 2222     		movs	r2, #34
 2192 0050 83F84120 		strb	r2, [r3, #65]
 2193 0054 FB68     		ldr	r3, [r7, #12]
ARM GAS  /var/folders/k1/1yttftd15rl7jxtpyc5m93n80000gn/T//ccqqVpOc.s 			page 39


 2194 0056 1022     		movs	r2, #16
 2195 0058 83F84220 		strb	r2, [r3, #66]
 2196 005c FB68     		ldr	r3, [r7, #12]
 2197 005e 0022     		movs	r2, #0
 2198 0060 5A64     		str	r2, [r3, #68]
 2199 0062 FB68     		ldr	r3, [r7, #12]
 2200 0064 7A68     		ldr	r2, [r7, #4]
 2201 0066 5A62     		str	r2, [r3, #36]
 2202 0068 FB68     		ldr	r3, [r7, #12]
 2203 006a 3A89     		ldrh	r2, [r7, #8]	@ movhi
 2204 006c 5A85     		strh	r2, [r3, #42]	@ movhi
 2205 006e FB68     		ldr	r3, [r7, #12]
 2206 0070 554A     		ldr	r2, .L143
 2207 0072 DA62     		str	r2, [r3, #44]
 2208 0074 FB68     		ldr	r3, [r7, #12]
 2209 0076 554A     		ldr	r2, .L143+4
 2210 0078 5A63     		str	r2, [r3, #52]
 2211 007a FB68     		ldr	r3, [r7, #12]
 2212 007c 5B8D     		ldrh	r3, [r3, #42]	@ movhi
 2213 007e 9BB2     		uxth	r3, r3
 2214 0080 FF2B     		cmp	r3, #255
 2215 0082 06D9     		bls	.L135
 2216 0084 FB68     		ldr	r3, [r7, #12]
 2217 0086 FF22     		movs	r2, #255
 2218 0088 1A85     		strh	r2, [r3, #40]	@ movhi
 2219 008a 4FF08073 		mov	r3, #16777216
 2220 008e 7B61     		str	r3, [r7, #20]
 2221 0090 07E0     		b	.L136
 2222              	.L135:
 2223 0092 FB68     		ldr	r3, [r7, #12]
 2224 0094 5B8D     		ldrh	r3, [r3, #42]	@ movhi
 2225 0096 9AB2     		uxth	r2, r3
 2226 0098 FB68     		ldr	r3, [r7, #12]
 2227 009a 1A85     		strh	r2, [r3, #40]	@ movhi
 2228 009c 4FF00073 		mov	r3, #33554432
 2229 00a0 7B61     		str	r3, [r7, #20]
 2230              	.L136:
 2231 00a2 FB68     		ldr	r3, [r7, #12]
 2232 00a4 1B8D     		ldrh	r3, [r3, #40]
 2233 00a6 002B     		cmp	r3, #0
 2234 00a8 70D0     		beq	.L137
 2235 00aa FB68     		ldr	r3, [r7, #12]
 2236 00ac DB6B     		ldr	r3, [r3, #60]
 2237 00ae 002B     		cmp	r3, #0
 2238 00b0 20D0     		beq	.L138
 2239 00b2 FB68     		ldr	r3, [r7, #12]
 2240 00b4 DB6B     		ldr	r3, [r3, #60]
 2241 00b6 464A     		ldr	r2, .L143+8
 2242 00b8 DA62     		str	r2, [r3, #44]
 2243 00ba FB68     		ldr	r3, [r7, #12]
 2244 00bc DB6B     		ldr	r3, [r3, #60]
 2245 00be 454A     		ldr	r2, .L143+12
 2246 00c0 5A63     		str	r2, [r3, #52]
 2247 00c2 FB68     		ldr	r3, [r7, #12]
 2248 00c4 DB6B     		ldr	r3, [r3, #60]
 2249 00c6 0022     		movs	r2, #0
 2250 00c8 1A63     		str	r2, [r3, #48]
ARM GAS  /var/folders/k1/1yttftd15rl7jxtpyc5m93n80000gn/T//ccqqVpOc.s 			page 40


 2251 00ca FB68     		ldr	r3, [r7, #12]
 2252 00cc DB6B     		ldr	r3, [r3, #60]
 2253 00ce 0022     		movs	r2, #0
 2254 00d0 9A63     		str	r2, [r3, #56]
 2255 00d2 FB68     		ldr	r3, [r7, #12]
 2256 00d4 D86B     		ldr	r0, [r3, #60]
 2257 00d6 FB68     		ldr	r3, [r7, #12]
 2258 00d8 1B68     		ldr	r3, [r3]
 2259 00da 2433     		adds	r3, r3, #36
 2260 00dc 1946     		mov	r1, r3
 2261 00de 7A68     		ldr	r2, [r7, #4]
 2262 00e0 FB68     		ldr	r3, [r7, #12]
 2263 00e2 1B8D     		ldrh	r3, [r3, #40]
 2264 00e4 FFF7FEFF 		bl	HAL_DMA_Start_IT
 2265 00e8 0346     		mov	r3, r0
 2266 00ea FB74     		strb	r3, [r7, #19]
 2267 00ec FB7C     		ldrb	r3, [r7, #19]	@ zero_extendqisi2
 2268 00ee 002B     		cmp	r3, #0
 2269 00f0 38D1     		bne	.L140
 2270 00f2 13E0     		b	.L142
 2271              	.L138:
 2272 00f4 FB68     		ldr	r3, [r7, #12]
 2273 00f6 2022     		movs	r2, #32
 2274 00f8 83F84120 		strb	r2, [r3, #65]
 2275 00fc FB68     		ldr	r3, [r7, #12]
 2276 00fe 0022     		movs	r2, #0
 2277 0100 83F84220 		strb	r2, [r3, #66]
 2278 0104 FB68     		ldr	r3, [r7, #12]
 2279 0106 5B6C     		ldr	r3, [r3, #68]
 2280 0108 43F08002 		orr	r2, r3, #128
 2281 010c FB68     		ldr	r3, [r7, #12]
 2282 010e 5A64     		str	r2, [r3, #68]
 2283 0110 FB68     		ldr	r3, [r7, #12]
 2284 0112 0022     		movs	r2, #0
 2285 0114 83F84020 		strb	r2, [r3, #64]
 2286 0118 0123     		movs	r3, #1
 2287 011a 50E0     		b	.L133
 2288              	.L142:
 2289 011c FB68     		ldr	r3, [r7, #12]
 2290 011e 1B8D     		ldrh	r3, [r3, #40]
 2291 0120 DAB2     		uxtb	r2, r3
 2292 0122 7989     		ldrh	r1, [r7, #10]
 2293 0124 2C4B     		ldr	r3, .L143+16
 2294 0126 0093     		str	r3, [sp]
 2295 0128 7B69     		ldr	r3, [r7, #20]
 2296 012a F868     		ldr	r0, [r7, #12]
 2297 012c FFF7FEFF 		bl	I2C_TransferConfig
 2298 0130 FB68     		ldr	r3, [r7, #12]
 2299 0132 5B8D     		ldrh	r3, [r3, #42]	@ movhi
 2300 0134 9AB2     		uxth	r2, r3
 2301 0136 FB68     		ldr	r3, [r7, #12]
 2302 0138 1B8D     		ldrh	r3, [r3, #40]
 2303 013a D31A     		subs	r3, r2, r3
 2304 013c 9AB2     		uxth	r2, r3
 2305 013e FB68     		ldr	r3, [r7, #12]
 2306 0140 5A85     		strh	r2, [r3, #42]	@ movhi
 2307 0142 FB68     		ldr	r3, [r7, #12]
ARM GAS  /var/folders/k1/1yttftd15rl7jxtpyc5m93n80000gn/T//ccqqVpOc.s 			page 41


 2308 0144 0022     		movs	r2, #0
 2309 0146 83F84020 		strb	r2, [r3, #64]
 2310 014a 1021     		movs	r1, #16
 2311 014c F868     		ldr	r0, [r7, #12]
 2312 014e FFF7FEFF 		bl	I2C_Enable_IRQ
 2313 0152 FB68     		ldr	r3, [r7, #12]
 2314 0154 1B68     		ldr	r3, [r3]
 2315 0156 1A68     		ldr	r2, [r3]
 2316 0158 FB68     		ldr	r3, [r7, #12]
 2317 015a 1B68     		ldr	r3, [r3]
 2318 015c 42F40042 		orr	r2, r2, #32768
 2319 0160 1A60     		str	r2, [r3]
 2320 0162 29E0     		b	.L141
 2321              	.L140:
 2322 0164 FB68     		ldr	r3, [r7, #12]
 2323 0166 2022     		movs	r2, #32
 2324 0168 83F84120 		strb	r2, [r3, #65]
 2325 016c FB68     		ldr	r3, [r7, #12]
 2326 016e 0022     		movs	r2, #0
 2327 0170 83F84220 		strb	r2, [r3, #66]
 2328 0174 FB68     		ldr	r3, [r7, #12]
 2329 0176 5B6C     		ldr	r3, [r3, #68]
 2330 0178 43F01002 		orr	r2, r3, #16
 2331 017c FB68     		ldr	r3, [r7, #12]
 2332 017e 5A64     		str	r2, [r3, #68]
 2333 0180 FB68     		ldr	r3, [r7, #12]
 2334 0182 0022     		movs	r2, #0
 2335 0184 83F84020 		strb	r2, [r3, #64]
 2336 0188 0123     		movs	r3, #1
 2337 018a 18E0     		b	.L133
 2338              	.L137:
 2339 018c FB68     		ldr	r3, [r7, #12]
 2340 018e 134A     		ldr	r2, .L143+20
 2341 0190 5A63     		str	r2, [r3, #52]
 2342 0192 FB68     		ldr	r3, [r7, #12]
 2343 0194 1B8D     		ldrh	r3, [r3, #40]
 2344 0196 DAB2     		uxtb	r2, r3
 2345 0198 7989     		ldrh	r1, [r7, #10]
 2346 019a 0F4B     		ldr	r3, .L143+16
 2347 019c 0093     		str	r3, [sp]
 2348 019e 4FF00073 		mov	r3, #33554432
 2349 01a2 F868     		ldr	r0, [r7, #12]
 2350 01a4 FFF7FEFF 		bl	I2C_TransferConfig
 2351 01a8 FB68     		ldr	r3, [r7, #12]
 2352 01aa 0022     		movs	r2, #0
 2353 01ac 83F84020 		strb	r2, [r3, #64]
 2354 01b0 0221     		movs	r1, #2
 2355 01b2 F868     		ldr	r0, [r7, #12]
 2356 01b4 FFF7FEFF 		bl	I2C_Enable_IRQ
 2357              	.L141:
 2358 01b8 0023     		movs	r3, #0
 2359 01ba 00E0     		b	.L133
 2360              	.L131:
 2361 01bc 0223     		movs	r3, #2
 2362              	.L133:
 2363 01be 1846     		mov	r0, r3
 2364 01c0 1837     		adds	r7, r7, #24
ARM GAS  /var/folders/k1/1yttftd15rl7jxtpyc5m93n80000gn/T//ccqqVpOc.s 			page 42


 2365 01c2 BD46     		mov	sp, r7
 2366              		@ sp needed
 2367 01c4 80BD     		pop	{r7, pc}
 2368              	.L144:
 2369 01c6 00BF     		.align	2
 2370              	.L143:
 2371 01c8 0000FFFF 		.word	-65536
 2372 01cc 00000000 		.word	I2C_Master_ISR_DMA
 2373 01d0 00000000 		.word	I2C_DMAMasterReceiveCplt
 2374 01d4 00000000 		.word	I2C_DMAError
 2375 01d8 00240080 		.word	-2147474432
 2376 01dc 00000000 		.word	I2C_Master_ISR_IT
 2378              		.section	.text.HAL_I2C_Slave_Transmit_DMA,"ax",%progbits
 2379              		.align	1
 2380              		.global	HAL_I2C_Slave_Transmit_DMA
 2381              		.syntax unified
 2382              		.thumb
 2383              		.thumb_func
 2385              	HAL_I2C_Slave_Transmit_DMA:
 2386              		@ args = 0, pretend = 0, frame = 24
 2387              		@ frame_needed = 1, uses_anonymous_args = 0
 2388 0000 80B5     		push	{r7, lr}
 2389 0002 86B0     		sub	sp, sp, #24
 2390 0004 00AF     		add	r7, sp, #0
 2391 0006 F860     		str	r0, [r7, #12]
 2392 0008 B960     		str	r1, [r7, #8]
 2393 000a 1346     		mov	r3, r2
 2394 000c FB80     		strh	r3, [r7, #6]	@ movhi
 2395 000e FB68     		ldr	r3, [r7, #12]
 2396 0010 93F84130 		ldrb	r3, [r3, #65]
 2397 0014 DBB2     		uxtb	r3, r3
 2398 0016 202B     		cmp	r3, #32
 2399 0018 40F0D180 		bne	.L146
 2400 001c BB68     		ldr	r3, [r7, #8]
 2401 001e 002B     		cmp	r3, #0
 2402 0020 02D0     		beq	.L147
 2403 0022 FB88     		ldrh	r3, [r7, #6]
 2404 0024 002B     		cmp	r3, #0
 2405 0026 05D1     		bne	.L148
 2406              	.L147:
 2407 0028 FB68     		ldr	r3, [r7, #12]
 2408 002a 4FF40072 		mov	r2, #512
 2409 002e 5A64     		str	r2, [r3, #68]
 2410 0030 0123     		movs	r3, #1
 2411 0032 C5E0     		b	.L149
 2412              	.L148:
 2413 0034 FB68     		ldr	r3, [r7, #12]
 2414 0036 93F84030 		ldrb	r3, [r3, #64]	@ zero_extendqisi2
 2415 003a 012B     		cmp	r3, #1
 2416 003c 01D1     		bne	.L150
 2417 003e 0223     		movs	r3, #2
 2418 0040 BEE0     		b	.L149
 2419              	.L150:
 2420 0042 FB68     		ldr	r3, [r7, #12]
 2421 0044 0122     		movs	r2, #1
 2422 0046 83F84020 		strb	r2, [r3, #64]
 2423 004a FB68     		ldr	r3, [r7, #12]
ARM GAS  /var/folders/k1/1yttftd15rl7jxtpyc5m93n80000gn/T//ccqqVpOc.s 			page 43


 2424 004c 2122     		movs	r2, #33
 2425 004e 83F84120 		strb	r2, [r3, #65]
 2426 0052 FB68     		ldr	r3, [r7, #12]
 2427 0054 2022     		movs	r2, #32
 2428 0056 83F84220 		strb	r2, [r3, #66]
 2429 005a FB68     		ldr	r3, [r7, #12]
 2430 005c 0022     		movs	r2, #0
 2431 005e 5A64     		str	r2, [r3, #68]
 2432 0060 FB68     		ldr	r3, [r7, #12]
 2433 0062 BA68     		ldr	r2, [r7, #8]
 2434 0064 5A62     		str	r2, [r3, #36]
 2435 0066 FB68     		ldr	r3, [r7, #12]
 2436 0068 FA88     		ldrh	r2, [r7, #6]	@ movhi
 2437 006a 5A85     		strh	r2, [r3, #42]	@ movhi
 2438 006c FB68     		ldr	r3, [r7, #12]
 2439 006e 5B8D     		ldrh	r3, [r3, #42]	@ movhi
 2440 0070 9AB2     		uxth	r2, r3
 2441 0072 FB68     		ldr	r3, [r7, #12]
 2442 0074 1A85     		strh	r2, [r3, #40]	@ movhi
 2443 0076 FB68     		ldr	r3, [r7, #12]
 2444 0078 534A     		ldr	r2, .L158
 2445 007a DA62     		str	r2, [r3, #44]
 2446 007c FB68     		ldr	r3, [r7, #12]
 2447 007e 534A     		ldr	r2, .L158+4
 2448 0080 5A63     		str	r2, [r3, #52]
 2449 0082 FB68     		ldr	r3, [r7, #12]
 2450 0084 1B6A     		ldr	r3, [r3, #32]
 2451 0086 B3F5003F 		cmp	r3, #131072
 2452 008a 17D1     		bne	.L151
 2453 008c FB68     		ldr	r3, [r7, #12]
 2454 008e 5B6A     		ldr	r3, [r3, #36]
 2455 0090 1A78     		ldrb	r2, [r3]	@ zero_extendqisi2
 2456 0092 FB68     		ldr	r3, [r7, #12]
 2457 0094 1B68     		ldr	r3, [r3]
 2458 0096 9A62     		str	r2, [r3, #40]
 2459 0098 FB68     		ldr	r3, [r7, #12]
 2460 009a 5B6A     		ldr	r3, [r3, #36]
 2461 009c 5A1C     		adds	r2, r3, #1
 2462 009e FB68     		ldr	r3, [r7, #12]
 2463 00a0 5A62     		str	r2, [r3, #36]
 2464 00a2 FB68     		ldr	r3, [r7, #12]
 2465 00a4 5B8D     		ldrh	r3, [r3, #42]	@ movhi
 2466 00a6 9BB2     		uxth	r3, r3
 2467 00a8 013B     		subs	r3, r3, #1
 2468 00aa 9AB2     		uxth	r2, r3
 2469 00ac FB68     		ldr	r3, [r7, #12]
 2470 00ae 5A85     		strh	r2, [r3, #42]	@ movhi
 2471 00b0 FB68     		ldr	r3, [r7, #12]
 2472 00b2 1B8D     		ldrh	r3, [r3, #40]
 2473 00b4 013B     		subs	r3, r3, #1
 2474 00b6 9AB2     		uxth	r2, r3
 2475 00b8 FB68     		ldr	r3, [r7, #12]
 2476 00ba 1A85     		strh	r2, [r3, #40]	@ movhi
 2477              	.L151:
 2478 00bc FB68     		ldr	r3, [r7, #12]
 2479 00be 5B8D     		ldrh	r3, [r3, #42]	@ movhi
 2480 00c0 9BB2     		uxth	r3, r3
ARM GAS  /var/folders/k1/1yttftd15rl7jxtpyc5m93n80000gn/T//ccqqVpOc.s 			page 44


 2481 00c2 002B     		cmp	r3, #0
 2482 00c4 68D0     		beq	.L152
 2483 00c6 FB68     		ldr	r3, [r7, #12]
 2484 00c8 9B6B     		ldr	r3, [r3, #56]
 2485 00ca 002B     		cmp	r3, #0
 2486 00cc 22D0     		beq	.L153
 2487 00ce FB68     		ldr	r3, [r7, #12]
 2488 00d0 9B6B     		ldr	r3, [r3, #56]
 2489 00d2 3F4A     		ldr	r2, .L158+8
 2490 00d4 DA62     		str	r2, [r3, #44]
 2491 00d6 FB68     		ldr	r3, [r7, #12]
 2492 00d8 9B6B     		ldr	r3, [r3, #56]
 2493 00da 3E4A     		ldr	r2, .L158+12
 2494 00dc 5A63     		str	r2, [r3, #52]
 2495 00de FB68     		ldr	r3, [r7, #12]
 2496 00e0 9B6B     		ldr	r3, [r3, #56]
 2497 00e2 0022     		movs	r2, #0
 2498 00e4 1A63     		str	r2, [r3, #48]
 2499 00e6 FB68     		ldr	r3, [r7, #12]
 2500 00e8 9B6B     		ldr	r3, [r3, #56]
 2501 00ea 0022     		movs	r2, #0
 2502 00ec 9A63     		str	r2, [r3, #56]
 2503 00ee FB68     		ldr	r3, [r7, #12]
 2504 00f0 986B     		ldr	r0, [r3, #56]
 2505 00f2 FB68     		ldr	r3, [r7, #12]
 2506 00f4 5B6A     		ldr	r3, [r3, #36]
 2507 00f6 1946     		mov	r1, r3
 2508 00f8 FB68     		ldr	r3, [r7, #12]
 2509 00fa 1B68     		ldr	r3, [r3]
 2510 00fc 2833     		adds	r3, r3, #40
 2511 00fe 1A46     		mov	r2, r3
 2512 0100 FB68     		ldr	r3, [r7, #12]
 2513 0102 1B8D     		ldrh	r3, [r3, #40]
 2514 0104 FFF7FEFF 		bl	HAL_DMA_Start_IT
 2515 0108 0346     		mov	r3, r0
 2516 010a FB75     		strb	r3, [r7, #23]
 2517 010c FB7D     		ldrb	r3, [r7, #23]	@ zero_extendqisi2
 2518 010e 002B     		cmp	r3, #0
 2519 0110 2ED1     		bne	.L155
 2520 0112 13E0     		b	.L157
 2521              	.L153:
 2522 0114 FB68     		ldr	r3, [r7, #12]
 2523 0116 2822     		movs	r2, #40
 2524 0118 83F84120 		strb	r2, [r3, #65]
 2525 011c FB68     		ldr	r3, [r7, #12]
 2526 011e 0022     		movs	r2, #0
 2527 0120 83F84220 		strb	r2, [r3, #66]
 2528 0124 FB68     		ldr	r3, [r7, #12]
 2529 0126 5B6C     		ldr	r3, [r3, #68]
 2530 0128 43F08002 		orr	r2, r3, #128
 2531 012c FB68     		ldr	r3, [r7, #12]
 2532 012e 5A64     		str	r2, [r3, #68]
 2533 0130 FB68     		ldr	r3, [r7, #12]
 2534 0132 0022     		movs	r2, #0
 2535 0134 83F84020 		strb	r2, [r3, #64]
 2536 0138 0123     		movs	r3, #1
 2537 013a 41E0     		b	.L149
ARM GAS  /var/folders/k1/1yttftd15rl7jxtpyc5m93n80000gn/T//ccqqVpOc.s 			page 45


 2538              	.L157:
 2539 013c FB68     		ldr	r3, [r7, #12]
 2540 013e 1B68     		ldr	r3, [r3]
 2541 0140 5A68     		ldr	r2, [r3, #4]
 2542 0142 FB68     		ldr	r3, [r7, #12]
 2543 0144 1B68     		ldr	r3, [r3]
 2544 0146 22F40042 		bic	r2, r2, #32768
 2545 014a 5A60     		str	r2, [r3, #4]
 2546 014c FB68     		ldr	r3, [r7, #12]
 2547 014e 0022     		movs	r2, #0
 2548 0150 83F84020 		strb	r2, [r3, #64]
 2549 0154 4FF40041 		mov	r1, #32768
 2550 0158 F868     		ldr	r0, [r7, #12]
 2551 015a FFF7FEFF 		bl	I2C_Enable_IRQ
 2552 015e FB68     		ldr	r3, [r7, #12]
 2553 0160 1B68     		ldr	r3, [r3]
 2554 0162 1A68     		ldr	r2, [r3]
 2555 0164 FB68     		ldr	r3, [r7, #12]
 2556 0166 1B68     		ldr	r3, [r3]
 2557 0168 42F48042 		orr	r2, r2, #16384
 2558 016c 1A60     		str	r2, [r3]
 2559 016e 24E0     		b	.L156
 2560              	.L155:
 2561 0170 FB68     		ldr	r3, [r7, #12]
 2562 0172 2822     		movs	r2, #40
 2563 0174 83F84120 		strb	r2, [r3, #65]
 2564 0178 FB68     		ldr	r3, [r7, #12]
 2565 017a 0022     		movs	r2, #0
 2566 017c 83F84220 		strb	r2, [r3, #66]
 2567 0180 FB68     		ldr	r3, [r7, #12]
 2568 0182 5B6C     		ldr	r3, [r3, #68]
 2569 0184 43F01002 		orr	r2, r3, #16
 2570 0188 FB68     		ldr	r3, [r7, #12]
 2571 018a 5A64     		str	r2, [r3, #68]
 2572 018c FB68     		ldr	r3, [r7, #12]
 2573 018e 0022     		movs	r2, #0
 2574 0190 83F84020 		strb	r2, [r3, #64]
 2575 0194 0123     		movs	r3, #1
 2576 0196 13E0     		b	.L149
 2577              	.L152:
 2578 0198 FB68     		ldr	r3, [r7, #12]
 2579 019a 1B68     		ldr	r3, [r3]
 2580 019c 5A68     		ldr	r2, [r3, #4]
 2581 019e FB68     		ldr	r3, [r7, #12]
 2582 01a0 1B68     		ldr	r3, [r3]
 2583 01a2 22F40042 		bic	r2, r2, #32768
 2584 01a6 5A60     		str	r2, [r3, #4]
 2585 01a8 FB68     		ldr	r3, [r7, #12]
 2586 01aa 0022     		movs	r2, #0
 2587 01ac 83F84020 		strb	r2, [r3, #64]
 2588 01b0 4FF40041 		mov	r1, #32768
 2589 01b4 F868     		ldr	r0, [r7, #12]
 2590 01b6 FFF7FEFF 		bl	I2C_Enable_IRQ
 2591              	.L156:
 2592 01ba 0023     		movs	r3, #0
 2593 01bc 00E0     		b	.L149
 2594              	.L146:
ARM GAS  /var/folders/k1/1yttftd15rl7jxtpyc5m93n80000gn/T//ccqqVpOc.s 			page 46


 2595 01be 0223     		movs	r3, #2
 2596              	.L149:
 2597 01c0 1846     		mov	r0, r3
 2598 01c2 1837     		adds	r7, r7, #24
 2599 01c4 BD46     		mov	sp, r7
 2600              		@ sp needed
 2601 01c6 80BD     		pop	{r7, pc}
 2602              	.L159:
 2603              		.align	2
 2604              	.L158:
 2605 01c8 0000FFFF 		.word	-65536
 2606 01cc 00000000 		.word	I2C_Slave_ISR_DMA
 2607 01d0 00000000 		.word	I2C_DMASlaveTransmitCplt
 2608 01d4 00000000 		.word	I2C_DMAError
 2610              		.section	.text.HAL_I2C_Slave_Receive_DMA,"ax",%progbits
 2611              		.align	1
 2612              		.global	HAL_I2C_Slave_Receive_DMA
 2613              		.syntax unified
 2614              		.thumb
 2615              		.thumb_func
 2617              	HAL_I2C_Slave_Receive_DMA:
 2618              		@ args = 0, pretend = 0, frame = 24
 2619              		@ frame_needed = 1, uses_anonymous_args = 0
 2620 0000 80B5     		push	{r7, lr}
 2621 0002 86B0     		sub	sp, sp, #24
 2622 0004 00AF     		add	r7, sp, #0
 2623 0006 F860     		str	r0, [r7, #12]
 2624 0008 B960     		str	r1, [r7, #8]
 2625 000a 1346     		mov	r3, r2
 2626 000c FB80     		strh	r3, [r7, #6]	@ movhi
 2627 000e FB68     		ldr	r3, [r7, #12]
 2628 0010 93F84130 		ldrb	r3, [r3, #65]
 2629 0014 DBB2     		uxtb	r3, r3
 2630 0016 202B     		cmp	r3, #32
 2631 0018 40F09B80 		bne	.L161
 2632 001c BB68     		ldr	r3, [r7, #8]
 2633 001e 002B     		cmp	r3, #0
 2634 0020 02D0     		beq	.L162
 2635 0022 FB88     		ldrh	r3, [r7, #6]
 2636 0024 002B     		cmp	r3, #0
 2637 0026 05D1     		bne	.L163
 2638              	.L162:
 2639 0028 FB68     		ldr	r3, [r7, #12]
 2640 002a 4FF40072 		mov	r2, #512
 2641 002e 5A64     		str	r2, [r3, #68]
 2642 0030 0123     		movs	r3, #1
 2643 0032 8FE0     		b	.L164
 2644              	.L163:
 2645 0034 FB68     		ldr	r3, [r7, #12]
 2646 0036 93F84030 		ldrb	r3, [r3, #64]	@ zero_extendqisi2
 2647 003a 012B     		cmp	r3, #1
 2648 003c 01D1     		bne	.L165
 2649 003e 0223     		movs	r3, #2
 2650 0040 88E0     		b	.L164
 2651              	.L165:
 2652 0042 FB68     		ldr	r3, [r7, #12]
 2653 0044 0122     		movs	r2, #1
ARM GAS  /var/folders/k1/1yttftd15rl7jxtpyc5m93n80000gn/T//ccqqVpOc.s 			page 47


 2654 0046 83F84020 		strb	r2, [r3, #64]
 2655 004a FB68     		ldr	r3, [r7, #12]
 2656 004c 2222     		movs	r2, #34
 2657 004e 83F84120 		strb	r2, [r3, #65]
 2658 0052 FB68     		ldr	r3, [r7, #12]
 2659 0054 2022     		movs	r2, #32
 2660 0056 83F84220 		strb	r2, [r3, #66]
 2661 005a FB68     		ldr	r3, [r7, #12]
 2662 005c 0022     		movs	r2, #0
 2663 005e 5A64     		str	r2, [r3, #68]
 2664 0060 FB68     		ldr	r3, [r7, #12]
 2665 0062 BA68     		ldr	r2, [r7, #8]
 2666 0064 5A62     		str	r2, [r3, #36]
 2667 0066 FB68     		ldr	r3, [r7, #12]
 2668 0068 FA88     		ldrh	r2, [r7, #6]	@ movhi
 2669 006a 5A85     		strh	r2, [r3, #42]	@ movhi
 2670 006c FB68     		ldr	r3, [r7, #12]
 2671 006e 5B8D     		ldrh	r3, [r3, #42]	@ movhi
 2672 0070 9AB2     		uxth	r2, r3
 2673 0072 FB68     		ldr	r3, [r7, #12]
 2674 0074 1A85     		strh	r2, [r3, #40]	@ movhi
 2675 0076 FB68     		ldr	r3, [r7, #12]
 2676 0078 384A     		ldr	r2, .L171
 2677 007a DA62     		str	r2, [r3, #44]
 2678 007c FB68     		ldr	r3, [r7, #12]
 2679 007e 384A     		ldr	r2, .L171+4
 2680 0080 5A63     		str	r2, [r3, #52]
 2681 0082 FB68     		ldr	r3, [r7, #12]
 2682 0084 DB6B     		ldr	r3, [r3, #60]
 2683 0086 002B     		cmp	r3, #0
 2684 0088 20D0     		beq	.L166
 2685 008a FB68     		ldr	r3, [r7, #12]
 2686 008c DB6B     		ldr	r3, [r3, #60]
 2687 008e 354A     		ldr	r2, .L171+8
 2688 0090 DA62     		str	r2, [r3, #44]
 2689 0092 FB68     		ldr	r3, [r7, #12]
 2690 0094 DB6B     		ldr	r3, [r3, #60]
 2691 0096 344A     		ldr	r2, .L171+12
 2692 0098 5A63     		str	r2, [r3, #52]
 2693 009a FB68     		ldr	r3, [r7, #12]
 2694 009c DB6B     		ldr	r3, [r3, #60]
 2695 009e 0022     		movs	r2, #0
 2696 00a0 1A63     		str	r2, [r3, #48]
 2697 00a2 FB68     		ldr	r3, [r7, #12]
 2698 00a4 DB6B     		ldr	r3, [r3, #60]
 2699 00a6 0022     		movs	r2, #0
 2700 00a8 9A63     		str	r2, [r3, #56]
 2701 00aa FB68     		ldr	r3, [r7, #12]
 2702 00ac D86B     		ldr	r0, [r3, #60]
 2703 00ae FB68     		ldr	r3, [r7, #12]
 2704 00b0 1B68     		ldr	r3, [r3]
 2705 00b2 2433     		adds	r3, r3, #36
 2706 00b4 1946     		mov	r1, r3
 2707 00b6 BA68     		ldr	r2, [r7, #8]
 2708 00b8 FB68     		ldr	r3, [r7, #12]
 2709 00ba 1B8D     		ldrh	r3, [r3, #40]
 2710 00bc FFF7FEFF 		bl	HAL_DMA_Start_IT
ARM GAS  /var/folders/k1/1yttftd15rl7jxtpyc5m93n80000gn/T//ccqqVpOc.s 			page 48


 2711 00c0 0346     		mov	r3, r0
 2712 00c2 FB75     		strb	r3, [r7, #23]
 2713 00c4 FB7D     		ldrb	r3, [r7, #23]	@ zero_extendqisi2
 2714 00c6 002B     		cmp	r3, #0
 2715 00c8 2FD1     		bne	.L168
 2716 00ca 13E0     		b	.L170
 2717              	.L166:
 2718 00cc FB68     		ldr	r3, [r7, #12]
 2719 00ce 2822     		movs	r2, #40
 2720 00d0 83F84120 		strb	r2, [r3, #65]
 2721 00d4 FB68     		ldr	r3, [r7, #12]
 2722 00d6 0022     		movs	r2, #0
 2723 00d8 83F84220 		strb	r2, [r3, #66]
 2724 00dc FB68     		ldr	r3, [r7, #12]
 2725 00de 5B6C     		ldr	r3, [r3, #68]
 2726 00e0 43F08002 		orr	r2, r3, #128
 2727 00e4 FB68     		ldr	r3, [r7, #12]
 2728 00e6 5A64     		str	r2, [r3, #68]
 2729 00e8 FB68     		ldr	r3, [r7, #12]
 2730 00ea 0022     		movs	r2, #0
 2731 00ec 83F84020 		strb	r2, [r3, #64]
 2732 00f0 0123     		movs	r3, #1
 2733 00f2 2FE0     		b	.L164
 2734              	.L170:
 2735 00f4 FB68     		ldr	r3, [r7, #12]
 2736 00f6 1B68     		ldr	r3, [r3]
 2737 00f8 5A68     		ldr	r2, [r3, #4]
 2738 00fa FB68     		ldr	r3, [r7, #12]
 2739 00fc 1B68     		ldr	r3, [r3]
 2740 00fe 22F40042 		bic	r2, r2, #32768
 2741 0102 5A60     		str	r2, [r3, #4]
 2742 0104 FB68     		ldr	r3, [r7, #12]
 2743 0106 0022     		movs	r2, #0
 2744 0108 83F84020 		strb	r2, [r3, #64]
 2745 010c 4FF40041 		mov	r1, #32768
 2746 0110 F868     		ldr	r0, [r7, #12]
 2747 0112 FFF7FEFF 		bl	I2C_Enable_IRQ
 2748 0116 FB68     		ldr	r3, [r7, #12]
 2749 0118 1B68     		ldr	r3, [r3]
 2750 011a 1A68     		ldr	r2, [r3]
 2751 011c FB68     		ldr	r3, [r7, #12]
 2752 011e 1B68     		ldr	r3, [r3]
 2753 0120 42F40042 		orr	r2, r2, #32768
 2754 0124 1A60     		str	r2, [r3]
 2755 0126 0023     		movs	r3, #0
 2756 0128 14E0     		b	.L164
 2757              	.L168:
 2758 012a FB68     		ldr	r3, [r7, #12]
 2759 012c 2822     		movs	r2, #40
 2760 012e 83F84120 		strb	r2, [r3, #65]
 2761 0132 FB68     		ldr	r3, [r7, #12]
 2762 0134 0022     		movs	r2, #0
 2763 0136 83F84220 		strb	r2, [r3, #66]
 2764 013a FB68     		ldr	r3, [r7, #12]
 2765 013c 5B6C     		ldr	r3, [r3, #68]
 2766 013e 43F01002 		orr	r2, r3, #16
 2767 0142 FB68     		ldr	r3, [r7, #12]
ARM GAS  /var/folders/k1/1yttftd15rl7jxtpyc5m93n80000gn/T//ccqqVpOc.s 			page 49


 2768 0144 5A64     		str	r2, [r3, #68]
 2769 0146 FB68     		ldr	r3, [r7, #12]
 2770 0148 0022     		movs	r2, #0
 2771 014a 83F84020 		strb	r2, [r3, #64]
 2772 014e 0123     		movs	r3, #1
 2773 0150 00E0     		b	.L164
 2774              	.L161:
 2775 0152 0223     		movs	r3, #2
 2776              	.L164:
 2777 0154 1846     		mov	r0, r3
 2778 0156 1837     		adds	r7, r7, #24
 2779 0158 BD46     		mov	sp, r7
 2780              		@ sp needed
 2781 015a 80BD     		pop	{r7, pc}
 2782              	.L172:
 2783              		.align	2
 2784              	.L171:
 2785 015c 0000FFFF 		.word	-65536
 2786 0160 00000000 		.word	I2C_Slave_ISR_DMA
 2787 0164 00000000 		.word	I2C_DMASlaveReceiveCplt
 2788 0168 00000000 		.word	I2C_DMAError
 2790              		.section	.text.HAL_I2C_Mem_Write,"ax",%progbits
 2791              		.align	1
 2792              		.global	HAL_I2C_Mem_Write
 2793              		.syntax unified
 2794              		.thumb
 2795              		.thumb_func
 2797              	HAL_I2C_Mem_Write:
 2798              		@ args = 12, pretend = 0, frame = 24
 2799              		@ frame_needed = 1, uses_anonymous_args = 0
 2800 0000 80B5     		push	{r7, lr}
 2801 0002 88B0     		sub	sp, sp, #32
 2802 0004 02AF     		add	r7, sp, #8
 2803 0006 F860     		str	r0, [r7, #12]
 2804 0008 0846     		mov	r0, r1
 2805 000a 1146     		mov	r1, r2
 2806 000c 1A46     		mov	r2, r3
 2807 000e 0346     		mov	r3, r0	@ movhi
 2808 0010 7B81     		strh	r3, [r7, #10]	@ movhi
 2809 0012 0B46     		mov	r3, r1	@ movhi
 2810 0014 3B81     		strh	r3, [r7, #8]	@ movhi
 2811 0016 1346     		mov	r3, r2	@ movhi
 2812 0018 FB80     		strh	r3, [r7, #6]	@ movhi
 2813 001a FB68     		ldr	r3, [r7, #12]
 2814 001c 93F84130 		ldrb	r3, [r3, #65]
 2815 0020 DBB2     		uxtb	r3, r3
 2816 0022 202B     		cmp	r3, #32
 2817 0024 40F0F980 		bne	.L174
 2818 0028 3B6A     		ldr	r3, [r7, #32]
 2819 002a 002B     		cmp	r3, #0
 2820 002c 02D0     		beq	.L175
 2821 002e BB8C     		ldrh	r3, [r7, #36]
 2822 0030 002B     		cmp	r3, #0
 2823 0032 05D1     		bne	.L176
 2824              	.L175:
 2825 0034 FB68     		ldr	r3, [r7, #12]
 2826 0036 4FF40072 		mov	r2, #512
ARM GAS  /var/folders/k1/1yttftd15rl7jxtpyc5m93n80000gn/T//ccqqVpOc.s 			page 50


 2827 003a 5A64     		str	r2, [r3, #68]
 2828 003c 0123     		movs	r3, #1
 2829 003e EDE0     		b	.L177
 2830              	.L176:
 2831 0040 FB68     		ldr	r3, [r7, #12]
 2832 0042 93F84030 		ldrb	r3, [r3, #64]	@ zero_extendqisi2
 2833 0046 012B     		cmp	r3, #1
 2834 0048 01D1     		bne	.L178
 2835 004a 0223     		movs	r3, #2
 2836 004c E6E0     		b	.L177
 2837              	.L178:
 2838 004e FB68     		ldr	r3, [r7, #12]
 2839 0050 0122     		movs	r2, #1
 2840 0052 83F84020 		strb	r2, [r3, #64]
 2841 0056 FFF7FEFF 		bl	HAL_GetTick
 2842 005a 7861     		str	r0, [r7, #20]
 2843 005c 7B69     		ldr	r3, [r7, #20]
 2844 005e 0093     		str	r3, [sp]
 2845 0060 1923     		movs	r3, #25
 2846 0062 0122     		movs	r2, #1
 2847 0064 4FF40041 		mov	r1, #32768
 2848 0068 F868     		ldr	r0, [r7, #12]
 2849 006a FFF7FEFF 		bl	I2C_WaitOnFlagUntilTimeout
 2850 006e 0346     		mov	r3, r0
 2851 0070 002B     		cmp	r3, #0
 2852 0072 01D0     		beq	.L179
 2853 0074 0123     		movs	r3, #1
 2854 0076 D1E0     		b	.L177
 2855              	.L179:
 2856 0078 FB68     		ldr	r3, [r7, #12]
 2857 007a 2122     		movs	r2, #33
 2858 007c 83F84120 		strb	r2, [r3, #65]
 2859 0080 FB68     		ldr	r3, [r7, #12]
 2860 0082 4022     		movs	r2, #64
 2861 0084 83F84220 		strb	r2, [r3, #66]
 2862 0088 FB68     		ldr	r3, [r7, #12]
 2863 008a 0022     		movs	r2, #0
 2864 008c 5A64     		str	r2, [r3, #68]
 2865 008e FB68     		ldr	r3, [r7, #12]
 2866 0090 3A6A     		ldr	r2, [r7, #32]
 2867 0092 5A62     		str	r2, [r3, #36]
 2868 0094 FB68     		ldr	r3, [r7, #12]
 2869 0096 BA8C     		ldrh	r2, [r7, #36]	@ movhi
 2870 0098 5A85     		strh	r2, [r3, #42]	@ movhi
 2871 009a FB68     		ldr	r3, [r7, #12]
 2872 009c 0022     		movs	r2, #0
 2873 009e 5A63     		str	r2, [r3, #52]
 2874 00a0 F888     		ldrh	r0, [r7, #6]
 2875 00a2 3A89     		ldrh	r2, [r7, #8]
 2876 00a4 7989     		ldrh	r1, [r7, #10]
 2877 00a6 7B69     		ldr	r3, [r7, #20]
 2878 00a8 0193     		str	r3, [sp, #4]
 2879 00aa BB6A     		ldr	r3, [r7, #40]
 2880 00ac 0093     		str	r3, [sp]
 2881 00ae 0346     		mov	r3, r0
 2882 00b0 F868     		ldr	r0, [r7, #12]
 2883 00b2 FFF7FEFF 		bl	I2C_RequestMemoryWrite
ARM GAS  /var/folders/k1/1yttftd15rl7jxtpyc5m93n80000gn/T//ccqqVpOc.s 			page 51


 2884 00b6 0346     		mov	r3, r0
 2885 00b8 002B     		cmp	r3, #0
 2886 00ba 05D0     		beq	.L180
 2887 00bc FB68     		ldr	r3, [r7, #12]
 2888 00be 0022     		movs	r2, #0
 2889 00c0 83F84020 		strb	r2, [r3, #64]
 2890 00c4 0123     		movs	r3, #1
 2891 00c6 A9E0     		b	.L177
 2892              	.L180:
 2893 00c8 FB68     		ldr	r3, [r7, #12]
 2894 00ca 5B8D     		ldrh	r3, [r3, #42]	@ movhi
 2895 00cc 9BB2     		uxth	r3, r3
 2896 00ce FF2B     		cmp	r3, #255
 2897 00d0 0ED9     		bls	.L181
 2898 00d2 FB68     		ldr	r3, [r7, #12]
 2899 00d4 FF22     		movs	r2, #255
 2900 00d6 1A85     		strh	r2, [r3, #40]	@ movhi
 2901 00d8 FB68     		ldr	r3, [r7, #12]
 2902 00da 1B8D     		ldrh	r3, [r3, #40]
 2903 00dc DAB2     		uxtb	r2, r3
 2904 00de 7989     		ldrh	r1, [r7, #10]
 2905 00e0 0023     		movs	r3, #0
 2906 00e2 0093     		str	r3, [sp]
 2907 00e4 4FF08073 		mov	r3, #16777216
 2908 00e8 F868     		ldr	r0, [r7, #12]
 2909 00ea FFF7FEFF 		bl	I2C_TransferConfig
 2910 00ee 0FE0     		b	.L187
 2911              	.L181:
 2912 00f0 FB68     		ldr	r3, [r7, #12]
 2913 00f2 5B8D     		ldrh	r3, [r3, #42]	@ movhi
 2914 00f4 9AB2     		uxth	r2, r3
 2915 00f6 FB68     		ldr	r3, [r7, #12]
 2916 00f8 1A85     		strh	r2, [r3, #40]	@ movhi
 2917 00fa FB68     		ldr	r3, [r7, #12]
 2918 00fc 1B8D     		ldrh	r3, [r3, #40]
 2919 00fe DAB2     		uxtb	r2, r3
 2920 0100 7989     		ldrh	r1, [r7, #10]
 2921 0102 0023     		movs	r3, #0
 2922 0104 0093     		str	r3, [sp]
 2923 0106 4FF00073 		mov	r3, #33554432
 2924 010a F868     		ldr	r0, [r7, #12]
 2925 010c FFF7FEFF 		bl	I2C_TransferConfig
 2926              	.L187:
 2927 0110 7A69     		ldr	r2, [r7, #20]
 2928 0112 B96A     		ldr	r1, [r7, #40]
 2929 0114 F868     		ldr	r0, [r7, #12]
 2930 0116 FFF7FEFF 		bl	I2C_WaitOnTXISFlagUntilTimeout
 2931 011a 0346     		mov	r3, r0
 2932 011c 002B     		cmp	r3, #0
 2933 011e 01D0     		beq	.L183
 2934 0120 0123     		movs	r3, #1
 2935 0122 7BE0     		b	.L177
 2936              	.L183:
 2937 0124 FB68     		ldr	r3, [r7, #12]
 2938 0126 5B6A     		ldr	r3, [r3, #36]
 2939 0128 1A78     		ldrb	r2, [r3]	@ zero_extendqisi2
 2940 012a FB68     		ldr	r3, [r7, #12]
ARM GAS  /var/folders/k1/1yttftd15rl7jxtpyc5m93n80000gn/T//ccqqVpOc.s 			page 52


 2941 012c 1B68     		ldr	r3, [r3]
 2942 012e 9A62     		str	r2, [r3, #40]
 2943 0130 FB68     		ldr	r3, [r7, #12]
 2944 0132 5B6A     		ldr	r3, [r3, #36]
 2945 0134 5A1C     		adds	r2, r3, #1
 2946 0136 FB68     		ldr	r3, [r7, #12]
 2947 0138 5A62     		str	r2, [r3, #36]
 2948 013a FB68     		ldr	r3, [r7, #12]
 2949 013c 5B8D     		ldrh	r3, [r3, #42]	@ movhi
 2950 013e 9BB2     		uxth	r3, r3
 2951 0140 013B     		subs	r3, r3, #1
 2952 0142 9AB2     		uxth	r2, r3
 2953 0144 FB68     		ldr	r3, [r7, #12]
 2954 0146 5A85     		strh	r2, [r3, #42]	@ movhi
 2955 0148 FB68     		ldr	r3, [r7, #12]
 2956 014a 1B8D     		ldrh	r3, [r3, #40]
 2957 014c 013B     		subs	r3, r3, #1
 2958 014e 9AB2     		uxth	r2, r3
 2959 0150 FB68     		ldr	r3, [r7, #12]
 2960 0152 1A85     		strh	r2, [r3, #40]	@ movhi
 2961 0154 FB68     		ldr	r3, [r7, #12]
 2962 0156 5B8D     		ldrh	r3, [r3, #42]	@ movhi
 2963 0158 9BB2     		uxth	r3, r3
 2964 015a 002B     		cmp	r3, #0
 2965 015c 34D0     		beq	.L184
 2966 015e FB68     		ldr	r3, [r7, #12]
 2967 0160 1B8D     		ldrh	r3, [r3, #40]
 2968 0162 002B     		cmp	r3, #0
 2969 0164 30D1     		bne	.L184
 2970 0166 7B69     		ldr	r3, [r7, #20]
 2971 0168 0093     		str	r3, [sp]
 2972 016a BB6A     		ldr	r3, [r7, #40]
 2973 016c 0022     		movs	r2, #0
 2974 016e 8021     		movs	r1, #128
 2975 0170 F868     		ldr	r0, [r7, #12]
 2976 0172 FFF7FEFF 		bl	I2C_WaitOnFlagUntilTimeout
 2977 0176 0346     		mov	r3, r0
 2978 0178 002B     		cmp	r3, #0
 2979 017a 01D0     		beq	.L185
 2980 017c 0123     		movs	r3, #1
 2981 017e 4DE0     		b	.L177
 2982              	.L185:
 2983 0180 FB68     		ldr	r3, [r7, #12]
 2984 0182 5B8D     		ldrh	r3, [r3, #42]	@ movhi
 2985 0184 9BB2     		uxth	r3, r3
 2986 0186 FF2B     		cmp	r3, #255
 2987 0188 0ED9     		bls	.L186
 2988 018a FB68     		ldr	r3, [r7, #12]
 2989 018c FF22     		movs	r2, #255
 2990 018e 1A85     		strh	r2, [r3, #40]	@ movhi
 2991 0190 FB68     		ldr	r3, [r7, #12]
 2992 0192 1B8D     		ldrh	r3, [r3, #40]
 2993 0194 DAB2     		uxtb	r2, r3
 2994 0196 7989     		ldrh	r1, [r7, #10]
 2995 0198 0023     		movs	r3, #0
 2996 019a 0093     		str	r3, [sp]
 2997 019c 4FF08073 		mov	r3, #16777216
ARM GAS  /var/folders/k1/1yttftd15rl7jxtpyc5m93n80000gn/T//ccqqVpOc.s 			page 53


 2998 01a0 F868     		ldr	r0, [r7, #12]
 2999 01a2 FFF7FEFF 		bl	I2C_TransferConfig
 3000 01a6 0FE0     		b	.L184
 3001              	.L186:
 3002 01a8 FB68     		ldr	r3, [r7, #12]
 3003 01aa 5B8D     		ldrh	r3, [r3, #42]	@ movhi
 3004 01ac 9AB2     		uxth	r2, r3
 3005 01ae FB68     		ldr	r3, [r7, #12]
 3006 01b0 1A85     		strh	r2, [r3, #40]	@ movhi
 3007 01b2 FB68     		ldr	r3, [r7, #12]
 3008 01b4 1B8D     		ldrh	r3, [r3, #40]
 3009 01b6 DAB2     		uxtb	r2, r3
 3010 01b8 7989     		ldrh	r1, [r7, #10]
 3011 01ba 0023     		movs	r3, #0
 3012 01bc 0093     		str	r3, [sp]
 3013 01be 4FF00073 		mov	r3, #33554432
 3014 01c2 F868     		ldr	r0, [r7, #12]
 3015 01c4 FFF7FEFF 		bl	I2C_TransferConfig
 3016              	.L184:
 3017 01c8 FB68     		ldr	r3, [r7, #12]
 3018 01ca 5B8D     		ldrh	r3, [r3, #42]	@ movhi
 3019 01cc 9BB2     		uxth	r3, r3
 3020 01ce 002B     		cmp	r3, #0
 3021 01d0 9ED1     		bne	.L187
 3022 01d2 7A69     		ldr	r2, [r7, #20]
 3023 01d4 B96A     		ldr	r1, [r7, #40]
 3024 01d6 F868     		ldr	r0, [r7, #12]
 3025 01d8 FFF7FEFF 		bl	I2C_WaitOnSTOPFlagUntilTimeout
 3026 01dc 0346     		mov	r3, r0
 3027 01de 002B     		cmp	r3, #0
 3028 01e0 01D0     		beq	.L188
 3029 01e2 0123     		movs	r3, #1
 3030 01e4 1AE0     		b	.L177
 3031              	.L188:
 3032 01e6 FB68     		ldr	r3, [r7, #12]
 3033 01e8 1B68     		ldr	r3, [r3]
 3034 01ea 2022     		movs	r2, #32
 3035 01ec DA61     		str	r2, [r3, #28]
 3036 01ee FB68     		ldr	r3, [r7, #12]
 3037 01f0 1B68     		ldr	r3, [r3]
 3038 01f2 5968     		ldr	r1, [r3, #4]
 3039 01f4 FB68     		ldr	r3, [r7, #12]
 3040 01f6 1A68     		ldr	r2, [r3]
 3041 01f8 0A4B     		ldr	r3, .L189
 3042 01fa 0B40     		ands	r3, r3, r1
 3043 01fc 5360     		str	r3, [r2, #4]
 3044 01fe FB68     		ldr	r3, [r7, #12]
 3045 0200 2022     		movs	r2, #32
 3046 0202 83F84120 		strb	r2, [r3, #65]
 3047 0206 FB68     		ldr	r3, [r7, #12]
 3048 0208 0022     		movs	r2, #0
 3049 020a 83F84220 		strb	r2, [r3, #66]
 3050 020e FB68     		ldr	r3, [r7, #12]
 3051 0210 0022     		movs	r2, #0
 3052 0212 83F84020 		strb	r2, [r3, #64]
 3053 0216 0023     		movs	r3, #0
 3054 0218 00E0     		b	.L177
ARM GAS  /var/folders/k1/1yttftd15rl7jxtpyc5m93n80000gn/T//ccqqVpOc.s 			page 54


 3055              	.L174:
 3056 021a 0223     		movs	r3, #2
 3057              	.L177:
 3058 021c 1846     		mov	r0, r3
 3059 021e 1837     		adds	r7, r7, #24
 3060 0220 BD46     		mov	sp, r7
 3061              		@ sp needed
 3062 0222 80BD     		pop	{r7, pc}
 3063              	.L190:
 3064              		.align	2
 3065              	.L189:
 3066 0224 00E800FE 		.word	-33495040
 3068              		.section	.text.HAL_I2C_Mem_Read,"ax",%progbits
 3069              		.align	1
 3070              		.global	HAL_I2C_Mem_Read
 3071              		.syntax unified
 3072              		.thumb
 3073              		.thumb_func
 3075              	HAL_I2C_Mem_Read:
 3076              		@ args = 12, pretend = 0, frame = 24
 3077              		@ frame_needed = 1, uses_anonymous_args = 0
 3078 0000 80B5     		push	{r7, lr}
 3079 0002 88B0     		sub	sp, sp, #32
 3080 0004 02AF     		add	r7, sp, #8
 3081 0006 F860     		str	r0, [r7, #12]
 3082 0008 0846     		mov	r0, r1
 3083 000a 1146     		mov	r1, r2
 3084 000c 1A46     		mov	r2, r3
 3085 000e 0346     		mov	r3, r0	@ movhi
 3086 0010 7B81     		strh	r3, [r7, #10]	@ movhi
 3087 0012 0B46     		mov	r3, r1	@ movhi
 3088 0014 3B81     		strh	r3, [r7, #8]	@ movhi
 3089 0016 1346     		mov	r3, r2	@ movhi
 3090 0018 FB80     		strh	r3, [r7, #6]	@ movhi
 3091 001a FB68     		ldr	r3, [r7, #12]
 3092 001c 93F84130 		ldrb	r3, [r3, #65]
 3093 0020 DBB2     		uxtb	r3, r3
 3094 0022 202B     		cmp	r3, #32
 3095 0024 40F0FD80 		bne	.L192
 3096 0028 3B6A     		ldr	r3, [r7, #32]
 3097 002a 002B     		cmp	r3, #0
 3098 002c 02D0     		beq	.L193
 3099 002e BB8C     		ldrh	r3, [r7, #36]
 3100 0030 002B     		cmp	r3, #0
 3101 0032 05D1     		bne	.L194
 3102              	.L193:
 3103 0034 FB68     		ldr	r3, [r7, #12]
 3104 0036 4FF40072 		mov	r2, #512
 3105 003a 5A64     		str	r2, [r3, #68]
 3106 003c 0123     		movs	r3, #1
 3107 003e F1E0     		b	.L195
 3108              	.L194:
 3109 0040 FB68     		ldr	r3, [r7, #12]
 3110 0042 93F84030 		ldrb	r3, [r3, #64]	@ zero_extendqisi2
 3111 0046 012B     		cmp	r3, #1
 3112 0048 01D1     		bne	.L196
 3113 004a 0223     		movs	r3, #2
ARM GAS  /var/folders/k1/1yttftd15rl7jxtpyc5m93n80000gn/T//ccqqVpOc.s 			page 55


 3114 004c EAE0     		b	.L195
 3115              	.L196:
 3116 004e FB68     		ldr	r3, [r7, #12]
 3117 0050 0122     		movs	r2, #1
 3118 0052 83F84020 		strb	r2, [r3, #64]
 3119 0056 FFF7FEFF 		bl	HAL_GetTick
 3120 005a 7861     		str	r0, [r7, #20]
 3121 005c 7B69     		ldr	r3, [r7, #20]
 3122 005e 0093     		str	r3, [sp]
 3123 0060 1923     		movs	r3, #25
 3124 0062 0122     		movs	r2, #1
 3125 0064 4FF40041 		mov	r1, #32768
 3126 0068 F868     		ldr	r0, [r7, #12]
 3127 006a FFF7FEFF 		bl	I2C_WaitOnFlagUntilTimeout
 3128 006e 0346     		mov	r3, r0
 3129 0070 002B     		cmp	r3, #0
 3130 0072 01D0     		beq	.L197
 3131 0074 0123     		movs	r3, #1
 3132 0076 D5E0     		b	.L195
 3133              	.L197:
 3134 0078 FB68     		ldr	r3, [r7, #12]
 3135 007a 2222     		movs	r2, #34
 3136 007c 83F84120 		strb	r2, [r3, #65]
 3137 0080 FB68     		ldr	r3, [r7, #12]
 3138 0082 4022     		movs	r2, #64
 3139 0084 83F84220 		strb	r2, [r3, #66]
 3140 0088 FB68     		ldr	r3, [r7, #12]
 3141 008a 0022     		movs	r2, #0
 3142 008c 5A64     		str	r2, [r3, #68]
 3143 008e FB68     		ldr	r3, [r7, #12]
 3144 0090 3A6A     		ldr	r2, [r7, #32]
 3145 0092 5A62     		str	r2, [r3, #36]
 3146 0094 FB68     		ldr	r3, [r7, #12]
 3147 0096 BA8C     		ldrh	r2, [r7, #36]	@ movhi
 3148 0098 5A85     		strh	r2, [r3, #42]	@ movhi
 3149 009a FB68     		ldr	r3, [r7, #12]
 3150 009c 0022     		movs	r2, #0
 3151 009e 5A63     		str	r2, [r3, #52]
 3152 00a0 F888     		ldrh	r0, [r7, #6]
 3153 00a2 3A89     		ldrh	r2, [r7, #8]
 3154 00a4 7989     		ldrh	r1, [r7, #10]
 3155 00a6 7B69     		ldr	r3, [r7, #20]
 3156 00a8 0193     		str	r3, [sp, #4]
 3157 00aa BB6A     		ldr	r3, [r7, #40]
 3158 00ac 0093     		str	r3, [sp]
 3159 00ae 0346     		mov	r3, r0
 3160 00b0 F868     		ldr	r0, [r7, #12]
 3161 00b2 FFF7FEFF 		bl	I2C_RequestMemoryRead
 3162 00b6 0346     		mov	r3, r0
 3163 00b8 002B     		cmp	r3, #0
 3164 00ba 05D0     		beq	.L198
 3165 00bc FB68     		ldr	r3, [r7, #12]
 3166 00be 0022     		movs	r2, #0
 3167 00c0 83F84020 		strb	r2, [r3, #64]
 3168 00c4 0123     		movs	r3, #1
 3169 00c6 ADE0     		b	.L195
 3170              	.L198:
ARM GAS  /var/folders/k1/1yttftd15rl7jxtpyc5m93n80000gn/T//ccqqVpOc.s 			page 56


 3171 00c8 FB68     		ldr	r3, [r7, #12]
 3172 00ca 5B8D     		ldrh	r3, [r3, #42]	@ movhi
 3173 00cc 9BB2     		uxth	r3, r3
 3174 00ce FF2B     		cmp	r3, #255
 3175 00d0 0ED9     		bls	.L199
 3176 00d2 FB68     		ldr	r3, [r7, #12]
 3177 00d4 FF22     		movs	r2, #255
 3178 00d6 1A85     		strh	r2, [r3, #40]	@ movhi
 3179 00d8 FB68     		ldr	r3, [r7, #12]
 3180 00da 1B8D     		ldrh	r3, [r3, #40]
 3181 00dc DAB2     		uxtb	r2, r3
 3182 00de 7989     		ldrh	r1, [r7, #10]
 3183 00e0 524B     		ldr	r3, .L207
 3184 00e2 0093     		str	r3, [sp]
 3185 00e4 4FF08073 		mov	r3, #16777216
 3186 00e8 F868     		ldr	r0, [r7, #12]
 3187 00ea FFF7FEFF 		bl	I2C_TransferConfig
 3188 00ee 0FE0     		b	.L205
 3189              	.L199:
 3190 00f0 FB68     		ldr	r3, [r7, #12]
 3191 00f2 5B8D     		ldrh	r3, [r3, #42]	@ movhi
 3192 00f4 9AB2     		uxth	r2, r3
 3193 00f6 FB68     		ldr	r3, [r7, #12]
 3194 00f8 1A85     		strh	r2, [r3, #40]	@ movhi
 3195 00fa FB68     		ldr	r3, [r7, #12]
 3196 00fc 1B8D     		ldrh	r3, [r3, #40]
 3197 00fe DAB2     		uxtb	r2, r3
 3198 0100 7989     		ldrh	r1, [r7, #10]
 3199 0102 4A4B     		ldr	r3, .L207
 3200 0104 0093     		str	r3, [sp]
 3201 0106 4FF00073 		mov	r3, #33554432
 3202 010a F868     		ldr	r0, [r7, #12]
 3203 010c FFF7FEFF 		bl	I2C_TransferConfig
 3204              	.L205:
 3205 0110 7B69     		ldr	r3, [r7, #20]
 3206 0112 0093     		str	r3, [sp]
 3207 0114 BB6A     		ldr	r3, [r7, #40]
 3208 0116 0022     		movs	r2, #0
 3209 0118 0421     		movs	r1, #4
 3210 011a F868     		ldr	r0, [r7, #12]
 3211 011c FFF7FEFF 		bl	I2C_WaitOnFlagUntilTimeout
 3212 0120 0346     		mov	r3, r0
 3213 0122 002B     		cmp	r3, #0
 3214 0124 01D0     		beq	.L201
 3215 0126 0123     		movs	r3, #1
 3216 0128 7CE0     		b	.L195
 3217              	.L201:
 3218 012a FB68     		ldr	r3, [r7, #12]
 3219 012c 1B68     		ldr	r3, [r3]
 3220 012e 5A6A     		ldr	r2, [r3, #36]
 3221 0130 FB68     		ldr	r3, [r7, #12]
 3222 0132 5B6A     		ldr	r3, [r3, #36]
 3223 0134 D2B2     		uxtb	r2, r2
 3224 0136 1A70     		strb	r2, [r3]
 3225 0138 FB68     		ldr	r3, [r7, #12]
 3226 013a 5B6A     		ldr	r3, [r3, #36]
 3227 013c 5A1C     		adds	r2, r3, #1
ARM GAS  /var/folders/k1/1yttftd15rl7jxtpyc5m93n80000gn/T//ccqqVpOc.s 			page 57


 3228 013e FB68     		ldr	r3, [r7, #12]
 3229 0140 5A62     		str	r2, [r3, #36]
 3230 0142 FB68     		ldr	r3, [r7, #12]
 3231 0144 1B8D     		ldrh	r3, [r3, #40]
 3232 0146 013B     		subs	r3, r3, #1
 3233 0148 9AB2     		uxth	r2, r3
 3234 014a FB68     		ldr	r3, [r7, #12]
 3235 014c 1A85     		strh	r2, [r3, #40]	@ movhi
 3236 014e FB68     		ldr	r3, [r7, #12]
 3237 0150 5B8D     		ldrh	r3, [r3, #42]	@ movhi
 3238 0152 9BB2     		uxth	r3, r3
 3239 0154 013B     		subs	r3, r3, #1
 3240 0156 9AB2     		uxth	r2, r3
 3241 0158 FB68     		ldr	r3, [r7, #12]
 3242 015a 5A85     		strh	r2, [r3, #42]	@ movhi
 3243 015c FB68     		ldr	r3, [r7, #12]
 3244 015e 5B8D     		ldrh	r3, [r3, #42]	@ movhi
 3245 0160 9BB2     		uxth	r3, r3
 3246 0162 002B     		cmp	r3, #0
 3247 0164 34D0     		beq	.L202
 3248 0166 FB68     		ldr	r3, [r7, #12]
 3249 0168 1B8D     		ldrh	r3, [r3, #40]
 3250 016a 002B     		cmp	r3, #0
 3251 016c 30D1     		bne	.L202
 3252 016e 7B69     		ldr	r3, [r7, #20]
 3253 0170 0093     		str	r3, [sp]
 3254 0172 BB6A     		ldr	r3, [r7, #40]
 3255 0174 0022     		movs	r2, #0
 3256 0176 8021     		movs	r1, #128
 3257 0178 F868     		ldr	r0, [r7, #12]
 3258 017a FFF7FEFF 		bl	I2C_WaitOnFlagUntilTimeout
 3259 017e 0346     		mov	r3, r0
 3260 0180 002B     		cmp	r3, #0
 3261 0182 01D0     		beq	.L203
 3262 0184 0123     		movs	r3, #1
 3263 0186 4DE0     		b	.L195
 3264              	.L203:
 3265 0188 FB68     		ldr	r3, [r7, #12]
 3266 018a 5B8D     		ldrh	r3, [r3, #42]	@ movhi
 3267 018c 9BB2     		uxth	r3, r3
 3268 018e FF2B     		cmp	r3, #255
 3269 0190 0ED9     		bls	.L204
 3270 0192 FB68     		ldr	r3, [r7, #12]
 3271 0194 FF22     		movs	r2, #255
 3272 0196 1A85     		strh	r2, [r3, #40]	@ movhi
 3273 0198 FB68     		ldr	r3, [r7, #12]
 3274 019a 1B8D     		ldrh	r3, [r3, #40]
 3275 019c DAB2     		uxtb	r2, r3
 3276 019e 7989     		ldrh	r1, [r7, #10]
 3277 01a0 0023     		movs	r3, #0
 3278 01a2 0093     		str	r3, [sp]
 3279 01a4 4FF08073 		mov	r3, #16777216
 3280 01a8 F868     		ldr	r0, [r7, #12]
 3281 01aa FFF7FEFF 		bl	I2C_TransferConfig
 3282 01ae 0FE0     		b	.L202
 3283              	.L204:
 3284 01b0 FB68     		ldr	r3, [r7, #12]
ARM GAS  /var/folders/k1/1yttftd15rl7jxtpyc5m93n80000gn/T//ccqqVpOc.s 			page 58


 3285 01b2 5B8D     		ldrh	r3, [r3, #42]	@ movhi
 3286 01b4 9AB2     		uxth	r2, r3
 3287 01b6 FB68     		ldr	r3, [r7, #12]
 3288 01b8 1A85     		strh	r2, [r3, #40]	@ movhi
 3289 01ba FB68     		ldr	r3, [r7, #12]
 3290 01bc 1B8D     		ldrh	r3, [r3, #40]
 3291 01be DAB2     		uxtb	r2, r3
 3292 01c0 7989     		ldrh	r1, [r7, #10]
 3293 01c2 0023     		movs	r3, #0
 3294 01c4 0093     		str	r3, [sp]
 3295 01c6 4FF00073 		mov	r3, #33554432
 3296 01ca F868     		ldr	r0, [r7, #12]
 3297 01cc FFF7FEFF 		bl	I2C_TransferConfig
 3298              	.L202:
 3299 01d0 FB68     		ldr	r3, [r7, #12]
 3300 01d2 5B8D     		ldrh	r3, [r3, #42]	@ movhi
 3301 01d4 9BB2     		uxth	r3, r3
 3302 01d6 002B     		cmp	r3, #0
 3303 01d8 9AD1     		bne	.L205
 3304 01da 7A69     		ldr	r2, [r7, #20]
 3305 01dc B96A     		ldr	r1, [r7, #40]
 3306 01de F868     		ldr	r0, [r7, #12]
 3307 01e0 FFF7FEFF 		bl	I2C_WaitOnSTOPFlagUntilTimeout
 3308 01e4 0346     		mov	r3, r0
 3309 01e6 002B     		cmp	r3, #0
 3310 01e8 01D0     		beq	.L206
 3311 01ea 0123     		movs	r3, #1
 3312 01ec 1AE0     		b	.L195
 3313              	.L206:
 3314 01ee FB68     		ldr	r3, [r7, #12]
 3315 01f0 1B68     		ldr	r3, [r3]
 3316 01f2 2022     		movs	r2, #32
 3317 01f4 DA61     		str	r2, [r3, #28]
 3318 01f6 FB68     		ldr	r3, [r7, #12]
 3319 01f8 1B68     		ldr	r3, [r3]
 3320 01fa 5968     		ldr	r1, [r3, #4]
 3321 01fc FB68     		ldr	r3, [r7, #12]
 3322 01fe 1A68     		ldr	r2, [r3]
 3323 0200 0B4B     		ldr	r3, .L207+4
 3324 0202 0B40     		ands	r3, r3, r1
 3325 0204 5360     		str	r3, [r2, #4]
 3326 0206 FB68     		ldr	r3, [r7, #12]
 3327 0208 2022     		movs	r2, #32
 3328 020a 83F84120 		strb	r2, [r3, #65]
 3329 020e FB68     		ldr	r3, [r7, #12]
 3330 0210 0022     		movs	r2, #0
 3331 0212 83F84220 		strb	r2, [r3, #66]
 3332 0216 FB68     		ldr	r3, [r7, #12]
 3333 0218 0022     		movs	r2, #0
 3334 021a 83F84020 		strb	r2, [r3, #64]
 3335 021e 0023     		movs	r3, #0
 3336 0220 00E0     		b	.L195
 3337              	.L192:
 3338 0222 0223     		movs	r3, #2
 3339              	.L195:
 3340 0224 1846     		mov	r0, r3
 3341 0226 1837     		adds	r7, r7, #24
ARM GAS  /var/folders/k1/1yttftd15rl7jxtpyc5m93n80000gn/T//ccqqVpOc.s 			page 59


 3342 0228 BD46     		mov	sp, r7
 3343              		@ sp needed
 3344 022a 80BD     		pop	{r7, pc}
 3345              	.L208:
 3346              		.align	2
 3347              	.L207:
 3348 022c 00240080 		.word	-2147474432
 3349 0230 00E800FE 		.word	-33495040
 3351              		.section	.text.HAL_I2C_Mem_Write_IT,"ax",%progbits
 3352              		.align	1
 3353              		.global	HAL_I2C_Mem_Write_IT
 3354              		.syntax unified
 3355              		.thumb
 3356              		.thumb_func
 3358              	HAL_I2C_Mem_Write_IT:
 3359              		@ args = 8, pretend = 0, frame = 16
 3360              		@ frame_needed = 1, uses_anonymous_args = 0
 3361 0000 80B5     		push	{r7, lr}
 3362 0002 86B0     		sub	sp, sp, #24
 3363 0004 02AF     		add	r7, sp, #8
 3364 0006 F860     		str	r0, [r7, #12]
 3365 0008 0846     		mov	r0, r1
 3366 000a 1146     		mov	r1, r2
 3367 000c 1A46     		mov	r2, r3
 3368 000e 0346     		mov	r3, r0	@ movhi
 3369 0010 7B81     		strh	r3, [r7, #10]	@ movhi
 3370 0012 0B46     		mov	r3, r1	@ movhi
 3371 0014 3B81     		strh	r3, [r7, #8]	@ movhi
 3372 0016 1346     		mov	r3, r2	@ movhi
 3373 0018 FB80     		strh	r3, [r7, #6]	@ movhi
 3374 001a FB68     		ldr	r3, [r7, #12]
 3375 001c 93F84130 		ldrb	r3, [r3, #65]
 3376 0020 DBB2     		uxtb	r3, r3
 3377 0022 202B     		cmp	r3, #32
 3378 0024 6AD1     		bne	.L210
 3379 0026 BB69     		ldr	r3, [r7, #24]
 3380 0028 002B     		cmp	r3, #0
 3381 002a 02D0     		beq	.L211
 3382 002c BB8B     		ldrh	r3, [r7, #28]
 3383 002e 002B     		cmp	r3, #0
 3384 0030 05D1     		bne	.L212
 3385              	.L211:
 3386 0032 FB68     		ldr	r3, [r7, #12]
 3387 0034 4FF40072 		mov	r2, #512
 3388 0038 5A64     		str	r2, [r3, #68]
 3389 003a 0123     		movs	r3, #1
 3390 003c 5FE0     		b	.L213
 3391              	.L212:
 3392 003e FB68     		ldr	r3, [r7, #12]
 3393 0040 1B68     		ldr	r3, [r3]
 3394 0042 9B69     		ldr	r3, [r3, #24]
 3395 0044 03F40043 		and	r3, r3, #32768
 3396 0048 B3F5004F 		cmp	r3, #32768
 3397 004c 01D1     		bne	.L214
 3398 004e 0223     		movs	r3, #2
 3399 0050 55E0     		b	.L213
 3400              	.L214:
ARM GAS  /var/folders/k1/1yttftd15rl7jxtpyc5m93n80000gn/T//ccqqVpOc.s 			page 60


 3401 0052 FB68     		ldr	r3, [r7, #12]
 3402 0054 93F84030 		ldrb	r3, [r3, #64]	@ zero_extendqisi2
 3403 0058 012B     		cmp	r3, #1
 3404 005a 01D1     		bne	.L215
 3405 005c 0223     		movs	r3, #2
 3406 005e 4EE0     		b	.L213
 3407              	.L215:
 3408 0060 FB68     		ldr	r3, [r7, #12]
 3409 0062 0122     		movs	r2, #1
 3410 0064 83F84020 		strb	r2, [r3, #64]
 3411 0068 FB68     		ldr	r3, [r7, #12]
 3412 006a 2122     		movs	r2, #33
 3413 006c 83F84120 		strb	r2, [r3, #65]
 3414 0070 FB68     		ldr	r3, [r7, #12]
 3415 0072 4022     		movs	r2, #64
 3416 0074 83F84220 		strb	r2, [r3, #66]
 3417 0078 FB68     		ldr	r3, [r7, #12]
 3418 007a 0022     		movs	r2, #0
 3419 007c 5A64     		str	r2, [r3, #68]
 3420 007e FB68     		ldr	r3, [r7, #12]
 3421 0080 0022     		movs	r2, #0
 3422 0082 1A85     		strh	r2, [r3, #40]	@ movhi
 3423 0084 FB68     		ldr	r3, [r7, #12]
 3424 0086 BA69     		ldr	r2, [r7, #24]
 3425 0088 5A62     		str	r2, [r3, #36]
 3426 008a FB68     		ldr	r3, [r7, #12]
 3427 008c BA8B     		ldrh	r2, [r7, #28]	@ movhi
 3428 008e 5A85     		strh	r2, [r3, #42]	@ movhi
 3429 0090 FB68     		ldr	r3, [r7, #12]
 3430 0092 1D4A     		ldr	r2, .L218
 3431 0094 DA62     		str	r2, [r3, #44]
 3432 0096 FB68     		ldr	r3, [r7, #12]
 3433 0098 1C4A     		ldr	r2, .L218+4
 3434 009a 5A63     		str	r2, [r3, #52]
 3435 009c 7A89     		ldrh	r2, [r7, #10]
 3436 009e FB68     		ldr	r3, [r7, #12]
 3437 00a0 DA64     		str	r2, [r3, #76]
 3438 00a2 FB88     		ldrh	r3, [r7, #6]
 3439 00a4 012B     		cmp	r3, #1
 3440 00a6 09D1     		bne	.L216
 3441 00a8 3B89     		ldrh	r3, [r7, #8]	@ movhi
 3442 00aa DAB2     		uxtb	r2, r3
 3443 00ac FB68     		ldr	r3, [r7, #12]
 3444 00ae 1B68     		ldr	r3, [r3]
 3445 00b0 9A62     		str	r2, [r3, #40]
 3446 00b2 FB68     		ldr	r3, [r7, #12]
 3447 00b4 4FF0FF32 		mov	r2, #-1
 3448 00b8 1A65     		str	r2, [r3, #80]
 3449 00ba 0BE0     		b	.L217
 3450              	.L216:
 3451 00bc 3B89     		ldrh	r3, [r7, #8]
 3452 00be 1B0A     		lsrs	r3, r3, #8
 3453 00c0 9BB2     		uxth	r3, r3
 3454 00c2 DAB2     		uxtb	r2, r3
 3455 00c4 FB68     		ldr	r3, [r7, #12]
 3456 00c6 1B68     		ldr	r3, [r3]
 3457 00c8 9A62     		str	r2, [r3, #40]
ARM GAS  /var/folders/k1/1yttftd15rl7jxtpyc5m93n80000gn/T//ccqqVpOc.s 			page 61


 3458 00ca 3B89     		ldrh	r3, [r7, #8]	@ movhi
 3459 00cc DBB2     		uxtb	r3, r3
 3460 00ce 1A46     		mov	r2, r3
 3461 00d0 FB68     		ldr	r3, [r7, #12]
 3462 00d2 1A65     		str	r2, [r3, #80]
 3463              	.L217:
 3464 00d4 FB88     		ldrh	r3, [r7, #6]	@ movhi
 3465 00d6 DAB2     		uxtb	r2, r3
 3466 00d8 7989     		ldrh	r1, [r7, #10]
 3467 00da 0D4B     		ldr	r3, .L218+8
 3468 00dc 0093     		str	r3, [sp]
 3469 00de 4FF08073 		mov	r3, #16777216
 3470 00e2 F868     		ldr	r0, [r7, #12]
 3471 00e4 FFF7FEFF 		bl	I2C_TransferConfig
 3472 00e8 FB68     		ldr	r3, [r7, #12]
 3473 00ea 0022     		movs	r2, #0
 3474 00ec 83F84020 		strb	r2, [r3, #64]
 3475 00f0 0121     		movs	r1, #1
 3476 00f2 F868     		ldr	r0, [r7, #12]
 3477 00f4 FFF7FEFF 		bl	I2C_Enable_IRQ
 3478 00f8 0023     		movs	r3, #0
 3479 00fa 00E0     		b	.L213
 3480              	.L210:
 3481 00fc 0223     		movs	r3, #2
 3482              	.L213:
 3483 00fe 1846     		mov	r0, r3
 3484 0100 1037     		adds	r7, r7, #16
 3485 0102 BD46     		mov	sp, r7
 3486              		@ sp needed
 3487 0104 80BD     		pop	{r7, pc}
 3488              	.L219:
 3489 0106 00BF     		.align	2
 3490              	.L218:
 3491 0108 0000FFFF 		.word	-65536
 3492 010c 00000000 		.word	I2C_Mem_ISR_IT
 3493 0110 00200080 		.word	-2147475456
 3495              		.section	.text.HAL_I2C_Mem_Read_IT,"ax",%progbits
 3496              		.align	1
 3497              		.global	HAL_I2C_Mem_Read_IT
 3498              		.syntax unified
 3499              		.thumb
 3500              		.thumb_func
 3502              	HAL_I2C_Mem_Read_IT:
 3503              		@ args = 8, pretend = 0, frame = 16
 3504              		@ frame_needed = 1, uses_anonymous_args = 0
 3505 0000 80B5     		push	{r7, lr}
 3506 0002 86B0     		sub	sp, sp, #24
 3507 0004 02AF     		add	r7, sp, #8
 3508 0006 F860     		str	r0, [r7, #12]
 3509 0008 0846     		mov	r0, r1
 3510 000a 1146     		mov	r1, r2
 3511 000c 1A46     		mov	r2, r3
 3512 000e 0346     		mov	r3, r0	@ movhi
 3513 0010 7B81     		strh	r3, [r7, #10]	@ movhi
 3514 0012 0B46     		mov	r3, r1	@ movhi
 3515 0014 3B81     		strh	r3, [r7, #8]	@ movhi
 3516 0016 1346     		mov	r3, r2	@ movhi
ARM GAS  /var/folders/k1/1yttftd15rl7jxtpyc5m93n80000gn/T//ccqqVpOc.s 			page 62


 3517 0018 FB80     		strh	r3, [r7, #6]	@ movhi
 3518 001a FB68     		ldr	r3, [r7, #12]
 3519 001c 93F84130 		ldrb	r3, [r3, #65]
 3520 0020 DBB2     		uxtb	r3, r3
 3521 0022 202B     		cmp	r3, #32
 3522 0024 66D1     		bne	.L221
 3523 0026 BB69     		ldr	r3, [r7, #24]
 3524 0028 002B     		cmp	r3, #0
 3525 002a 02D0     		beq	.L222
 3526 002c BB8B     		ldrh	r3, [r7, #28]
 3527 002e 002B     		cmp	r3, #0
 3528 0030 05D1     		bne	.L223
 3529              	.L222:
 3530 0032 FB68     		ldr	r3, [r7, #12]
 3531 0034 4FF40072 		mov	r2, #512
 3532 0038 5A64     		str	r2, [r3, #68]
 3533 003a 0123     		movs	r3, #1
 3534 003c 5BE0     		b	.L224
 3535              	.L223:
 3536 003e FB68     		ldr	r3, [r7, #12]
 3537 0040 1B68     		ldr	r3, [r3]
 3538 0042 9B69     		ldr	r3, [r3, #24]
 3539 0044 03F40043 		and	r3, r3, #32768
 3540 0048 B3F5004F 		cmp	r3, #32768
 3541 004c 01D1     		bne	.L225
 3542 004e 0223     		movs	r3, #2
 3543 0050 51E0     		b	.L224
 3544              	.L225:
 3545 0052 FB68     		ldr	r3, [r7, #12]
 3546 0054 93F84030 		ldrb	r3, [r3, #64]	@ zero_extendqisi2
 3547 0058 012B     		cmp	r3, #1
 3548 005a 01D1     		bne	.L226
 3549 005c 0223     		movs	r3, #2
 3550 005e 4AE0     		b	.L224
 3551              	.L226:
 3552 0060 FB68     		ldr	r3, [r7, #12]
 3553 0062 0122     		movs	r2, #1
 3554 0064 83F84020 		strb	r2, [r3, #64]
 3555 0068 FB68     		ldr	r3, [r7, #12]
 3556 006a 2222     		movs	r2, #34
 3557 006c 83F84120 		strb	r2, [r3, #65]
 3558 0070 FB68     		ldr	r3, [r7, #12]
 3559 0072 4022     		movs	r2, #64
 3560 0074 83F84220 		strb	r2, [r3, #66]
 3561 0078 FB68     		ldr	r3, [r7, #12]
 3562 007a 0022     		movs	r2, #0
 3563 007c 5A64     		str	r2, [r3, #68]
 3564 007e FB68     		ldr	r3, [r7, #12]
 3565 0080 BA69     		ldr	r2, [r7, #24]
 3566 0082 5A62     		str	r2, [r3, #36]
 3567 0084 FB68     		ldr	r3, [r7, #12]
 3568 0086 BA8B     		ldrh	r2, [r7, #28]	@ movhi
 3569 0088 5A85     		strh	r2, [r3, #42]	@ movhi
 3570 008a FB68     		ldr	r3, [r7, #12]
 3571 008c 1C4A     		ldr	r2, .L229
 3572 008e DA62     		str	r2, [r3, #44]
 3573 0090 FB68     		ldr	r3, [r7, #12]
ARM GAS  /var/folders/k1/1yttftd15rl7jxtpyc5m93n80000gn/T//ccqqVpOc.s 			page 63


 3574 0092 1C4A     		ldr	r2, .L229+4
 3575 0094 5A63     		str	r2, [r3, #52]
 3576 0096 7A89     		ldrh	r2, [r7, #10]
 3577 0098 FB68     		ldr	r3, [r7, #12]
 3578 009a DA64     		str	r2, [r3, #76]
 3579 009c FB88     		ldrh	r3, [r7, #6]
 3580 009e 012B     		cmp	r3, #1
 3581 00a0 09D1     		bne	.L227
 3582 00a2 3B89     		ldrh	r3, [r7, #8]	@ movhi
 3583 00a4 DAB2     		uxtb	r2, r3
 3584 00a6 FB68     		ldr	r3, [r7, #12]
 3585 00a8 1B68     		ldr	r3, [r3]
 3586 00aa 9A62     		str	r2, [r3, #40]
 3587 00ac FB68     		ldr	r3, [r7, #12]
 3588 00ae 4FF0FF32 		mov	r2, #-1
 3589 00b2 1A65     		str	r2, [r3, #80]
 3590 00b4 0BE0     		b	.L228
 3591              	.L227:
 3592 00b6 3B89     		ldrh	r3, [r7, #8]
 3593 00b8 1B0A     		lsrs	r3, r3, #8
 3594 00ba 9BB2     		uxth	r3, r3
 3595 00bc DAB2     		uxtb	r2, r3
 3596 00be FB68     		ldr	r3, [r7, #12]
 3597 00c0 1B68     		ldr	r3, [r3]
 3598 00c2 9A62     		str	r2, [r3, #40]
 3599 00c4 3B89     		ldrh	r3, [r7, #8]	@ movhi
 3600 00c6 DBB2     		uxtb	r3, r3
 3601 00c8 1A46     		mov	r2, r3
 3602 00ca FB68     		ldr	r3, [r7, #12]
 3603 00cc 1A65     		str	r2, [r3, #80]
 3604              	.L228:
 3605 00ce FB88     		ldrh	r3, [r7, #6]	@ movhi
 3606 00d0 DAB2     		uxtb	r2, r3
 3607 00d2 7989     		ldrh	r1, [r7, #10]
 3608 00d4 0C4B     		ldr	r3, .L229+8
 3609 00d6 0093     		str	r3, [sp]
 3610 00d8 0023     		movs	r3, #0
 3611 00da F868     		ldr	r0, [r7, #12]
 3612 00dc FFF7FEFF 		bl	I2C_TransferConfig
 3613 00e0 FB68     		ldr	r3, [r7, #12]
 3614 00e2 0022     		movs	r2, #0
 3615 00e4 83F84020 		strb	r2, [r3, #64]
 3616 00e8 0121     		movs	r1, #1
 3617 00ea F868     		ldr	r0, [r7, #12]
 3618 00ec FFF7FEFF 		bl	I2C_Enable_IRQ
 3619 00f0 0023     		movs	r3, #0
 3620 00f2 00E0     		b	.L224
 3621              	.L221:
 3622 00f4 0223     		movs	r3, #2
 3623              	.L224:
 3624 00f6 1846     		mov	r0, r3
 3625 00f8 1037     		adds	r7, r7, #16
 3626 00fa BD46     		mov	sp, r7
 3627              		@ sp needed
 3628 00fc 80BD     		pop	{r7, pc}
 3629              	.L230:
 3630 00fe 00BF     		.align	2
ARM GAS  /var/folders/k1/1yttftd15rl7jxtpyc5m93n80000gn/T//ccqqVpOc.s 			page 64


 3631              	.L229:
 3632 0100 0000FFFF 		.word	-65536
 3633 0104 00000000 		.word	I2C_Mem_ISR_IT
 3634 0108 00200080 		.word	-2147475456
 3636              		.section	.text.HAL_I2C_Mem_Write_DMA,"ax",%progbits
 3637              		.align	1
 3638              		.global	HAL_I2C_Mem_Write_DMA
 3639              		.syntax unified
 3640              		.thumb
 3641              		.thumb_func
 3643              	HAL_I2C_Mem_Write_DMA:
 3644              		@ args = 8, pretend = 0, frame = 24
 3645              		@ frame_needed = 1, uses_anonymous_args = 0
 3646 0000 80B5     		push	{r7, lr}
 3647 0002 88B0     		sub	sp, sp, #32
 3648 0004 02AF     		add	r7, sp, #8
 3649 0006 F860     		str	r0, [r7, #12]
 3650 0008 0846     		mov	r0, r1
 3651 000a 1146     		mov	r1, r2
 3652 000c 1A46     		mov	r2, r3
 3653 000e 0346     		mov	r3, r0	@ movhi
 3654 0010 7B81     		strh	r3, [r7, #10]	@ movhi
 3655 0012 0B46     		mov	r3, r1	@ movhi
 3656 0014 3B81     		strh	r3, [r7, #8]	@ movhi
 3657 0016 1346     		mov	r3, r2	@ movhi
 3658 0018 FB80     		strh	r3, [r7, #6]	@ movhi
 3659 001a FB68     		ldr	r3, [r7, #12]
 3660 001c 93F84130 		ldrb	r3, [r3, #65]
 3661 0020 DBB2     		uxtb	r3, r3
 3662 0022 202B     		cmp	r3, #32
 3663 0024 40F0C380 		bne	.L232
 3664 0028 3B6A     		ldr	r3, [r7, #32]
 3665 002a 002B     		cmp	r3, #0
 3666 002c 02D0     		beq	.L233
 3667 002e BB8C     		ldrh	r3, [r7, #36]
 3668 0030 002B     		cmp	r3, #0
 3669 0032 05D1     		bne	.L234
 3670              	.L233:
 3671 0034 FB68     		ldr	r3, [r7, #12]
 3672 0036 4FF40072 		mov	r2, #512
 3673 003a 5A64     		str	r2, [r3, #68]
 3674 003c 0123     		movs	r3, #1
 3675 003e B7E0     		b	.L235
 3676              	.L234:
 3677 0040 FB68     		ldr	r3, [r7, #12]
 3678 0042 1B68     		ldr	r3, [r3]
 3679 0044 9B69     		ldr	r3, [r3, #24]
 3680 0046 03F40043 		and	r3, r3, #32768
 3681 004a B3F5004F 		cmp	r3, #32768
 3682 004e 01D1     		bne	.L236
 3683 0050 0223     		movs	r3, #2
 3684 0052 ADE0     		b	.L235
 3685              	.L236:
 3686 0054 FB68     		ldr	r3, [r7, #12]
 3687 0056 93F84030 		ldrb	r3, [r3, #64]	@ zero_extendqisi2
 3688 005a 012B     		cmp	r3, #1
 3689 005c 01D1     		bne	.L237
ARM GAS  /var/folders/k1/1yttftd15rl7jxtpyc5m93n80000gn/T//ccqqVpOc.s 			page 65


 3690 005e 0223     		movs	r3, #2
 3691 0060 A6E0     		b	.L235
 3692              	.L237:
 3693 0062 FB68     		ldr	r3, [r7, #12]
 3694 0064 0122     		movs	r2, #1
 3695 0066 83F84020 		strb	r2, [r3, #64]
 3696 006a FB68     		ldr	r3, [r7, #12]
 3697 006c 2122     		movs	r2, #33
 3698 006e 83F84120 		strb	r2, [r3, #65]
 3699 0072 FB68     		ldr	r3, [r7, #12]
 3700 0074 4022     		movs	r2, #64
 3701 0076 83F84220 		strb	r2, [r3, #66]
 3702 007a FB68     		ldr	r3, [r7, #12]
 3703 007c 0022     		movs	r2, #0
 3704 007e 5A64     		str	r2, [r3, #68]
 3705 0080 FB68     		ldr	r3, [r7, #12]
 3706 0082 3A6A     		ldr	r2, [r7, #32]
 3707 0084 5A62     		str	r2, [r3, #36]
 3708 0086 FB68     		ldr	r3, [r7, #12]
 3709 0088 BA8C     		ldrh	r2, [r7, #36]	@ movhi
 3710 008a 5A85     		strh	r2, [r3, #42]	@ movhi
 3711 008c FB68     		ldr	r3, [r7, #12]
 3712 008e 4A4A     		ldr	r2, .L247
 3713 0090 DA62     		str	r2, [r3, #44]
 3714 0092 FB68     		ldr	r3, [r7, #12]
 3715 0094 494A     		ldr	r2, .L247+4
 3716 0096 5A63     		str	r2, [r3, #52]
 3717 0098 7A89     		ldrh	r2, [r7, #10]
 3718 009a FB68     		ldr	r3, [r7, #12]
 3719 009c DA64     		str	r2, [r3, #76]
 3720 009e FB68     		ldr	r3, [r7, #12]
 3721 00a0 5B8D     		ldrh	r3, [r3, #42]	@ movhi
 3722 00a2 9BB2     		uxth	r3, r3
 3723 00a4 FF2B     		cmp	r3, #255
 3724 00a6 03D9     		bls	.L238
 3725 00a8 FB68     		ldr	r3, [r7, #12]
 3726 00aa FF22     		movs	r2, #255
 3727 00ac 1A85     		strh	r2, [r3, #40]	@ movhi
 3728 00ae 04E0     		b	.L239
 3729              	.L238:
 3730 00b0 FB68     		ldr	r3, [r7, #12]
 3731 00b2 5B8D     		ldrh	r3, [r3, #42]	@ movhi
 3732 00b4 9AB2     		uxth	r2, r3
 3733 00b6 FB68     		ldr	r3, [r7, #12]
 3734 00b8 1A85     		strh	r2, [r3, #40]	@ movhi
 3735              	.L239:
 3736 00ba FB88     		ldrh	r3, [r7, #6]
 3737 00bc 012B     		cmp	r3, #1
 3738 00be 09D1     		bne	.L240
 3739 00c0 3B89     		ldrh	r3, [r7, #8]	@ movhi
 3740 00c2 DAB2     		uxtb	r2, r3
 3741 00c4 FB68     		ldr	r3, [r7, #12]
 3742 00c6 1B68     		ldr	r3, [r3]
 3743 00c8 9A62     		str	r2, [r3, #40]
 3744 00ca FB68     		ldr	r3, [r7, #12]
 3745 00cc 4FF0FF32 		mov	r2, #-1
 3746 00d0 1A65     		str	r2, [r3, #80]
ARM GAS  /var/folders/k1/1yttftd15rl7jxtpyc5m93n80000gn/T//ccqqVpOc.s 			page 66


 3747 00d2 0BE0     		b	.L241
 3748              	.L240:
 3749 00d4 3B89     		ldrh	r3, [r7, #8]
 3750 00d6 1B0A     		lsrs	r3, r3, #8
 3751 00d8 9BB2     		uxth	r3, r3
 3752 00da DAB2     		uxtb	r2, r3
 3753 00dc FB68     		ldr	r3, [r7, #12]
 3754 00de 1B68     		ldr	r3, [r3]
 3755 00e0 9A62     		str	r2, [r3, #40]
 3756 00e2 3B89     		ldrh	r3, [r7, #8]	@ movhi
 3757 00e4 DBB2     		uxtb	r3, r3
 3758 00e6 1A46     		mov	r2, r3
 3759 00e8 FB68     		ldr	r3, [r7, #12]
 3760 00ea 1A65     		str	r2, [r3, #80]
 3761              	.L241:
 3762 00ec FB68     		ldr	r3, [r7, #12]
 3763 00ee 9B6B     		ldr	r3, [r3, #56]
 3764 00f0 002B     		cmp	r3, #0
 3765 00f2 20D0     		beq	.L242
 3766 00f4 FB68     		ldr	r3, [r7, #12]
 3767 00f6 9B6B     		ldr	r3, [r3, #56]
 3768 00f8 314A     		ldr	r2, .L247+8
 3769 00fa DA62     		str	r2, [r3, #44]
 3770 00fc FB68     		ldr	r3, [r7, #12]
 3771 00fe 9B6B     		ldr	r3, [r3, #56]
 3772 0100 304A     		ldr	r2, .L247+12
 3773 0102 5A63     		str	r2, [r3, #52]
 3774 0104 FB68     		ldr	r3, [r7, #12]
 3775 0106 9B6B     		ldr	r3, [r3, #56]
 3776 0108 0022     		movs	r2, #0
 3777 010a 1A63     		str	r2, [r3, #48]
 3778 010c FB68     		ldr	r3, [r7, #12]
 3779 010e 9B6B     		ldr	r3, [r3, #56]
 3780 0110 0022     		movs	r2, #0
 3781 0112 9A63     		str	r2, [r3, #56]
 3782 0114 FB68     		ldr	r3, [r7, #12]
 3783 0116 986B     		ldr	r0, [r3, #56]
 3784 0118 396A     		ldr	r1, [r7, #32]
 3785 011a FB68     		ldr	r3, [r7, #12]
 3786 011c 1B68     		ldr	r3, [r3]
 3787 011e 2833     		adds	r3, r3, #40
 3788 0120 1A46     		mov	r2, r3
 3789 0122 FB68     		ldr	r3, [r7, #12]
 3790 0124 1B8D     		ldrh	r3, [r3, #40]
 3791 0126 FFF7FEFF 		bl	HAL_DMA_Start_IT
 3792 012a 0346     		mov	r3, r0
 3793 012c FB75     		strb	r3, [r7, #23]
 3794 012e FB7D     		ldrb	r3, [r7, #23]	@ zero_extendqisi2
 3795 0130 002B     		cmp	r3, #0
 3796 0132 28D1     		bne	.L244
 3797 0134 13E0     		b	.L246
 3798              	.L242:
 3799 0136 FB68     		ldr	r3, [r7, #12]
 3800 0138 2022     		movs	r2, #32
 3801 013a 83F84120 		strb	r2, [r3, #65]
 3802 013e FB68     		ldr	r3, [r7, #12]
 3803 0140 0022     		movs	r2, #0
ARM GAS  /var/folders/k1/1yttftd15rl7jxtpyc5m93n80000gn/T//ccqqVpOc.s 			page 67


 3804 0142 83F84220 		strb	r2, [r3, #66]
 3805 0146 FB68     		ldr	r3, [r7, #12]
 3806 0148 5B6C     		ldr	r3, [r3, #68]
 3807 014a 43F08002 		orr	r2, r3, #128
 3808 014e FB68     		ldr	r3, [r7, #12]
 3809 0150 5A64     		str	r2, [r3, #68]
 3810 0152 FB68     		ldr	r3, [r7, #12]
 3811 0154 0022     		movs	r2, #0
 3812 0156 83F84020 		strb	r2, [r3, #64]
 3813 015a 0123     		movs	r3, #1
 3814 015c 28E0     		b	.L235
 3815              	.L246:
 3816 015e FB88     		ldrh	r3, [r7, #6]	@ movhi
 3817 0160 DAB2     		uxtb	r2, r3
 3818 0162 7989     		ldrh	r1, [r7, #10]
 3819 0164 184B     		ldr	r3, .L247+16
 3820 0166 0093     		str	r3, [sp]
 3821 0168 4FF08073 		mov	r3, #16777216
 3822 016c F868     		ldr	r0, [r7, #12]
 3823 016e FFF7FEFF 		bl	I2C_TransferConfig
 3824 0172 FB68     		ldr	r3, [r7, #12]
 3825 0174 0022     		movs	r2, #0
 3826 0176 83F84020 		strb	r2, [r3, #64]
 3827 017a 0121     		movs	r1, #1
 3828 017c F868     		ldr	r0, [r7, #12]
 3829 017e FFF7FEFF 		bl	I2C_Enable_IRQ
 3830 0182 0023     		movs	r3, #0
 3831 0184 14E0     		b	.L235
 3832              	.L244:
 3833 0186 FB68     		ldr	r3, [r7, #12]
 3834 0188 2022     		movs	r2, #32
 3835 018a 83F84120 		strb	r2, [r3, #65]
 3836 018e FB68     		ldr	r3, [r7, #12]
 3837 0190 0022     		movs	r2, #0
 3838 0192 83F84220 		strb	r2, [r3, #66]
 3839 0196 FB68     		ldr	r3, [r7, #12]
 3840 0198 5B6C     		ldr	r3, [r3, #68]
 3841 019a 43F01002 		orr	r2, r3, #16
 3842 019e FB68     		ldr	r3, [r7, #12]
 3843 01a0 5A64     		str	r2, [r3, #68]
 3844 01a2 FB68     		ldr	r3, [r7, #12]
 3845 01a4 0022     		movs	r2, #0
 3846 01a6 83F84020 		strb	r2, [r3, #64]
 3847 01aa 0123     		movs	r3, #1
 3848 01ac 00E0     		b	.L235
 3849              	.L232:
 3850 01ae 0223     		movs	r3, #2
 3851              	.L235:
 3852 01b0 1846     		mov	r0, r3
 3853 01b2 1837     		adds	r7, r7, #24
 3854 01b4 BD46     		mov	sp, r7
 3855              		@ sp needed
 3856 01b6 80BD     		pop	{r7, pc}
 3857              	.L248:
 3858              		.align	2
 3859              	.L247:
 3860 01b8 0000FFFF 		.word	-65536
ARM GAS  /var/folders/k1/1yttftd15rl7jxtpyc5m93n80000gn/T//ccqqVpOc.s 			page 68


 3861 01bc 00000000 		.word	I2C_Mem_ISR_DMA
 3862 01c0 00000000 		.word	I2C_DMAMasterTransmitCplt
 3863 01c4 00000000 		.word	I2C_DMAError
 3864 01c8 00200080 		.word	-2147475456
 3866              		.section	.text.HAL_I2C_Mem_Read_DMA,"ax",%progbits
 3867              		.align	1
 3868              		.global	HAL_I2C_Mem_Read_DMA
 3869              		.syntax unified
 3870              		.thumb
 3871              		.thumb_func
 3873              	HAL_I2C_Mem_Read_DMA:
 3874              		@ args = 8, pretend = 0, frame = 24
 3875              		@ frame_needed = 1, uses_anonymous_args = 0
 3876 0000 80B5     		push	{r7, lr}
 3877 0002 88B0     		sub	sp, sp, #32
 3878 0004 02AF     		add	r7, sp, #8
 3879 0006 F860     		str	r0, [r7, #12]
 3880 0008 0846     		mov	r0, r1
 3881 000a 1146     		mov	r1, r2
 3882 000c 1A46     		mov	r2, r3
 3883 000e 0346     		mov	r3, r0	@ movhi
 3884 0010 7B81     		strh	r3, [r7, #10]	@ movhi
 3885 0012 0B46     		mov	r3, r1	@ movhi
 3886 0014 3B81     		strh	r3, [r7, #8]	@ movhi
 3887 0016 1346     		mov	r3, r2	@ movhi
 3888 0018 FB80     		strh	r3, [r7, #6]	@ movhi
 3889 001a FB68     		ldr	r3, [r7, #12]
 3890 001c 93F84130 		ldrb	r3, [r3, #65]
 3891 0020 DBB2     		uxtb	r3, r3
 3892 0022 202B     		cmp	r3, #32
 3893 0024 40F0C280 		bne	.L250
 3894 0028 3B6A     		ldr	r3, [r7, #32]
 3895 002a 002B     		cmp	r3, #0
 3896 002c 02D0     		beq	.L251
 3897 002e BB8C     		ldrh	r3, [r7, #36]
 3898 0030 002B     		cmp	r3, #0
 3899 0032 05D1     		bne	.L252
 3900              	.L251:
 3901 0034 FB68     		ldr	r3, [r7, #12]
 3902 0036 4FF40072 		mov	r2, #512
 3903 003a 5A64     		str	r2, [r3, #68]
 3904 003c 0123     		movs	r3, #1
 3905 003e B6E0     		b	.L253
 3906              	.L252:
 3907 0040 FB68     		ldr	r3, [r7, #12]
 3908 0042 1B68     		ldr	r3, [r3]
 3909 0044 9B69     		ldr	r3, [r3, #24]
 3910 0046 03F40043 		and	r3, r3, #32768
 3911 004a B3F5004F 		cmp	r3, #32768
 3912 004e 01D1     		bne	.L254
 3913 0050 0223     		movs	r3, #2
 3914 0052 ACE0     		b	.L253
 3915              	.L254:
 3916 0054 FB68     		ldr	r3, [r7, #12]
 3917 0056 93F84030 		ldrb	r3, [r3, #64]	@ zero_extendqisi2
 3918 005a 012B     		cmp	r3, #1
 3919 005c 01D1     		bne	.L255
ARM GAS  /var/folders/k1/1yttftd15rl7jxtpyc5m93n80000gn/T//ccqqVpOc.s 			page 69


 3920 005e 0223     		movs	r3, #2
 3921 0060 A5E0     		b	.L253
 3922              	.L255:
 3923 0062 FB68     		ldr	r3, [r7, #12]
 3924 0064 0122     		movs	r2, #1
 3925 0066 83F84020 		strb	r2, [r3, #64]
 3926 006a FB68     		ldr	r3, [r7, #12]
 3927 006c 2222     		movs	r2, #34
 3928 006e 83F84120 		strb	r2, [r3, #65]
 3929 0072 FB68     		ldr	r3, [r7, #12]
 3930 0074 4022     		movs	r2, #64
 3931 0076 83F84220 		strb	r2, [r3, #66]
 3932 007a FB68     		ldr	r3, [r7, #12]
 3933 007c 0022     		movs	r2, #0
 3934 007e 5A64     		str	r2, [r3, #68]
 3935 0080 FB68     		ldr	r3, [r7, #12]
 3936 0082 3A6A     		ldr	r2, [r7, #32]
 3937 0084 5A62     		str	r2, [r3, #36]
 3938 0086 FB68     		ldr	r3, [r7, #12]
 3939 0088 BA8C     		ldrh	r2, [r7, #36]	@ movhi
 3940 008a 5A85     		strh	r2, [r3, #42]	@ movhi
 3941 008c FB68     		ldr	r3, [r7, #12]
 3942 008e 4A4A     		ldr	r2, .L265
 3943 0090 DA62     		str	r2, [r3, #44]
 3944 0092 FB68     		ldr	r3, [r7, #12]
 3945 0094 494A     		ldr	r2, .L265+4
 3946 0096 5A63     		str	r2, [r3, #52]
 3947 0098 7A89     		ldrh	r2, [r7, #10]
 3948 009a FB68     		ldr	r3, [r7, #12]
 3949 009c DA64     		str	r2, [r3, #76]
 3950 009e FB68     		ldr	r3, [r7, #12]
 3951 00a0 5B8D     		ldrh	r3, [r3, #42]	@ movhi
 3952 00a2 9BB2     		uxth	r3, r3
 3953 00a4 FF2B     		cmp	r3, #255
 3954 00a6 03D9     		bls	.L256
 3955 00a8 FB68     		ldr	r3, [r7, #12]
 3956 00aa FF22     		movs	r2, #255
 3957 00ac 1A85     		strh	r2, [r3, #40]	@ movhi
 3958 00ae 04E0     		b	.L257
 3959              	.L256:
 3960 00b0 FB68     		ldr	r3, [r7, #12]
 3961 00b2 5B8D     		ldrh	r3, [r3, #42]	@ movhi
 3962 00b4 9AB2     		uxth	r2, r3
 3963 00b6 FB68     		ldr	r3, [r7, #12]
 3964 00b8 1A85     		strh	r2, [r3, #40]	@ movhi
 3965              	.L257:
 3966 00ba FB88     		ldrh	r3, [r7, #6]
 3967 00bc 012B     		cmp	r3, #1
 3968 00be 09D1     		bne	.L258
 3969 00c0 3B89     		ldrh	r3, [r7, #8]	@ movhi
 3970 00c2 DAB2     		uxtb	r2, r3
 3971 00c4 FB68     		ldr	r3, [r7, #12]
 3972 00c6 1B68     		ldr	r3, [r3]
 3973 00c8 9A62     		str	r2, [r3, #40]
 3974 00ca FB68     		ldr	r3, [r7, #12]
 3975 00cc 4FF0FF32 		mov	r2, #-1
 3976 00d0 1A65     		str	r2, [r3, #80]
ARM GAS  /var/folders/k1/1yttftd15rl7jxtpyc5m93n80000gn/T//ccqqVpOc.s 			page 70


 3977 00d2 0BE0     		b	.L259
 3978              	.L258:
 3979 00d4 3B89     		ldrh	r3, [r7, #8]
 3980 00d6 1B0A     		lsrs	r3, r3, #8
 3981 00d8 9BB2     		uxth	r3, r3
 3982 00da DAB2     		uxtb	r2, r3
 3983 00dc FB68     		ldr	r3, [r7, #12]
 3984 00de 1B68     		ldr	r3, [r3]
 3985 00e0 9A62     		str	r2, [r3, #40]
 3986 00e2 3B89     		ldrh	r3, [r7, #8]	@ movhi
 3987 00e4 DBB2     		uxtb	r3, r3
 3988 00e6 1A46     		mov	r2, r3
 3989 00e8 FB68     		ldr	r3, [r7, #12]
 3990 00ea 1A65     		str	r2, [r3, #80]
 3991              	.L259:
 3992 00ec FB68     		ldr	r3, [r7, #12]
 3993 00ee DB6B     		ldr	r3, [r3, #60]
 3994 00f0 002B     		cmp	r3, #0
 3995 00f2 20D0     		beq	.L260
 3996 00f4 FB68     		ldr	r3, [r7, #12]
 3997 00f6 DB6B     		ldr	r3, [r3, #60]
 3998 00f8 314A     		ldr	r2, .L265+8
 3999 00fa DA62     		str	r2, [r3, #44]
 4000 00fc FB68     		ldr	r3, [r7, #12]
 4001 00fe DB6B     		ldr	r3, [r3, #60]
 4002 0100 304A     		ldr	r2, .L265+12
 4003 0102 5A63     		str	r2, [r3, #52]
 4004 0104 FB68     		ldr	r3, [r7, #12]
 4005 0106 DB6B     		ldr	r3, [r3, #60]
 4006 0108 0022     		movs	r2, #0
 4007 010a 1A63     		str	r2, [r3, #48]
 4008 010c FB68     		ldr	r3, [r7, #12]
 4009 010e DB6B     		ldr	r3, [r3, #60]
 4010 0110 0022     		movs	r2, #0
 4011 0112 9A63     		str	r2, [r3, #56]
 4012 0114 FB68     		ldr	r3, [r7, #12]
 4013 0116 D86B     		ldr	r0, [r3, #60]
 4014 0118 FB68     		ldr	r3, [r7, #12]
 4015 011a 1B68     		ldr	r3, [r3]
 4016 011c 2433     		adds	r3, r3, #36
 4017 011e 1946     		mov	r1, r3
 4018 0120 3A6A     		ldr	r2, [r7, #32]
 4019 0122 FB68     		ldr	r3, [r7, #12]
 4020 0124 1B8D     		ldrh	r3, [r3, #40]
 4021 0126 FFF7FEFF 		bl	HAL_DMA_Start_IT
 4022 012a 0346     		mov	r3, r0
 4023 012c FB75     		strb	r3, [r7, #23]
 4024 012e FB7D     		ldrb	r3, [r7, #23]	@ zero_extendqisi2
 4025 0130 002B     		cmp	r3, #0
 4026 0132 27D1     		bne	.L262
 4027 0134 13E0     		b	.L264
 4028              	.L260:
 4029 0136 FB68     		ldr	r3, [r7, #12]
 4030 0138 2022     		movs	r2, #32
 4031 013a 83F84120 		strb	r2, [r3, #65]
 4032 013e FB68     		ldr	r3, [r7, #12]
 4033 0140 0022     		movs	r2, #0
ARM GAS  /var/folders/k1/1yttftd15rl7jxtpyc5m93n80000gn/T//ccqqVpOc.s 			page 71


 4034 0142 83F84220 		strb	r2, [r3, #66]
 4035 0146 FB68     		ldr	r3, [r7, #12]
 4036 0148 5B6C     		ldr	r3, [r3, #68]
 4037 014a 43F08002 		orr	r2, r3, #128
 4038 014e FB68     		ldr	r3, [r7, #12]
 4039 0150 5A64     		str	r2, [r3, #68]
 4040 0152 FB68     		ldr	r3, [r7, #12]
 4041 0154 0022     		movs	r2, #0
 4042 0156 83F84020 		strb	r2, [r3, #64]
 4043 015a 0123     		movs	r3, #1
 4044 015c 27E0     		b	.L253
 4045              	.L264:
 4046 015e FB88     		ldrh	r3, [r7, #6]	@ movhi
 4047 0160 DAB2     		uxtb	r2, r3
 4048 0162 7989     		ldrh	r1, [r7, #10]
 4049 0164 184B     		ldr	r3, .L265+16
 4050 0166 0093     		str	r3, [sp]
 4051 0168 0023     		movs	r3, #0
 4052 016a F868     		ldr	r0, [r7, #12]
 4053 016c FFF7FEFF 		bl	I2C_TransferConfig
 4054 0170 FB68     		ldr	r3, [r7, #12]
 4055 0172 0022     		movs	r2, #0
 4056 0174 83F84020 		strb	r2, [r3, #64]
 4057 0178 0121     		movs	r1, #1
 4058 017a F868     		ldr	r0, [r7, #12]
 4059 017c FFF7FEFF 		bl	I2C_Enable_IRQ
 4060 0180 0023     		movs	r3, #0
 4061 0182 14E0     		b	.L253
 4062              	.L262:
 4063 0184 FB68     		ldr	r3, [r7, #12]
 4064 0186 2022     		movs	r2, #32
 4065 0188 83F84120 		strb	r2, [r3, #65]
 4066 018c FB68     		ldr	r3, [r7, #12]
 4067 018e 0022     		movs	r2, #0
 4068 0190 83F84220 		strb	r2, [r3, #66]
 4069 0194 FB68     		ldr	r3, [r7, #12]
 4070 0196 5B6C     		ldr	r3, [r3, #68]
 4071 0198 43F01002 		orr	r2, r3, #16
 4072 019c FB68     		ldr	r3, [r7, #12]
 4073 019e 5A64     		str	r2, [r3, #68]
 4074 01a0 FB68     		ldr	r3, [r7, #12]
 4075 01a2 0022     		movs	r2, #0
 4076 01a4 83F84020 		strb	r2, [r3, #64]
 4077 01a8 0123     		movs	r3, #1
 4078 01aa 00E0     		b	.L253
 4079              	.L250:
 4080 01ac 0223     		movs	r3, #2
 4081              	.L253:
 4082 01ae 1846     		mov	r0, r3
 4083 01b0 1837     		adds	r7, r7, #24
 4084 01b2 BD46     		mov	sp, r7
 4085              		@ sp needed
 4086 01b4 80BD     		pop	{r7, pc}
 4087              	.L266:
 4088 01b6 00BF     		.align	2
 4089              	.L265:
 4090 01b8 0000FFFF 		.word	-65536
ARM GAS  /var/folders/k1/1yttftd15rl7jxtpyc5m93n80000gn/T//ccqqVpOc.s 			page 72


 4091 01bc 00000000 		.word	I2C_Mem_ISR_DMA
 4092 01c0 00000000 		.word	I2C_DMAMasterReceiveCplt
 4093 01c4 00000000 		.word	I2C_DMAError
 4094 01c8 00200080 		.word	-2147475456
 4096              		.section	.text.HAL_I2C_IsDeviceReady,"ax",%progbits
 4097              		.align	1
 4098              		.global	HAL_I2C_IsDeviceReady
 4099              		.syntax unified
 4100              		.thumb
 4101              		.thumb_func
 4103              	HAL_I2C_IsDeviceReady:
 4104              		@ args = 0, pretend = 0, frame = 32
 4105              		@ frame_needed = 1, uses_anonymous_args = 0
 4106 0000 80B5     		push	{r7, lr}
 4107 0002 8AB0     		sub	sp, sp, #40
 4108 0004 02AF     		add	r7, sp, #8
 4109 0006 F860     		str	r0, [r7, #12]
 4110 0008 7A60     		str	r2, [r7, #4]
 4111 000a 3B60     		str	r3, [r7]
 4112 000c 0B46     		mov	r3, r1	@ movhi
 4113 000e 7B81     		strh	r3, [r7, #10]	@ movhi
 4114 0010 0023     		movs	r3, #0
 4115 0012 7B61     		str	r3, [r7, #20]
 4116 0014 FB68     		ldr	r3, [r7, #12]
 4117 0016 93F84130 		ldrb	r3, [r3, #65]
 4118 001a DBB2     		uxtb	r3, r3
 4119 001c 202B     		cmp	r3, #32
 4120 001e 40F0DE80 		bne	.L268
 4121 0022 FB68     		ldr	r3, [r7, #12]
 4122 0024 1B68     		ldr	r3, [r3]
 4123 0026 9B69     		ldr	r3, [r3, #24]
 4124 0028 03F40043 		and	r3, r3, #32768
 4125 002c B3F5004F 		cmp	r3, #32768
 4126 0030 01D1     		bne	.L269
 4127 0032 0223     		movs	r3, #2
 4128 0034 D4E0     		b	.L270
 4129              	.L269:
 4130 0036 FB68     		ldr	r3, [r7, #12]
 4131 0038 93F84030 		ldrb	r3, [r3, #64]	@ zero_extendqisi2
 4132 003c 012B     		cmp	r3, #1
 4133 003e 01D1     		bne	.L271
 4134 0040 0223     		movs	r3, #2
 4135 0042 CDE0     		b	.L270
 4136              	.L271:
 4137 0044 FB68     		ldr	r3, [r7, #12]
 4138 0046 0122     		movs	r2, #1
 4139 0048 83F84020 		strb	r2, [r3, #64]
 4140 004c FB68     		ldr	r3, [r7, #12]
 4141 004e 2422     		movs	r2, #36
 4142 0050 83F84120 		strb	r2, [r3, #65]
 4143 0054 FB68     		ldr	r3, [r7, #12]
 4144 0056 0022     		movs	r2, #0
 4145 0058 5A64     		str	r2, [r3, #68]
 4146              	.L282:
 4147 005a FB68     		ldr	r3, [r7, #12]
 4148 005c DB68     		ldr	r3, [r3, #12]
 4149 005e 012B     		cmp	r3, #1
ARM GAS  /var/folders/k1/1yttftd15rl7jxtpyc5m93n80000gn/T//ccqqVpOc.s 			page 73


 4150 0060 07D1     		bne	.L272
 4151 0062 7B89     		ldrh	r3, [r7, #10]
 4152 0064 C3F30903 		ubfx	r3, r3, #0, #10
 4153 0068 43F00073 		orr	r3, r3, #33554432
 4154 006c 43F40053 		orr	r3, r3, #8192
 4155 0070 06E0     		b	.L273
 4156              	.L272:
 4157 0072 7B89     		ldrh	r3, [r7, #10]
 4158 0074 C3F30903 		ubfx	r3, r3, #0, #10
 4159 0078 43F00073 		orr	r3, r3, #33554432
 4160 007c 43F42053 		orr	r3, r3, #10240
 4161              	.L273:
 4162 0080 FA68     		ldr	r2, [r7, #12]
 4163 0082 1268     		ldr	r2, [r2]
 4164 0084 5360     		str	r3, [r2, #4]
 4165 0086 FFF7FEFF 		bl	HAL_GetTick
 4166 008a B861     		str	r0, [r7, #24]
 4167 008c FB68     		ldr	r3, [r7, #12]
 4168 008e 1B68     		ldr	r3, [r3]
 4169 0090 9B69     		ldr	r3, [r3, #24]
 4170 0092 03F02003 		and	r3, r3, #32
 4171 0096 202B     		cmp	r3, #32
 4172 0098 0CBF     		ite	eq
 4173 009a 0123     		moveq	r3, #1
 4174 009c 0023     		movne	r3, #0
 4175 009e DBB2     		uxtb	r3, r3
 4176 00a0 FB77     		strb	r3, [r7, #31]
 4177 00a2 FB68     		ldr	r3, [r7, #12]
 4178 00a4 1B68     		ldr	r3, [r3]
 4179 00a6 9B69     		ldr	r3, [r3, #24]
 4180 00a8 03F01003 		and	r3, r3, #16
 4181 00ac 102B     		cmp	r3, #16
 4182 00ae 0CBF     		ite	eq
 4183 00b0 0123     		moveq	r3, #1
 4184 00b2 0023     		movne	r3, #0
 4185 00b4 DBB2     		uxtb	r3, r3
 4186 00b6 BB77     		strb	r3, [r7, #30]
 4187 00b8 34E0     		b	.L274
 4188              	.L278:
 4189 00ba 3B68     		ldr	r3, [r7]
 4190 00bc B3F1FF3F 		cmp	r3, #-1
 4191 00c0 1AD0     		beq	.L275
 4192 00c2 FFF7FEFF 		bl	HAL_GetTick
 4193 00c6 0246     		mov	r2, r0
 4194 00c8 BB69     		ldr	r3, [r7, #24]
 4195 00ca D31A     		subs	r3, r2, r3
 4196 00cc 3A68     		ldr	r2, [r7]
 4197 00ce 9A42     		cmp	r2, r3
 4198 00d0 02D3     		bcc	.L276
 4199 00d2 3B68     		ldr	r3, [r7]
 4200 00d4 002B     		cmp	r3, #0
 4201 00d6 0FD1     		bne	.L275
 4202              	.L276:
 4203 00d8 FB68     		ldr	r3, [r7, #12]
 4204 00da 2022     		movs	r2, #32
 4205 00dc 83F84120 		strb	r2, [r3, #65]
 4206 00e0 FB68     		ldr	r3, [r7, #12]
ARM GAS  /var/folders/k1/1yttftd15rl7jxtpyc5m93n80000gn/T//ccqqVpOc.s 			page 74


 4207 00e2 5B6C     		ldr	r3, [r3, #68]
 4208 00e4 43F02002 		orr	r2, r3, #32
 4209 00e8 FB68     		ldr	r3, [r7, #12]
 4210 00ea 5A64     		str	r2, [r3, #68]
 4211 00ec FB68     		ldr	r3, [r7, #12]
 4212 00ee 0022     		movs	r2, #0
 4213 00f0 83F84020 		strb	r2, [r3, #64]
 4214 00f4 0123     		movs	r3, #1
 4215 00f6 73E0     		b	.L270
 4216              	.L275:
 4217 00f8 FB68     		ldr	r3, [r7, #12]
 4218 00fa 1B68     		ldr	r3, [r3]
 4219 00fc 9B69     		ldr	r3, [r3, #24]
 4220 00fe 03F02003 		and	r3, r3, #32
 4221 0102 202B     		cmp	r3, #32
 4222 0104 0CBF     		ite	eq
 4223 0106 0123     		moveq	r3, #1
 4224 0108 0023     		movne	r3, #0
 4225 010a DBB2     		uxtb	r3, r3
 4226 010c FB77     		strb	r3, [r7, #31]
 4227 010e FB68     		ldr	r3, [r7, #12]
 4228 0110 1B68     		ldr	r3, [r3]
 4229 0112 9B69     		ldr	r3, [r3, #24]
 4230 0114 03F01003 		and	r3, r3, #16
 4231 0118 102B     		cmp	r3, #16
 4232 011a 0CBF     		ite	eq
 4233 011c 0123     		moveq	r3, #1
 4234 011e 0023     		movne	r3, #0
 4235 0120 DBB2     		uxtb	r3, r3
 4236 0122 BB77     		strb	r3, [r7, #30]
 4237              	.L274:
 4238 0124 FB7F     		ldrb	r3, [r7, #31]	@ zero_extendqisi2
 4239 0126 002B     		cmp	r3, #0
 4240 0128 02D1     		bne	.L277
 4241 012a BB7F     		ldrb	r3, [r7, #30]	@ zero_extendqisi2
 4242 012c 002B     		cmp	r3, #0
 4243 012e C4D0     		beq	.L278
 4244              	.L277:
 4245 0130 FB68     		ldr	r3, [r7, #12]
 4246 0132 1B68     		ldr	r3, [r3]
 4247 0134 9B69     		ldr	r3, [r3, #24]
 4248 0136 03F01003 		and	r3, r3, #16
 4249 013a 102B     		cmp	r3, #16
 4250 013c 24D0     		beq	.L279
 4251 013e BB69     		ldr	r3, [r7, #24]
 4252 0140 0093     		str	r3, [sp]
 4253 0142 3B68     		ldr	r3, [r7]
 4254 0144 0022     		movs	r2, #0
 4255 0146 2021     		movs	r1, #32
 4256 0148 F868     		ldr	r0, [r7, #12]
 4257 014a FFF7FEFF 		bl	I2C_WaitOnFlagUntilTimeout
 4258 014e 0346     		mov	r3, r0
 4259 0150 002B     		cmp	r3, #0
 4260 0152 0BD0     		beq	.L280
 4261 0154 FB68     		ldr	r3, [r7, #12]
 4262 0156 5B6C     		ldr	r3, [r3, #68]
 4263 0158 042B     		cmp	r3, #4
ARM GAS  /var/folders/k1/1yttftd15rl7jxtpyc5m93n80000gn/T//ccqqVpOc.s 			page 75


 4264 015a 28D1     		bne	.L281
 4265 015c FB68     		ldr	r3, [r7, #12]
 4266 015e 1B68     		ldr	r3, [r3]
 4267 0160 2022     		movs	r2, #32
 4268 0162 DA61     		str	r2, [r3, #28]
 4269 0164 FB68     		ldr	r3, [r7, #12]
 4270 0166 0022     		movs	r2, #0
 4271 0168 5A64     		str	r2, [r3, #68]
 4272 016a 20E0     		b	.L281
 4273              	.L280:
 4274 016c FB68     		ldr	r3, [r7, #12]
 4275 016e 1B68     		ldr	r3, [r3]
 4276 0170 2022     		movs	r2, #32
 4277 0172 DA61     		str	r2, [r3, #28]
 4278 0174 FB68     		ldr	r3, [r7, #12]
 4279 0176 2022     		movs	r2, #32
 4280 0178 83F84120 		strb	r2, [r3, #65]
 4281 017c FB68     		ldr	r3, [r7, #12]
 4282 017e 0022     		movs	r2, #0
 4283 0180 83F84020 		strb	r2, [r3, #64]
 4284 0184 0023     		movs	r3, #0
 4285 0186 2BE0     		b	.L270
 4286              	.L279:
 4287 0188 FB68     		ldr	r3, [r7, #12]
 4288 018a 1B68     		ldr	r3, [r3]
 4289 018c 1022     		movs	r2, #16
 4290 018e DA61     		str	r2, [r3, #28]
 4291 0190 BB69     		ldr	r3, [r7, #24]
 4292 0192 0093     		str	r3, [sp]
 4293 0194 3B68     		ldr	r3, [r7]
 4294 0196 0022     		movs	r2, #0
 4295 0198 2021     		movs	r1, #32
 4296 019a F868     		ldr	r0, [r7, #12]
 4297 019c FFF7FEFF 		bl	I2C_WaitOnFlagUntilTimeout
 4298 01a0 0346     		mov	r3, r0
 4299 01a2 002B     		cmp	r3, #0
 4300 01a4 03D1     		bne	.L281
 4301 01a6 FB68     		ldr	r3, [r7, #12]
 4302 01a8 1B68     		ldr	r3, [r3]
 4303 01aa 2022     		movs	r2, #32
 4304 01ac DA61     		str	r2, [r3, #28]
 4305              	.L281:
 4306 01ae 7B69     		ldr	r3, [r7, #20]
 4307 01b0 0133     		adds	r3, r3, #1
 4308 01b2 7B61     		str	r3, [r7, #20]
 4309 01b4 7B69     		ldr	r3, [r7, #20]
 4310 01b6 7A68     		ldr	r2, [r7, #4]
 4311 01b8 9A42     		cmp	r2, r3
 4312 01ba 3FF64EAF 		bhi	.L282
 4313 01be FB68     		ldr	r3, [r7, #12]
 4314 01c0 2022     		movs	r2, #32
 4315 01c2 83F84120 		strb	r2, [r3, #65]
 4316 01c6 FB68     		ldr	r3, [r7, #12]
 4317 01c8 5B6C     		ldr	r3, [r3, #68]
 4318 01ca 43F02002 		orr	r2, r3, #32
 4319 01ce FB68     		ldr	r3, [r7, #12]
 4320 01d0 5A64     		str	r2, [r3, #68]
ARM GAS  /var/folders/k1/1yttftd15rl7jxtpyc5m93n80000gn/T//ccqqVpOc.s 			page 76


 4321 01d2 FB68     		ldr	r3, [r7, #12]
 4322 01d4 0022     		movs	r2, #0
 4323 01d6 83F84020 		strb	r2, [r3, #64]
 4324 01da 0123     		movs	r3, #1
 4325 01dc 00E0     		b	.L270
 4326              	.L268:
 4327 01de 0223     		movs	r3, #2
 4328              	.L270:
 4329 01e0 1846     		mov	r0, r3
 4330 01e2 2037     		adds	r7, r7, #32
 4331 01e4 BD46     		mov	sp, r7
 4332              		@ sp needed
 4333 01e6 80BD     		pop	{r7, pc}
 4335              		.section	.text.HAL_I2C_Master_Seq_Transmit_IT,"ax",%progbits
 4336              		.align	1
 4337              		.global	HAL_I2C_Master_Seq_Transmit_IT
 4338              		.syntax unified
 4339              		.thumb
 4340              		.thumb_func
 4342              	HAL_I2C_Master_Seq_Transmit_IT:
 4343              		@ args = 4, pretend = 0, frame = 32
 4344              		@ frame_needed = 1, uses_anonymous_args = 0
 4345 0000 80B5     		push	{r7, lr}
 4346 0002 8AB0     		sub	sp, sp, #40
 4347 0004 02AF     		add	r7, sp, #8
 4348 0006 F860     		str	r0, [r7, #12]
 4349 0008 7A60     		str	r2, [r7, #4]
 4350 000a 1A46     		mov	r2, r3
 4351 000c 0B46     		mov	r3, r1	@ movhi
 4352 000e 7B81     		strh	r3, [r7, #10]	@ movhi
 4353 0010 1346     		mov	r3, r2	@ movhi
 4354 0012 3B81     		strh	r3, [r7, #8]	@ movhi
 4355 0014 574B     		ldr	r3, .L299
 4356 0016 BB61     		str	r3, [r7, #24]
 4357 0018 0023     		movs	r3, #0
 4358 001a 7B61     		str	r3, [r7, #20]
 4359 001c FB68     		ldr	r3, [r7, #12]
 4360 001e 93F84130 		ldrb	r3, [r3, #65]
 4361 0022 DBB2     		uxtb	r3, r3
 4362 0024 202B     		cmp	r3, #32
 4363 0026 40F09F80 		bne	.L284
 4364 002a FB68     		ldr	r3, [r7, #12]
 4365 002c 93F84030 		ldrb	r3, [r3, #64]	@ zero_extendqisi2
 4366 0030 012B     		cmp	r3, #1
 4367 0032 01D1     		bne	.L285
 4368 0034 0223     		movs	r3, #2
 4369 0036 98E0     		b	.L286
 4370              	.L285:
 4371 0038 FB68     		ldr	r3, [r7, #12]
 4372 003a 0122     		movs	r2, #1
 4373 003c 83F84020 		strb	r2, [r3, #64]
 4374 0040 FB68     		ldr	r3, [r7, #12]
 4375 0042 2122     		movs	r2, #33
 4376 0044 83F84120 		strb	r2, [r3, #65]
 4377 0048 FB68     		ldr	r3, [r7, #12]
 4378 004a 1022     		movs	r2, #16
 4379 004c 83F84220 		strb	r2, [r3, #66]
ARM GAS  /var/folders/k1/1yttftd15rl7jxtpyc5m93n80000gn/T//ccqqVpOc.s 			page 77


 4380 0050 FB68     		ldr	r3, [r7, #12]
 4381 0052 0022     		movs	r2, #0
 4382 0054 5A64     		str	r2, [r3, #68]
 4383 0056 FB68     		ldr	r3, [r7, #12]
 4384 0058 7A68     		ldr	r2, [r7, #4]
 4385 005a 5A62     		str	r2, [r3, #36]
 4386 005c FB68     		ldr	r3, [r7, #12]
 4387 005e 3A89     		ldrh	r2, [r7, #8]	@ movhi
 4388 0060 5A85     		strh	r2, [r3, #42]	@ movhi
 4389 0062 FB68     		ldr	r3, [r7, #12]
 4390 0064 BA6A     		ldr	r2, [r7, #40]
 4391 0066 DA62     		str	r2, [r3, #44]
 4392 0068 FB68     		ldr	r3, [r7, #12]
 4393 006a 434A     		ldr	r2, .L299+4
 4394 006c 5A63     		str	r2, [r3, #52]
 4395 006e FB68     		ldr	r3, [r7, #12]
 4396 0070 5B8D     		ldrh	r3, [r3, #42]	@ movhi
 4397 0072 9BB2     		uxth	r3, r3
 4398 0074 FF2B     		cmp	r3, #255
 4399 0076 06D9     		bls	.L287
 4400 0078 FB68     		ldr	r3, [r7, #12]
 4401 007a FF22     		movs	r2, #255
 4402 007c 1A85     		strh	r2, [r3, #40]	@ movhi
 4403 007e 4FF08073 		mov	r3, #16777216
 4404 0082 FB61     		str	r3, [r7, #28]
 4405 0084 07E0     		b	.L288
 4406              	.L287:
 4407 0086 FB68     		ldr	r3, [r7, #12]
 4408 0088 5B8D     		ldrh	r3, [r3, #42]	@ movhi
 4409 008a 9AB2     		uxth	r2, r3
 4410 008c FB68     		ldr	r3, [r7, #12]
 4411 008e 1A85     		strh	r2, [r3, #40]	@ movhi
 4412 0090 FB68     		ldr	r3, [r7, #12]
 4413 0092 DB6A     		ldr	r3, [r3, #44]
 4414 0094 FB61     		str	r3, [r7, #28]
 4415              	.L288:
 4416 0096 FB68     		ldr	r3, [r7, #12]
 4417 0098 1B8D     		ldrh	r3, [r3, #40]
 4418 009a 002B     		cmp	r3, #0
 4419 009c 21D0     		beq	.L289
 4420 009e BB6A     		ldr	r3, [r7, #40]
 4421 00a0 002B     		cmp	r3, #0
 4422 00a2 03D0     		beq	.L290
 4423 00a4 BB6A     		ldr	r3, [r7, #40]
 4424 00a6 B3F1007F 		cmp	r3, #33554432
 4425 00aa 1AD1     		bne	.L289
 4426              	.L290:
 4427 00ac FB68     		ldr	r3, [r7, #12]
 4428 00ae 5B6A     		ldr	r3, [r3, #36]
 4429 00b0 1A78     		ldrb	r2, [r3]	@ zero_extendqisi2
 4430 00b2 FB68     		ldr	r3, [r7, #12]
 4431 00b4 1B68     		ldr	r3, [r3]
 4432 00b6 9A62     		str	r2, [r3, #40]
 4433 00b8 FB68     		ldr	r3, [r7, #12]
 4434 00ba 5B6A     		ldr	r3, [r3, #36]
 4435 00bc 5A1C     		adds	r2, r3, #1
 4436 00be FB68     		ldr	r3, [r7, #12]
ARM GAS  /var/folders/k1/1yttftd15rl7jxtpyc5m93n80000gn/T//ccqqVpOc.s 			page 78


 4437 00c0 5A62     		str	r2, [r3, #36]
 4438 00c2 FB68     		ldr	r3, [r7, #12]
 4439 00c4 1B8D     		ldrh	r3, [r3, #40]
 4440 00c6 7B61     		str	r3, [r7, #20]
 4441 00c8 FB68     		ldr	r3, [r7, #12]
 4442 00ca 5B8D     		ldrh	r3, [r3, #42]	@ movhi
 4443 00cc 9BB2     		uxth	r3, r3
 4444 00ce 013B     		subs	r3, r3, #1
 4445 00d0 9AB2     		uxth	r2, r3
 4446 00d2 FB68     		ldr	r3, [r7, #12]
 4447 00d4 5A85     		strh	r2, [r3, #42]	@ movhi
 4448 00d6 FB68     		ldr	r3, [r7, #12]
 4449 00d8 1B8D     		ldrh	r3, [r3, #40]
 4450 00da 013B     		subs	r3, r3, #1
 4451 00dc 9AB2     		uxth	r2, r3
 4452 00de FB68     		ldr	r3, [r7, #12]
 4453 00e0 1A85     		strh	r2, [r3, #40]	@ movhi
 4454              	.L289:
 4455 00e2 FB68     		ldr	r3, [r7, #12]
 4456 00e4 1B6B     		ldr	r3, [r3, #48]
 4457 00e6 112B     		cmp	r3, #17
 4458 00e8 0ED1     		bne	.L291
 4459 00ea BB6A     		ldr	r3, [r7, #40]
 4460 00ec AA2B     		cmp	r3, #170
 4461 00ee 03D0     		beq	.L292
 4462 00f0 BB6A     		ldr	r3, [r7, #40]
 4463 00f2 B3F52A4F 		cmp	r3, #43520
 4464 00f6 01D1     		bne	.L293
 4465              	.L292:
 4466 00f8 0123     		movs	r3, #1
 4467 00fa 00E0     		b	.L294
 4468              	.L293:
 4469 00fc 0023     		movs	r3, #0
 4470              	.L294:
 4471 00fe 002B     		cmp	r3, #0
 4472 0100 02D1     		bne	.L291
 4473 0102 0023     		movs	r3, #0
 4474 0104 BB61     		str	r3, [r7, #24]
 4475 0106 0AE0     		b	.L295
 4476              	.L291:
 4477 0108 F868     		ldr	r0, [r7, #12]
 4478 010a FFF7FEFF 		bl	I2C_ConvertOtherXferOptions
 4479 010e FB68     		ldr	r3, [r7, #12]
 4480 0110 5B8D     		ldrh	r3, [r3, #42]	@ movhi
 4481 0112 9BB2     		uxth	r3, r3
 4482 0114 FF2B     		cmp	r3, #255
 4483 0116 02D8     		bhi	.L295
 4484 0118 FB68     		ldr	r3, [r7, #12]
 4485 011a DB6A     		ldr	r3, [r3, #44]
 4486 011c FB61     		str	r3, [r7, #28]
 4487              	.L295:
 4488 011e BB6A     		ldr	r3, [r7, #40]
 4489 0120 002B     		cmp	r3, #0
 4490 0122 03D0     		beq	.L296
 4491 0124 BB6A     		ldr	r3, [r7, #40]
 4492 0126 B3F1007F 		cmp	r3, #33554432
 4493 012a 09D1     		bne	.L297
ARM GAS  /var/folders/k1/1yttftd15rl7jxtpyc5m93n80000gn/T//ccqqVpOc.s 			page 79


 4494              	.L296:
 4495 012c 7B69     		ldr	r3, [r7, #20]
 4496 012e DAB2     		uxtb	r2, r3
 4497 0130 7989     		ldrh	r1, [r7, #10]
 4498 0132 BB69     		ldr	r3, [r7, #24]
 4499 0134 0093     		str	r3, [sp]
 4500 0136 FB69     		ldr	r3, [r7, #28]
 4501 0138 F868     		ldr	r0, [r7, #12]
 4502 013a FFF7FEFF 		bl	I2C_TransferConfig
 4503 013e 09E0     		b	.L298
 4504              	.L297:
 4505 0140 FB68     		ldr	r3, [r7, #12]
 4506 0142 1B8D     		ldrh	r3, [r3, #40]
 4507 0144 DAB2     		uxtb	r2, r3
 4508 0146 7989     		ldrh	r1, [r7, #10]
 4509 0148 BB69     		ldr	r3, [r7, #24]
 4510 014a 0093     		str	r3, [sp]
 4511 014c FB69     		ldr	r3, [r7, #28]
 4512 014e F868     		ldr	r0, [r7, #12]
 4513 0150 FFF7FEFF 		bl	I2C_TransferConfig
 4514              	.L298:
 4515 0154 FB68     		ldr	r3, [r7, #12]
 4516 0156 0022     		movs	r2, #0
 4517 0158 83F84020 		strb	r2, [r3, #64]
 4518 015c 0121     		movs	r1, #1
 4519 015e F868     		ldr	r0, [r7, #12]
 4520 0160 FFF7FEFF 		bl	I2C_Enable_IRQ
 4521 0164 0023     		movs	r3, #0
 4522 0166 00E0     		b	.L286
 4523              	.L284:
 4524 0168 0223     		movs	r3, #2
 4525              	.L286:
 4526 016a 1846     		mov	r0, r3
 4527 016c 2037     		adds	r7, r7, #32
 4528 016e BD46     		mov	sp, r7
 4529              		@ sp needed
 4530 0170 80BD     		pop	{r7, pc}
 4531              	.L300:
 4532 0172 00BF     		.align	2
 4533              	.L299:
 4534 0174 00200080 		.word	-2147475456
 4535 0178 00000000 		.word	I2C_Master_ISR_IT
 4537              		.section	.text.HAL_I2C_Master_Seq_Transmit_DMA,"ax",%progbits
 4538              		.align	1
 4539              		.global	HAL_I2C_Master_Seq_Transmit_DMA
 4540              		.syntax unified
 4541              		.thumb
 4542              		.thumb_func
 4544              	HAL_I2C_Master_Seq_Transmit_DMA:
 4545              		@ args = 4, pretend = 0, frame = 32
 4546              		@ frame_needed = 1, uses_anonymous_args = 0
 4547 0000 80B5     		push	{r7, lr}
 4548 0002 8AB0     		sub	sp, sp, #40
 4549 0004 02AF     		add	r7, sp, #8
 4550 0006 F860     		str	r0, [r7, #12]
 4551 0008 7A60     		str	r2, [r7, #4]
 4552 000a 1A46     		mov	r2, r3
ARM GAS  /var/folders/k1/1yttftd15rl7jxtpyc5m93n80000gn/T//ccqqVpOc.s 			page 80


 4553 000c 0B46     		mov	r3, r1	@ movhi
 4554 000e 7B81     		strh	r3, [r7, #10]	@ movhi
 4555 0010 1346     		mov	r3, r2	@ movhi
 4556 0012 3B81     		strh	r3, [r7, #8]	@ movhi
 4557 0014 904B     		ldr	r3, .L326
 4558 0016 BB61     		str	r3, [r7, #24]
 4559 0018 0023     		movs	r3, #0
 4560 001a 7B61     		str	r3, [r7, #20]
 4561 001c FB68     		ldr	r3, [r7, #12]
 4562 001e 93F84130 		ldrb	r3, [r3, #65]
 4563 0022 DBB2     		uxtb	r3, r3
 4564 0024 202B     		cmp	r3, #32
 4565 0026 40F03581 		bne	.L302
 4566 002a FB68     		ldr	r3, [r7, #12]
 4567 002c 93F84030 		ldrb	r3, [r3, #64]	@ zero_extendqisi2
 4568 0030 012B     		cmp	r3, #1
 4569 0032 01D1     		bne	.L303
 4570 0034 0223     		movs	r3, #2
 4571 0036 2EE1     		b	.L304
 4572              	.L303:
 4573 0038 FB68     		ldr	r3, [r7, #12]
 4574 003a 0122     		movs	r2, #1
 4575 003c 83F84020 		strb	r2, [r3, #64]
 4576 0040 FB68     		ldr	r3, [r7, #12]
 4577 0042 2122     		movs	r2, #33
 4578 0044 83F84120 		strb	r2, [r3, #65]
 4579 0048 FB68     		ldr	r3, [r7, #12]
 4580 004a 1022     		movs	r2, #16
 4581 004c 83F84220 		strb	r2, [r3, #66]
 4582 0050 FB68     		ldr	r3, [r7, #12]
 4583 0052 0022     		movs	r2, #0
 4584 0054 5A64     		str	r2, [r3, #68]
 4585 0056 FB68     		ldr	r3, [r7, #12]
 4586 0058 7A68     		ldr	r2, [r7, #4]
 4587 005a 5A62     		str	r2, [r3, #36]
 4588 005c FB68     		ldr	r3, [r7, #12]
 4589 005e 3A89     		ldrh	r2, [r7, #8]	@ movhi
 4590 0060 5A85     		strh	r2, [r3, #42]	@ movhi
 4591 0062 FB68     		ldr	r3, [r7, #12]
 4592 0064 BA6A     		ldr	r2, [r7, #40]
 4593 0066 DA62     		str	r2, [r3, #44]
 4594 0068 FB68     		ldr	r3, [r7, #12]
 4595 006a 7C4A     		ldr	r2, .L326+4
 4596 006c 5A63     		str	r2, [r3, #52]
 4597 006e FB68     		ldr	r3, [r7, #12]
 4598 0070 5B8D     		ldrh	r3, [r3, #42]	@ movhi
 4599 0072 9BB2     		uxth	r3, r3
 4600 0074 FF2B     		cmp	r3, #255
 4601 0076 06D9     		bls	.L305
 4602 0078 FB68     		ldr	r3, [r7, #12]
 4603 007a FF22     		movs	r2, #255
 4604 007c 1A85     		strh	r2, [r3, #40]	@ movhi
 4605 007e 4FF08073 		mov	r3, #16777216
 4606 0082 FB61     		str	r3, [r7, #28]
 4607 0084 07E0     		b	.L306
 4608              	.L305:
 4609 0086 FB68     		ldr	r3, [r7, #12]
ARM GAS  /var/folders/k1/1yttftd15rl7jxtpyc5m93n80000gn/T//ccqqVpOc.s 			page 81


 4610 0088 5B8D     		ldrh	r3, [r3, #42]	@ movhi
 4611 008a 9AB2     		uxth	r2, r3
 4612 008c FB68     		ldr	r3, [r7, #12]
 4613 008e 1A85     		strh	r2, [r3, #40]	@ movhi
 4614 0090 FB68     		ldr	r3, [r7, #12]
 4615 0092 DB6A     		ldr	r3, [r3, #44]
 4616 0094 FB61     		str	r3, [r7, #28]
 4617              	.L306:
 4618 0096 FB68     		ldr	r3, [r7, #12]
 4619 0098 1B8D     		ldrh	r3, [r3, #40]
 4620 009a 002B     		cmp	r3, #0
 4621 009c 21D0     		beq	.L307
 4622 009e BB6A     		ldr	r3, [r7, #40]
 4623 00a0 002B     		cmp	r3, #0
 4624 00a2 03D0     		beq	.L308
 4625 00a4 BB6A     		ldr	r3, [r7, #40]
 4626 00a6 B3F1007F 		cmp	r3, #33554432
 4627 00aa 1AD1     		bne	.L307
 4628              	.L308:
 4629 00ac FB68     		ldr	r3, [r7, #12]
 4630 00ae 5B6A     		ldr	r3, [r3, #36]
 4631 00b0 1A78     		ldrb	r2, [r3]	@ zero_extendqisi2
 4632 00b2 FB68     		ldr	r3, [r7, #12]
 4633 00b4 1B68     		ldr	r3, [r3]
 4634 00b6 9A62     		str	r2, [r3, #40]
 4635 00b8 FB68     		ldr	r3, [r7, #12]
 4636 00ba 5B6A     		ldr	r3, [r3, #36]
 4637 00bc 5A1C     		adds	r2, r3, #1
 4638 00be FB68     		ldr	r3, [r7, #12]
 4639 00c0 5A62     		str	r2, [r3, #36]
 4640 00c2 FB68     		ldr	r3, [r7, #12]
 4641 00c4 1B8D     		ldrh	r3, [r3, #40]
 4642 00c6 7B61     		str	r3, [r7, #20]
 4643 00c8 FB68     		ldr	r3, [r7, #12]
 4644 00ca 5B8D     		ldrh	r3, [r3, #42]	@ movhi
 4645 00cc 9BB2     		uxth	r3, r3
 4646 00ce 013B     		subs	r3, r3, #1
 4647 00d0 9AB2     		uxth	r2, r3
 4648 00d2 FB68     		ldr	r3, [r7, #12]
 4649 00d4 5A85     		strh	r2, [r3, #42]	@ movhi
 4650 00d6 FB68     		ldr	r3, [r7, #12]
 4651 00d8 1B8D     		ldrh	r3, [r3, #40]
 4652 00da 013B     		subs	r3, r3, #1
 4653 00dc 9AB2     		uxth	r2, r3
 4654 00de FB68     		ldr	r3, [r7, #12]
 4655 00e0 1A85     		strh	r2, [r3, #40]	@ movhi
 4656              	.L307:
 4657 00e2 FB68     		ldr	r3, [r7, #12]
 4658 00e4 1B6B     		ldr	r3, [r3, #48]
 4659 00e6 112B     		cmp	r3, #17
 4660 00e8 0ED1     		bne	.L309
 4661 00ea BB6A     		ldr	r3, [r7, #40]
 4662 00ec AA2B     		cmp	r3, #170
 4663 00ee 03D0     		beq	.L310
 4664 00f0 BB6A     		ldr	r3, [r7, #40]
 4665 00f2 B3F52A4F 		cmp	r3, #43520
 4666 00f6 01D1     		bne	.L311
ARM GAS  /var/folders/k1/1yttftd15rl7jxtpyc5m93n80000gn/T//ccqqVpOc.s 			page 82


 4667              	.L310:
 4668 00f8 0123     		movs	r3, #1
 4669 00fa 00E0     		b	.L312
 4670              	.L311:
 4671 00fc 0023     		movs	r3, #0
 4672              	.L312:
 4673 00fe 002B     		cmp	r3, #0
 4674 0100 02D1     		bne	.L309
 4675 0102 0023     		movs	r3, #0
 4676 0104 BB61     		str	r3, [r7, #24]
 4677 0106 0AE0     		b	.L313
 4678              	.L309:
 4679 0108 F868     		ldr	r0, [r7, #12]
 4680 010a FFF7FEFF 		bl	I2C_ConvertOtherXferOptions
 4681 010e FB68     		ldr	r3, [r7, #12]
 4682 0110 5B8D     		ldrh	r3, [r3, #42]	@ movhi
 4683 0112 9BB2     		uxth	r3, r3
 4684 0114 FF2B     		cmp	r3, #255
 4685 0116 02D8     		bhi	.L313
 4686 0118 FB68     		ldr	r3, [r7, #12]
 4687 011a DB6A     		ldr	r3, [r3, #44]
 4688 011c FB61     		str	r3, [r7, #28]
 4689              	.L313:
 4690 011e FB68     		ldr	r3, [r7, #12]
 4691 0120 1B8D     		ldrh	r3, [r3, #40]
 4692 0122 002B     		cmp	r3, #0
 4693 0124 00F08480 		beq	.L314
 4694 0128 FB68     		ldr	r3, [r7, #12]
 4695 012a 9B6B     		ldr	r3, [r3, #56]
 4696 012c 002B     		cmp	r3, #0
 4697 012e 22D0     		beq	.L315
 4698 0130 FB68     		ldr	r3, [r7, #12]
 4699 0132 9B6B     		ldr	r3, [r3, #56]
 4700 0134 4A4A     		ldr	r2, .L326+8
 4701 0136 DA62     		str	r2, [r3, #44]
 4702 0138 FB68     		ldr	r3, [r7, #12]
 4703 013a 9B6B     		ldr	r3, [r3, #56]
 4704 013c 494A     		ldr	r2, .L326+12
 4705 013e 5A63     		str	r2, [r3, #52]
 4706 0140 FB68     		ldr	r3, [r7, #12]
 4707 0142 9B6B     		ldr	r3, [r3, #56]
 4708 0144 0022     		movs	r2, #0
 4709 0146 1A63     		str	r2, [r3, #48]
 4710 0148 FB68     		ldr	r3, [r7, #12]
 4711 014a 9B6B     		ldr	r3, [r3, #56]
 4712 014c 0022     		movs	r2, #0
 4713 014e 9A63     		str	r2, [r3, #56]
 4714 0150 FB68     		ldr	r3, [r7, #12]
 4715 0152 986B     		ldr	r0, [r3, #56]
 4716 0154 FB68     		ldr	r3, [r7, #12]
 4717 0156 5B6A     		ldr	r3, [r3, #36]
 4718 0158 1946     		mov	r1, r3
 4719 015a FB68     		ldr	r3, [r7, #12]
 4720 015c 1B68     		ldr	r3, [r3]
 4721 015e 2833     		adds	r3, r3, #40
 4722 0160 1A46     		mov	r2, r3
 4723 0162 FB68     		ldr	r3, [r7, #12]
ARM GAS  /var/folders/k1/1yttftd15rl7jxtpyc5m93n80000gn/T//ccqqVpOc.s 			page 83


 4724 0164 1B8D     		ldrh	r3, [r3, #40]
 4725 0166 FFF7FEFF 		bl	HAL_DMA_Start_IT
 4726 016a 0346     		mov	r3, r0
 4727 016c FB74     		strb	r3, [r7, #19]
 4728 016e FB7C     		ldrb	r3, [r7, #19]	@ zero_extendqisi2
 4729 0170 002B     		cmp	r3, #0
 4730 0172 49D1     		bne	.L317
 4731 0174 13E0     		b	.L325
 4732              	.L315:
 4733 0176 FB68     		ldr	r3, [r7, #12]
 4734 0178 2022     		movs	r2, #32
 4735 017a 83F84120 		strb	r2, [r3, #65]
 4736 017e FB68     		ldr	r3, [r7, #12]
 4737 0180 0022     		movs	r2, #0
 4738 0182 83F84220 		strb	r2, [r3, #66]
 4739 0186 FB68     		ldr	r3, [r7, #12]
 4740 0188 5B6C     		ldr	r3, [r3, #68]
 4741 018a 43F08002 		orr	r2, r3, #128
 4742 018e FB68     		ldr	r3, [r7, #12]
 4743 0190 5A64     		str	r2, [r3, #68]
 4744 0192 FB68     		ldr	r3, [r7, #12]
 4745 0194 0022     		movs	r2, #0
 4746 0196 83F84020 		strb	r2, [r3, #64]
 4747 019a 0123     		movs	r3, #1
 4748 019c 7BE0     		b	.L304
 4749              	.L325:
 4750 019e BB6A     		ldr	r3, [r7, #40]
 4751 01a0 002B     		cmp	r3, #0
 4752 01a2 03D0     		beq	.L318
 4753 01a4 BB6A     		ldr	r3, [r7, #40]
 4754 01a6 B3F1007F 		cmp	r3, #33554432
 4755 01aa 09D1     		bne	.L319
 4756              	.L318:
 4757 01ac 7B69     		ldr	r3, [r7, #20]
 4758 01ae DAB2     		uxtb	r2, r3
 4759 01b0 7989     		ldrh	r1, [r7, #10]
 4760 01b2 BB69     		ldr	r3, [r7, #24]
 4761 01b4 0093     		str	r3, [sp]
 4762 01b6 FB69     		ldr	r3, [r7, #28]
 4763 01b8 F868     		ldr	r0, [r7, #12]
 4764 01ba FFF7FEFF 		bl	I2C_TransferConfig
 4765 01be 09E0     		b	.L320
 4766              	.L319:
 4767 01c0 FB68     		ldr	r3, [r7, #12]
 4768 01c2 1B8D     		ldrh	r3, [r3, #40]
 4769 01c4 DAB2     		uxtb	r2, r3
 4770 01c6 7989     		ldrh	r1, [r7, #10]
 4771 01c8 BB69     		ldr	r3, [r7, #24]
 4772 01ca 0093     		str	r3, [sp]
 4773 01cc FB69     		ldr	r3, [r7, #28]
 4774 01ce F868     		ldr	r0, [r7, #12]
 4775 01d0 FFF7FEFF 		bl	I2C_TransferConfig
 4776              	.L320:
 4777 01d4 FB68     		ldr	r3, [r7, #12]
 4778 01d6 5B8D     		ldrh	r3, [r3, #42]	@ movhi
 4779 01d8 9AB2     		uxth	r2, r3
 4780 01da FB68     		ldr	r3, [r7, #12]
ARM GAS  /var/folders/k1/1yttftd15rl7jxtpyc5m93n80000gn/T//ccqqVpOc.s 			page 84


 4781 01dc 1B8D     		ldrh	r3, [r3, #40]
 4782 01de D31A     		subs	r3, r2, r3
 4783 01e0 9AB2     		uxth	r2, r3
 4784 01e2 FB68     		ldr	r3, [r7, #12]
 4785 01e4 5A85     		strh	r2, [r3, #42]	@ movhi
 4786 01e6 FB68     		ldr	r3, [r7, #12]
 4787 01e8 0022     		movs	r2, #0
 4788 01ea 83F84020 		strb	r2, [r3, #64]
 4789 01ee 1021     		movs	r1, #16
 4790 01f0 F868     		ldr	r0, [r7, #12]
 4791 01f2 FFF7FEFF 		bl	I2C_Enable_IRQ
 4792 01f6 FB68     		ldr	r3, [r7, #12]
 4793 01f8 1B68     		ldr	r3, [r3]
 4794 01fa 1A68     		ldr	r2, [r3]
 4795 01fc FB68     		ldr	r3, [r7, #12]
 4796 01fe 1B68     		ldr	r3, [r3]
 4797 0200 42F48042 		orr	r2, r2, #16384
 4798 0204 1A60     		str	r2, [r3]
 4799 0206 43E0     		b	.L321
 4800              	.L317:
 4801 0208 FB68     		ldr	r3, [r7, #12]
 4802 020a 2022     		movs	r2, #32
 4803 020c 83F84120 		strb	r2, [r3, #65]
 4804 0210 FB68     		ldr	r3, [r7, #12]
 4805 0212 0022     		movs	r2, #0
 4806 0214 83F84220 		strb	r2, [r3, #66]
 4807 0218 FB68     		ldr	r3, [r7, #12]
 4808 021a 5B6C     		ldr	r3, [r3, #68]
 4809 021c 43F01002 		orr	r2, r3, #16
 4810 0220 FB68     		ldr	r3, [r7, #12]
 4811 0222 5A64     		str	r2, [r3, #68]
 4812 0224 FB68     		ldr	r3, [r7, #12]
 4813 0226 0022     		movs	r2, #0
 4814 0228 83F84020 		strb	r2, [r3, #64]
 4815 022c 0123     		movs	r3, #1
 4816 022e 32E0     		b	.L304
 4817              	.L314:
 4818 0230 FB68     		ldr	r3, [r7, #12]
 4819 0232 0D4A     		ldr	r2, .L326+16
 4820 0234 5A63     		str	r2, [r3, #52]
 4821 0236 BB6A     		ldr	r3, [r7, #40]
 4822 0238 002B     		cmp	r3, #0
 4823 023a 03D0     		beq	.L322
 4824 023c BB6A     		ldr	r3, [r7, #40]
 4825 023e B3F1007F 		cmp	r3, #33554432
 4826 0242 13D1     		bne	.L323
 4827              	.L322:
 4828 0244 7B69     		ldr	r3, [r7, #20]
 4829 0246 DAB2     		uxtb	r2, r3
 4830 0248 7989     		ldrh	r1, [r7, #10]
 4831 024a BB69     		ldr	r3, [r7, #24]
 4832 024c 0093     		str	r3, [sp]
 4833 024e FB69     		ldr	r3, [r7, #28]
 4834 0250 F868     		ldr	r0, [r7, #12]
 4835 0252 FFF7FEFF 		bl	I2C_TransferConfig
 4836 0256 13E0     		b	.L324
 4837              	.L327:
ARM GAS  /var/folders/k1/1yttftd15rl7jxtpyc5m93n80000gn/T//ccqqVpOc.s 			page 85


 4838              		.align	2
 4839              	.L326:
 4840 0258 00200080 		.word	-2147475456
 4841 025c 00000000 		.word	I2C_Master_ISR_DMA
 4842 0260 00000000 		.word	I2C_DMAMasterTransmitCplt
 4843 0264 00000000 		.word	I2C_DMAError
 4844 0268 00000000 		.word	I2C_Master_ISR_IT
 4845              	.L323:
 4846 026c FB68     		ldr	r3, [r7, #12]
 4847 026e 1B8D     		ldrh	r3, [r3, #40]
 4848 0270 DAB2     		uxtb	r2, r3
 4849 0272 7989     		ldrh	r1, [r7, #10]
 4850 0274 BB69     		ldr	r3, [r7, #24]
 4851 0276 0093     		str	r3, [sp]
 4852 0278 FB69     		ldr	r3, [r7, #28]
 4853 027a F868     		ldr	r0, [r7, #12]
 4854 027c FFF7FEFF 		bl	I2C_TransferConfig
 4855              	.L324:
 4856 0280 FB68     		ldr	r3, [r7, #12]
 4857 0282 0022     		movs	r2, #0
 4858 0284 83F84020 		strb	r2, [r3, #64]
 4859 0288 0121     		movs	r1, #1
 4860 028a F868     		ldr	r0, [r7, #12]
 4861 028c FFF7FEFF 		bl	I2C_Enable_IRQ
 4862              	.L321:
 4863 0290 0023     		movs	r3, #0
 4864 0292 00E0     		b	.L304
 4865              	.L302:
 4866 0294 0223     		movs	r3, #2
 4867              	.L304:
 4868 0296 1846     		mov	r0, r3
 4869 0298 2037     		adds	r7, r7, #32
 4870 029a BD46     		mov	sp, r7
 4871              		@ sp needed
 4872 029c 80BD     		pop	{r7, pc}
 4874 029e 00BF     		.section	.text.HAL_I2C_Master_Seq_Receive_IT,"ax",%progbits
 4875              		.align	1
 4876              		.global	HAL_I2C_Master_Seq_Receive_IT
 4877              		.syntax unified
 4878              		.thumb
 4879              		.thumb_func
 4881              	HAL_I2C_Master_Seq_Receive_IT:
 4882              		@ args = 4, pretend = 0, frame = 24
 4883              		@ frame_needed = 1, uses_anonymous_args = 0
 4884 0000 80B5     		push	{r7, lr}
 4885 0002 88B0     		sub	sp, sp, #32
 4886 0004 02AF     		add	r7, sp, #8
 4887 0006 F860     		str	r0, [r7, #12]
 4888 0008 7A60     		str	r2, [r7, #4]
 4889 000a 1A46     		mov	r2, r3
 4890 000c 0B46     		mov	r3, r1	@ movhi
 4891 000e 7B81     		strh	r3, [r7, #10]	@ movhi
 4892 0010 1346     		mov	r3, r2	@ movhi
 4893 0012 3B81     		strh	r3, [r7, #8]	@ movhi
 4894 0014 3A4B     		ldr	r3, .L339
 4895 0016 3B61     		str	r3, [r7, #16]
 4896 0018 FB68     		ldr	r3, [r7, #12]
ARM GAS  /var/folders/k1/1yttftd15rl7jxtpyc5m93n80000gn/T//ccqqVpOc.s 			page 86


 4897 001a 93F84130 		ldrb	r3, [r3, #65]
 4898 001e DBB2     		uxtb	r3, r3
 4899 0020 202B     		cmp	r3, #32
 4900 0022 67D1     		bne	.L329
 4901 0024 FB68     		ldr	r3, [r7, #12]
 4902 0026 93F84030 		ldrb	r3, [r3, #64]	@ zero_extendqisi2
 4903 002a 012B     		cmp	r3, #1
 4904 002c 01D1     		bne	.L330
 4905 002e 0223     		movs	r3, #2
 4906 0030 61E0     		b	.L331
 4907              	.L330:
 4908 0032 FB68     		ldr	r3, [r7, #12]
 4909 0034 0122     		movs	r2, #1
 4910 0036 83F84020 		strb	r2, [r3, #64]
 4911 003a FB68     		ldr	r3, [r7, #12]
 4912 003c 2222     		movs	r2, #34
 4913 003e 83F84120 		strb	r2, [r3, #65]
 4914 0042 FB68     		ldr	r3, [r7, #12]
 4915 0044 1022     		movs	r2, #16
 4916 0046 83F84220 		strb	r2, [r3, #66]
 4917 004a FB68     		ldr	r3, [r7, #12]
 4918 004c 0022     		movs	r2, #0
 4919 004e 5A64     		str	r2, [r3, #68]
 4920 0050 FB68     		ldr	r3, [r7, #12]
 4921 0052 7A68     		ldr	r2, [r7, #4]
 4922 0054 5A62     		str	r2, [r3, #36]
 4923 0056 FB68     		ldr	r3, [r7, #12]
 4924 0058 3A89     		ldrh	r2, [r7, #8]	@ movhi
 4925 005a 5A85     		strh	r2, [r3, #42]	@ movhi
 4926 005c FB68     		ldr	r3, [r7, #12]
 4927 005e 3A6A     		ldr	r2, [r7, #32]
 4928 0060 DA62     		str	r2, [r3, #44]
 4929 0062 FB68     		ldr	r3, [r7, #12]
 4930 0064 274A     		ldr	r2, .L339+4
 4931 0066 5A63     		str	r2, [r3, #52]
 4932 0068 FB68     		ldr	r3, [r7, #12]
 4933 006a 5B8D     		ldrh	r3, [r3, #42]	@ movhi
 4934 006c 9BB2     		uxth	r3, r3
 4935 006e FF2B     		cmp	r3, #255
 4936 0070 06D9     		bls	.L332
 4937 0072 FB68     		ldr	r3, [r7, #12]
 4938 0074 FF22     		movs	r2, #255
 4939 0076 1A85     		strh	r2, [r3, #40]	@ movhi
 4940 0078 4FF08073 		mov	r3, #16777216
 4941 007c 7B61     		str	r3, [r7, #20]
 4942 007e 07E0     		b	.L333
 4943              	.L332:
 4944 0080 FB68     		ldr	r3, [r7, #12]
 4945 0082 5B8D     		ldrh	r3, [r3, #42]	@ movhi
 4946 0084 9AB2     		uxth	r2, r3
 4947 0086 FB68     		ldr	r3, [r7, #12]
 4948 0088 1A85     		strh	r2, [r3, #40]	@ movhi
 4949 008a FB68     		ldr	r3, [r7, #12]
 4950 008c DB6A     		ldr	r3, [r3, #44]
 4951 008e 7B61     		str	r3, [r7, #20]
 4952              	.L333:
 4953 0090 FB68     		ldr	r3, [r7, #12]
ARM GAS  /var/folders/k1/1yttftd15rl7jxtpyc5m93n80000gn/T//ccqqVpOc.s 			page 87


 4954 0092 1B6B     		ldr	r3, [r3, #48]
 4955 0094 122B     		cmp	r3, #18
 4956 0096 0ED1     		bne	.L334
 4957 0098 3B6A     		ldr	r3, [r7, #32]
 4958 009a AA2B     		cmp	r3, #170
 4959 009c 03D0     		beq	.L335
 4960 009e 3B6A     		ldr	r3, [r7, #32]
 4961 00a0 B3F52A4F 		cmp	r3, #43520
 4962 00a4 01D1     		bne	.L336
 4963              	.L335:
 4964 00a6 0123     		movs	r3, #1
 4965 00a8 00E0     		b	.L337
 4966              	.L336:
 4967 00aa 0023     		movs	r3, #0
 4968              	.L337:
 4969 00ac 002B     		cmp	r3, #0
 4970 00ae 02D1     		bne	.L334
 4971 00b0 0023     		movs	r3, #0
 4972 00b2 3B61     		str	r3, [r7, #16]
 4973 00b4 0AE0     		b	.L338
 4974              	.L334:
 4975 00b6 F868     		ldr	r0, [r7, #12]
 4976 00b8 FFF7FEFF 		bl	I2C_ConvertOtherXferOptions
 4977 00bc FB68     		ldr	r3, [r7, #12]
 4978 00be 5B8D     		ldrh	r3, [r3, #42]	@ movhi
 4979 00c0 9BB2     		uxth	r3, r3
 4980 00c2 FF2B     		cmp	r3, #255
 4981 00c4 02D8     		bhi	.L338
 4982 00c6 FB68     		ldr	r3, [r7, #12]
 4983 00c8 DB6A     		ldr	r3, [r3, #44]
 4984 00ca 7B61     		str	r3, [r7, #20]
 4985              	.L338:
 4986 00cc FB68     		ldr	r3, [r7, #12]
 4987 00ce 1B8D     		ldrh	r3, [r3, #40]
 4988 00d0 DAB2     		uxtb	r2, r3
 4989 00d2 7989     		ldrh	r1, [r7, #10]
 4990 00d4 3B69     		ldr	r3, [r7, #16]
 4991 00d6 0093     		str	r3, [sp]
 4992 00d8 7B69     		ldr	r3, [r7, #20]
 4993 00da F868     		ldr	r0, [r7, #12]
 4994 00dc FFF7FEFF 		bl	I2C_TransferConfig
 4995 00e0 FB68     		ldr	r3, [r7, #12]
 4996 00e2 0022     		movs	r2, #0
 4997 00e4 83F84020 		strb	r2, [r3, #64]
 4998 00e8 0221     		movs	r1, #2
 4999 00ea F868     		ldr	r0, [r7, #12]
 5000 00ec FFF7FEFF 		bl	I2C_Enable_IRQ
 5001 00f0 0023     		movs	r3, #0
 5002 00f2 00E0     		b	.L331
 5003              	.L329:
 5004 00f4 0223     		movs	r3, #2
 5005              	.L331:
 5006 00f6 1846     		mov	r0, r3
 5007 00f8 1837     		adds	r7, r7, #24
 5008 00fa BD46     		mov	sp, r7
 5009              		@ sp needed
 5010 00fc 80BD     		pop	{r7, pc}
ARM GAS  /var/folders/k1/1yttftd15rl7jxtpyc5m93n80000gn/T//ccqqVpOc.s 			page 88


 5011              	.L340:
 5012 00fe 00BF     		.align	2
 5013              	.L339:
 5014 0100 00240080 		.word	-2147474432
 5015 0104 00000000 		.word	I2C_Master_ISR_IT
 5017              		.section	.text.HAL_I2C_Master_Seq_Receive_DMA,"ax",%progbits
 5018              		.align	1
 5019              		.global	HAL_I2C_Master_Seq_Receive_DMA
 5020              		.syntax unified
 5021              		.thumb
 5022              		.thumb_func
 5024              	HAL_I2C_Master_Seq_Receive_DMA:
 5025              		@ args = 4, pretend = 0, frame = 32
 5026              		@ frame_needed = 1, uses_anonymous_args = 0
 5027 0000 80B5     		push	{r7, lr}
 5028 0002 8AB0     		sub	sp, sp, #40
 5029 0004 02AF     		add	r7, sp, #8
 5030 0006 F860     		str	r0, [r7, #12]
 5031 0008 7A60     		str	r2, [r7, #4]
 5032 000a 1A46     		mov	r2, r3
 5033 000c 0B46     		mov	r3, r1	@ movhi
 5034 000e 7B81     		strh	r3, [r7, #10]	@ movhi
 5035 0010 1346     		mov	r3, r2	@ movhi
 5036 0012 3B81     		strh	r3, [r7, #8]	@ movhi
 5037 0014 774B     		ldr	r3, .L358
 5038 0016 BB61     		str	r3, [r7, #24]
 5039 0018 FB68     		ldr	r3, [r7, #12]
 5040 001a 93F84130 		ldrb	r3, [r3, #65]
 5041 001e DBB2     		uxtb	r3, r3
 5042 0020 202B     		cmp	r3, #32
 5043 0022 40F0E180 		bne	.L342
 5044 0026 FB68     		ldr	r3, [r7, #12]
 5045 0028 93F84030 		ldrb	r3, [r3, #64]	@ zero_extendqisi2
 5046 002c 012B     		cmp	r3, #1
 5047 002e 01D1     		bne	.L343
 5048 0030 0223     		movs	r3, #2
 5049 0032 DAE0     		b	.L344
 5050              	.L343:
 5051 0034 FB68     		ldr	r3, [r7, #12]
 5052 0036 0122     		movs	r2, #1
 5053 0038 83F84020 		strb	r2, [r3, #64]
 5054 003c FB68     		ldr	r3, [r7, #12]
 5055 003e 2222     		movs	r2, #34
 5056 0040 83F84120 		strb	r2, [r3, #65]
 5057 0044 FB68     		ldr	r3, [r7, #12]
 5058 0046 1022     		movs	r2, #16
 5059 0048 83F84220 		strb	r2, [r3, #66]
 5060 004c FB68     		ldr	r3, [r7, #12]
 5061 004e 0022     		movs	r2, #0
 5062 0050 5A64     		str	r2, [r3, #68]
 5063 0052 FB68     		ldr	r3, [r7, #12]
 5064 0054 7A68     		ldr	r2, [r7, #4]
 5065 0056 5A62     		str	r2, [r3, #36]
 5066 0058 FB68     		ldr	r3, [r7, #12]
 5067 005a 3A89     		ldrh	r2, [r7, #8]	@ movhi
 5068 005c 5A85     		strh	r2, [r3, #42]	@ movhi
 5069 005e FB68     		ldr	r3, [r7, #12]
ARM GAS  /var/folders/k1/1yttftd15rl7jxtpyc5m93n80000gn/T//ccqqVpOc.s 			page 89


 5070 0060 BA6A     		ldr	r2, [r7, #40]
 5071 0062 DA62     		str	r2, [r3, #44]
 5072 0064 FB68     		ldr	r3, [r7, #12]
 5073 0066 644A     		ldr	r2, .L358+4
 5074 0068 5A63     		str	r2, [r3, #52]
 5075 006a FB68     		ldr	r3, [r7, #12]
 5076 006c 5B8D     		ldrh	r3, [r3, #42]	@ movhi
 5077 006e 9BB2     		uxth	r3, r3
 5078 0070 FF2B     		cmp	r3, #255
 5079 0072 06D9     		bls	.L345
 5080 0074 FB68     		ldr	r3, [r7, #12]
 5081 0076 FF22     		movs	r2, #255
 5082 0078 1A85     		strh	r2, [r3, #40]	@ movhi
 5083 007a 4FF08073 		mov	r3, #16777216
 5084 007e FB61     		str	r3, [r7, #28]
 5085 0080 07E0     		b	.L346
 5086              	.L345:
 5087 0082 FB68     		ldr	r3, [r7, #12]
 5088 0084 5B8D     		ldrh	r3, [r3, #42]	@ movhi
 5089 0086 9AB2     		uxth	r2, r3
 5090 0088 FB68     		ldr	r3, [r7, #12]
 5091 008a 1A85     		strh	r2, [r3, #40]	@ movhi
 5092 008c FB68     		ldr	r3, [r7, #12]
 5093 008e DB6A     		ldr	r3, [r3, #44]
 5094 0090 FB61     		str	r3, [r7, #28]
 5095              	.L346:
 5096 0092 FB68     		ldr	r3, [r7, #12]
 5097 0094 1B6B     		ldr	r3, [r3, #48]
 5098 0096 122B     		cmp	r3, #18
 5099 0098 0ED1     		bne	.L347
 5100 009a BB6A     		ldr	r3, [r7, #40]
 5101 009c AA2B     		cmp	r3, #170
 5102 009e 03D0     		beq	.L348
 5103 00a0 BB6A     		ldr	r3, [r7, #40]
 5104 00a2 B3F52A4F 		cmp	r3, #43520
 5105 00a6 01D1     		bne	.L349
 5106              	.L348:
 5107 00a8 0123     		movs	r3, #1
 5108 00aa 00E0     		b	.L350
 5109              	.L349:
 5110 00ac 0023     		movs	r3, #0
 5111              	.L350:
 5112 00ae 002B     		cmp	r3, #0
 5113 00b0 02D1     		bne	.L347
 5114 00b2 0023     		movs	r3, #0
 5115 00b4 BB61     		str	r3, [r7, #24]
 5116 00b6 0AE0     		b	.L351
 5117              	.L347:
 5118 00b8 F868     		ldr	r0, [r7, #12]
 5119 00ba FFF7FEFF 		bl	I2C_ConvertOtherXferOptions
 5120 00be FB68     		ldr	r3, [r7, #12]
 5121 00c0 5B8D     		ldrh	r3, [r3, #42]	@ movhi
 5122 00c2 9BB2     		uxth	r3, r3
 5123 00c4 FF2B     		cmp	r3, #255
 5124 00c6 02D8     		bhi	.L351
 5125 00c8 FB68     		ldr	r3, [r7, #12]
 5126 00ca DB6A     		ldr	r3, [r3, #44]
ARM GAS  /var/folders/k1/1yttftd15rl7jxtpyc5m93n80000gn/T//ccqqVpOc.s 			page 90


 5127 00cc FB61     		str	r3, [r7, #28]
 5128              	.L351:
 5129 00ce FB68     		ldr	r3, [r7, #12]
 5130 00d0 1B8D     		ldrh	r3, [r3, #40]
 5131 00d2 002B     		cmp	r3, #0
 5132 00d4 70D0     		beq	.L352
 5133 00d6 FB68     		ldr	r3, [r7, #12]
 5134 00d8 DB6B     		ldr	r3, [r3, #60]
 5135 00da 002B     		cmp	r3, #0
 5136 00dc 20D0     		beq	.L353
 5137 00de FB68     		ldr	r3, [r7, #12]
 5138 00e0 DB6B     		ldr	r3, [r3, #60]
 5139 00e2 464A     		ldr	r2, .L358+8
 5140 00e4 DA62     		str	r2, [r3, #44]
 5141 00e6 FB68     		ldr	r3, [r7, #12]
 5142 00e8 DB6B     		ldr	r3, [r3, #60]
 5143 00ea 454A     		ldr	r2, .L358+12
 5144 00ec 5A63     		str	r2, [r3, #52]
 5145 00ee FB68     		ldr	r3, [r7, #12]
 5146 00f0 DB6B     		ldr	r3, [r3, #60]
 5147 00f2 0022     		movs	r2, #0
 5148 00f4 1A63     		str	r2, [r3, #48]
 5149 00f6 FB68     		ldr	r3, [r7, #12]
 5150 00f8 DB6B     		ldr	r3, [r3, #60]
 5151 00fa 0022     		movs	r2, #0
 5152 00fc 9A63     		str	r2, [r3, #56]
 5153 00fe FB68     		ldr	r3, [r7, #12]
 5154 0100 D86B     		ldr	r0, [r3, #60]
 5155 0102 FB68     		ldr	r3, [r7, #12]
 5156 0104 1B68     		ldr	r3, [r3]
 5157 0106 2433     		adds	r3, r3, #36
 5158 0108 1946     		mov	r1, r3
 5159 010a 7A68     		ldr	r2, [r7, #4]
 5160 010c FB68     		ldr	r3, [r7, #12]
 5161 010e 1B8D     		ldrh	r3, [r3, #40]
 5162 0110 FFF7FEFF 		bl	HAL_DMA_Start_IT
 5163 0114 0346     		mov	r3, r0
 5164 0116 FB75     		strb	r3, [r7, #23]
 5165 0118 FB7D     		ldrb	r3, [r7, #23]	@ zero_extendqisi2
 5166 011a 002B     		cmp	r3, #0
 5167 011c 38D1     		bne	.L355
 5168 011e 13E0     		b	.L357
 5169              	.L353:
 5170 0120 FB68     		ldr	r3, [r7, #12]
 5171 0122 2022     		movs	r2, #32
 5172 0124 83F84120 		strb	r2, [r3, #65]
 5173 0128 FB68     		ldr	r3, [r7, #12]
 5174 012a 0022     		movs	r2, #0
 5175 012c 83F84220 		strb	r2, [r3, #66]
 5176 0130 FB68     		ldr	r3, [r7, #12]
 5177 0132 5B6C     		ldr	r3, [r3, #68]
 5178 0134 43F08002 		orr	r2, r3, #128
 5179 0138 FB68     		ldr	r3, [r7, #12]
 5180 013a 5A64     		str	r2, [r3, #68]
 5181 013c FB68     		ldr	r3, [r7, #12]
 5182 013e 0022     		movs	r2, #0
 5183 0140 83F84020 		strb	r2, [r3, #64]
ARM GAS  /var/folders/k1/1yttftd15rl7jxtpyc5m93n80000gn/T//ccqqVpOc.s 			page 91


 5184 0144 0123     		movs	r3, #1
 5185 0146 50E0     		b	.L344
 5186              	.L357:
 5187 0148 FB68     		ldr	r3, [r7, #12]
 5188 014a 1B8D     		ldrh	r3, [r3, #40]
 5189 014c DAB2     		uxtb	r2, r3
 5190 014e 7989     		ldrh	r1, [r7, #10]
 5191 0150 BB69     		ldr	r3, [r7, #24]
 5192 0152 0093     		str	r3, [sp]
 5193 0154 FB69     		ldr	r3, [r7, #28]
 5194 0156 F868     		ldr	r0, [r7, #12]
 5195 0158 FFF7FEFF 		bl	I2C_TransferConfig
 5196 015c FB68     		ldr	r3, [r7, #12]
 5197 015e 5B8D     		ldrh	r3, [r3, #42]	@ movhi
 5198 0160 9AB2     		uxth	r2, r3
 5199 0162 FB68     		ldr	r3, [r7, #12]
 5200 0164 1B8D     		ldrh	r3, [r3, #40]
 5201 0166 D31A     		subs	r3, r2, r3
 5202 0168 9AB2     		uxth	r2, r3
 5203 016a FB68     		ldr	r3, [r7, #12]
 5204 016c 5A85     		strh	r2, [r3, #42]	@ movhi
 5205 016e FB68     		ldr	r3, [r7, #12]
 5206 0170 0022     		movs	r2, #0
 5207 0172 83F84020 		strb	r2, [r3, #64]
 5208 0176 1021     		movs	r1, #16
 5209 0178 F868     		ldr	r0, [r7, #12]
 5210 017a FFF7FEFF 		bl	I2C_Enable_IRQ
 5211 017e FB68     		ldr	r3, [r7, #12]
 5212 0180 1B68     		ldr	r3, [r3]
 5213 0182 1A68     		ldr	r2, [r3]
 5214 0184 FB68     		ldr	r3, [r7, #12]
 5215 0186 1B68     		ldr	r3, [r3]
 5216 0188 42F40042 		orr	r2, r2, #32768
 5217 018c 1A60     		str	r2, [r3]
 5218 018e 29E0     		b	.L356
 5219              	.L355:
 5220 0190 FB68     		ldr	r3, [r7, #12]
 5221 0192 2022     		movs	r2, #32
 5222 0194 83F84120 		strb	r2, [r3, #65]
 5223 0198 FB68     		ldr	r3, [r7, #12]
 5224 019a 0022     		movs	r2, #0
 5225 019c 83F84220 		strb	r2, [r3, #66]
 5226 01a0 FB68     		ldr	r3, [r7, #12]
 5227 01a2 5B6C     		ldr	r3, [r3, #68]
 5228 01a4 43F01002 		orr	r2, r3, #16
 5229 01a8 FB68     		ldr	r3, [r7, #12]
 5230 01aa 5A64     		str	r2, [r3, #68]
 5231 01ac FB68     		ldr	r3, [r7, #12]
 5232 01ae 0022     		movs	r2, #0
 5233 01b0 83F84020 		strb	r2, [r3, #64]
 5234 01b4 0123     		movs	r3, #1
 5235 01b6 18E0     		b	.L344
 5236              	.L352:
 5237 01b8 FB68     		ldr	r3, [r7, #12]
 5238 01ba 124A     		ldr	r2, .L358+16
 5239 01bc 5A63     		str	r2, [r3, #52]
 5240 01be FB68     		ldr	r3, [r7, #12]
ARM GAS  /var/folders/k1/1yttftd15rl7jxtpyc5m93n80000gn/T//ccqqVpOc.s 			page 92


 5241 01c0 1B8D     		ldrh	r3, [r3, #40]
 5242 01c2 DAB2     		uxtb	r2, r3
 5243 01c4 7989     		ldrh	r1, [r7, #10]
 5244 01c6 0B4B     		ldr	r3, .L358
 5245 01c8 0093     		str	r3, [sp]
 5246 01ca 4FF00073 		mov	r3, #33554432
 5247 01ce F868     		ldr	r0, [r7, #12]
 5248 01d0 FFF7FEFF 		bl	I2C_TransferConfig
 5249 01d4 FB68     		ldr	r3, [r7, #12]
 5250 01d6 0022     		movs	r2, #0
 5251 01d8 83F84020 		strb	r2, [r3, #64]
 5252 01dc 0221     		movs	r1, #2
 5253 01de F868     		ldr	r0, [r7, #12]
 5254 01e0 FFF7FEFF 		bl	I2C_Enable_IRQ
 5255              	.L356:
 5256 01e4 0023     		movs	r3, #0
 5257 01e6 00E0     		b	.L344
 5258              	.L342:
 5259 01e8 0223     		movs	r3, #2
 5260              	.L344:
 5261 01ea 1846     		mov	r0, r3
 5262 01ec 2037     		adds	r7, r7, #32
 5263 01ee BD46     		mov	sp, r7
 5264              		@ sp needed
 5265 01f0 80BD     		pop	{r7, pc}
 5266              	.L359:
 5267 01f2 00BF     		.align	2
 5268              	.L358:
 5269 01f4 00240080 		.word	-2147474432
 5270 01f8 00000000 		.word	I2C_Master_ISR_DMA
 5271 01fc 00000000 		.word	I2C_DMAMasterReceiveCplt
 5272 0200 00000000 		.word	I2C_DMAError
 5273 0204 00000000 		.word	I2C_Master_ISR_IT
 5275              		.section	.text.HAL_I2C_Slave_Seq_Transmit_IT,"ax",%progbits
 5276              		.align	1
 5277              		.global	HAL_I2C_Slave_Seq_Transmit_IT
 5278              		.syntax unified
 5279              		.thumb
 5280              		.thumb_func
 5282              	HAL_I2C_Slave_Seq_Transmit_IT:
 5283              		@ args = 0, pretend = 0, frame = 24
 5284              		@ frame_needed = 1, uses_anonymous_args = 0
 5285 0000 80B5     		push	{r7, lr}
 5286 0002 86B0     		sub	sp, sp, #24
 5287 0004 00AF     		add	r7, sp, #0
 5288 0006 F860     		str	r0, [r7, #12]
 5289 0008 B960     		str	r1, [r7, #8]
 5290 000a 3B60     		str	r3, [r7]
 5291 000c 1346     		mov	r3, r2	@ movhi
 5292 000e FB80     		strh	r3, [r7, #6]	@ movhi
 5293 0010 FB68     		ldr	r3, [r7, #12]
 5294 0012 93F84130 		ldrb	r3, [r3, #65]
 5295 0016 DBB2     		uxtb	r3, r3
 5296 0018 03F02803 		and	r3, r3, #40
 5297 001c 282B     		cmp	r3, #40
 5298 001e 40F09880 		bne	.L361
 5299 0022 BB68     		ldr	r3, [r7, #8]
ARM GAS  /var/folders/k1/1yttftd15rl7jxtpyc5m93n80000gn/T//ccqqVpOc.s 			page 93


 5300 0024 002B     		cmp	r3, #0
 5301 0026 02D0     		beq	.L362
 5302 0028 FB88     		ldrh	r3, [r7, #6]
 5303 002a 002B     		cmp	r3, #0
 5304 002c 05D1     		bne	.L363
 5305              	.L362:
 5306 002e FB68     		ldr	r3, [r7, #12]
 5307 0030 4FF40072 		mov	r2, #512
 5308 0034 5A64     		str	r2, [r3, #68]
 5309 0036 0123     		movs	r3, #1
 5310 0038 8CE0     		b	.L364
 5311              	.L363:
 5312 003a 48F20101 		movw	r1, #32769
 5313 003e F868     		ldr	r0, [r7, #12]
 5314 0040 FFF7FEFF 		bl	I2C_Disable_IRQ
 5315 0044 FB68     		ldr	r3, [r7, #12]
 5316 0046 93F84030 		ldrb	r3, [r3, #64]	@ zero_extendqisi2
 5317 004a 012B     		cmp	r3, #1
 5318 004c 01D1     		bne	.L365
 5319 004e 0223     		movs	r3, #2
 5320 0050 80E0     		b	.L364
 5321              	.L365:
 5322 0052 FB68     		ldr	r3, [r7, #12]
 5323 0054 0122     		movs	r2, #1
 5324 0056 83F84020 		strb	r2, [r3, #64]
 5325 005a FB68     		ldr	r3, [r7, #12]
 5326 005c 93F84130 		ldrb	r3, [r3, #65]
 5327 0060 DBB2     		uxtb	r3, r3
 5328 0062 2A2B     		cmp	r3, #42
 5329 0064 2AD1     		bne	.L366
 5330 0066 0221     		movs	r1, #2
 5331 0068 F868     		ldr	r0, [r7, #12]
 5332 006a FFF7FEFF 		bl	I2C_Disable_IRQ
 5333 006e FB68     		ldr	r3, [r7, #12]
 5334 0070 1B68     		ldr	r3, [r3]
 5335 0072 1B68     		ldr	r3, [r3]
 5336 0074 03F40043 		and	r3, r3, #32768
 5337 0078 B3F5004F 		cmp	r3, #32768
 5338 007c 1ED1     		bne	.L366
 5339 007e FB68     		ldr	r3, [r7, #12]
 5340 0080 1B68     		ldr	r3, [r3]
 5341 0082 1A68     		ldr	r2, [r3]
 5342 0084 FB68     		ldr	r3, [r7, #12]
 5343 0086 1B68     		ldr	r3, [r3]
 5344 0088 22F40042 		bic	r2, r2, #32768
 5345 008c 1A60     		str	r2, [r3]
 5346 008e FB68     		ldr	r3, [r7, #12]
 5347 0090 DB6B     		ldr	r3, [r3, #60]
 5348 0092 002B     		cmp	r3, #0
 5349 0094 12D0     		beq	.L366
 5350 0096 FB68     		ldr	r3, [r7, #12]
 5351 0098 DB6B     		ldr	r3, [r3, #60]
 5352 009a 304A     		ldr	r2, .L368
 5353 009c 9A63     		str	r2, [r3, #56]
 5354 009e FB68     		ldr	r3, [r7, #12]
 5355 00a0 DB6B     		ldr	r3, [r3, #60]
 5356 00a2 1846     		mov	r0, r3
ARM GAS  /var/folders/k1/1yttftd15rl7jxtpyc5m93n80000gn/T//ccqqVpOc.s 			page 94


 5357 00a4 FFF7FEFF 		bl	HAL_DMA_Abort_IT
 5358 00a8 0346     		mov	r3, r0
 5359 00aa 002B     		cmp	r3, #0
 5360 00ac 06D0     		beq	.L366
 5361 00ae FB68     		ldr	r3, [r7, #12]
 5362 00b0 DB6B     		ldr	r3, [r3, #60]
 5363 00b2 9B6B     		ldr	r3, [r3, #56]
 5364 00b4 FA68     		ldr	r2, [r7, #12]
 5365 00b6 D26B     		ldr	r2, [r2, #60]
 5366 00b8 1046     		mov	r0, r2
 5367 00ba 9847     		blx	r3
 5368              	.L366:
 5369 00bc FB68     		ldr	r3, [r7, #12]
 5370 00be 2922     		movs	r2, #41
 5371 00c0 83F84120 		strb	r2, [r3, #65]
 5372 00c4 FB68     		ldr	r3, [r7, #12]
 5373 00c6 2022     		movs	r2, #32
 5374 00c8 83F84220 		strb	r2, [r3, #66]
 5375 00cc FB68     		ldr	r3, [r7, #12]
 5376 00ce 0022     		movs	r2, #0
 5377 00d0 5A64     		str	r2, [r3, #68]
 5378 00d2 FB68     		ldr	r3, [r7, #12]
 5379 00d4 1B68     		ldr	r3, [r3]
 5380 00d6 5A68     		ldr	r2, [r3, #4]
 5381 00d8 FB68     		ldr	r3, [r7, #12]
 5382 00da 1B68     		ldr	r3, [r3]
 5383 00dc 22F40042 		bic	r2, r2, #32768
 5384 00e0 5A60     		str	r2, [r3, #4]
 5385 00e2 FB68     		ldr	r3, [r7, #12]
 5386 00e4 BA68     		ldr	r2, [r7, #8]
 5387 00e6 5A62     		str	r2, [r3, #36]
 5388 00e8 FB68     		ldr	r3, [r7, #12]
 5389 00ea FA88     		ldrh	r2, [r7, #6]	@ movhi
 5390 00ec 5A85     		strh	r2, [r3, #42]	@ movhi
 5391 00ee FB68     		ldr	r3, [r7, #12]
 5392 00f0 5B8D     		ldrh	r3, [r3, #42]	@ movhi
 5393 00f2 9AB2     		uxth	r2, r3
 5394 00f4 FB68     		ldr	r3, [r7, #12]
 5395 00f6 1A85     		strh	r2, [r3, #40]	@ movhi
 5396 00f8 FB68     		ldr	r3, [r7, #12]
 5397 00fa 3A68     		ldr	r2, [r7]
 5398 00fc DA62     		str	r2, [r3, #44]
 5399 00fe FB68     		ldr	r3, [r7, #12]
 5400 0100 174A     		ldr	r2, .L368+4
 5401 0102 5A63     		str	r2, [r3, #52]
 5402 0104 FB68     		ldr	r3, [r7, #12]
 5403 0106 1B68     		ldr	r3, [r3]
 5404 0108 9B69     		ldr	r3, [r3, #24]
 5405 010a 03F00803 		and	r3, r3, #8
 5406 010e 082B     		cmp	r3, #8
 5407 0110 0CBF     		ite	eq
 5408 0112 0123     		moveq	r3, #1
 5409 0114 0023     		movne	r3, #0
 5410 0116 DBB2     		uxtb	r3, r3
 5411 0118 FB75     		strb	r3, [r7, #23]
 5412 011a FB68     		ldr	r3, [r7, #12]
 5413 011c 1B68     		ldr	r3, [r3]
ARM GAS  /var/folders/k1/1yttftd15rl7jxtpyc5m93n80000gn/T//ccqqVpOc.s 			page 95


 5414 011e 9B69     		ldr	r3, [r3, #24]
 5415 0120 1B0C     		lsrs	r3, r3, #16
 5416 0122 DBB2     		uxtb	r3, r3
 5417 0124 03F00103 		and	r3, r3, #1
 5418 0128 DBB2     		uxtb	r3, r3
 5419 012a 012B     		cmp	r3, #1
 5420 012c 06D1     		bne	.L367
 5421 012e FB7D     		ldrb	r3, [r7, #23]	@ zero_extendqisi2
 5422 0130 002B     		cmp	r3, #0
 5423 0132 03D0     		beq	.L367
 5424 0134 FB68     		ldr	r3, [r7, #12]
 5425 0136 1B68     		ldr	r3, [r3]
 5426 0138 0822     		movs	r2, #8
 5427 013a DA61     		str	r2, [r3, #28]
 5428              	.L367:
 5429 013c FB68     		ldr	r3, [r7, #12]
 5430 013e 0022     		movs	r2, #0
 5431 0140 83F84020 		strb	r2, [r3, #64]
 5432 0144 48F20101 		movw	r1, #32769
 5433 0148 F868     		ldr	r0, [r7, #12]
 5434 014a FFF7FEFF 		bl	I2C_Enable_IRQ
 5435 014e 0023     		movs	r3, #0
 5436 0150 00E0     		b	.L364
 5437              	.L361:
 5438 0152 0123     		movs	r3, #1
 5439              	.L364:
 5440 0154 1846     		mov	r0, r3
 5441 0156 1837     		adds	r7, r7, #24
 5442 0158 BD46     		mov	sp, r7
 5443              		@ sp needed
 5444 015a 80BD     		pop	{r7, pc}
 5445              	.L369:
 5446              		.align	2
 5447              	.L368:
 5448 015c 00000000 		.word	I2C_DMAAbort
 5449 0160 00000000 		.word	I2C_Slave_ISR_IT
 5451              		.section	.text.HAL_I2C_Slave_Seq_Transmit_DMA,"ax",%progbits
 5452              		.align	1
 5453              		.global	HAL_I2C_Slave_Seq_Transmit_DMA
 5454              		.syntax unified
 5455              		.thumb
 5456              		.thumb_func
 5458              	HAL_I2C_Slave_Seq_Transmit_DMA:
 5459              		@ args = 0, pretend = 0, frame = 24
 5460              		@ frame_needed = 1, uses_anonymous_args = 0
 5461 0000 80B5     		push	{r7, lr}
 5462 0002 86B0     		sub	sp, sp, #24
 5463 0004 00AF     		add	r7, sp, #0
 5464 0006 F860     		str	r0, [r7, #12]
 5465 0008 B960     		str	r1, [r7, #8]
 5466 000a 3B60     		str	r3, [r7]
 5467 000c 1346     		mov	r3, r2	@ movhi
 5468 000e FB80     		strh	r3, [r7, #6]	@ movhi
 5469 0010 FB68     		ldr	r3, [r7, #12]
 5470 0012 93F84130 		ldrb	r3, [r3, #65]
 5471 0016 DBB2     		uxtb	r3, r3
 5472 0018 03F02803 		and	r3, r3, #40
ARM GAS  /var/folders/k1/1yttftd15rl7jxtpyc5m93n80000gn/T//ccqqVpOc.s 			page 96


 5473 001c 282B     		cmp	r3, #40
 5474 001e 40F02881 		bne	.L371
 5475 0022 BB68     		ldr	r3, [r7, #8]
 5476 0024 002B     		cmp	r3, #0
 5477 0026 02D0     		beq	.L372
 5478 0028 FB88     		ldrh	r3, [r7, #6]
 5479 002a 002B     		cmp	r3, #0
 5480 002c 05D1     		bne	.L373
 5481              	.L372:
 5482 002e FB68     		ldr	r3, [r7, #12]
 5483 0030 4FF40072 		mov	r2, #512
 5484 0034 5A64     		str	r2, [r3, #68]
 5485 0036 0123     		movs	r3, #1
 5486 0038 1CE1     		b	.L374
 5487              	.L373:
 5488 003a FB68     		ldr	r3, [r7, #12]
 5489 003c 93F84030 		ldrb	r3, [r3, #64]	@ zero_extendqisi2
 5490 0040 012B     		cmp	r3, #1
 5491 0042 01D1     		bne	.L375
 5492 0044 0223     		movs	r3, #2
 5493 0046 15E1     		b	.L374
 5494              	.L375:
 5495 0048 FB68     		ldr	r3, [r7, #12]
 5496 004a 0122     		movs	r2, #1
 5497 004c 83F84020 		strb	r2, [r3, #64]
 5498 0050 48F20101 		movw	r1, #32769
 5499 0054 F868     		ldr	r0, [r7, #12]
 5500 0056 FFF7FEFF 		bl	I2C_Disable_IRQ
 5501 005a FB68     		ldr	r3, [r7, #12]
 5502 005c 93F84130 		ldrb	r3, [r3, #65]
 5503 0060 DBB2     		uxtb	r3, r3
 5504 0062 2A2B     		cmp	r3, #42
 5505 0064 2BD1     		bne	.L376
 5506 0066 0221     		movs	r1, #2
 5507 0068 F868     		ldr	r0, [r7, #12]
 5508 006a FFF7FEFF 		bl	I2C_Disable_IRQ
 5509 006e FB68     		ldr	r3, [r7, #12]
 5510 0070 1B68     		ldr	r3, [r3]
 5511 0072 1B68     		ldr	r3, [r3]
 5512 0074 03F40043 		and	r3, r3, #32768
 5513 0078 B3F5004F 		cmp	r3, #32768
 5514 007c 4CD1     		bne	.L377
 5515 007e FB68     		ldr	r3, [r7, #12]
 5516 0080 DB6B     		ldr	r3, [r3, #60]
 5517 0082 002B     		cmp	r3, #0
 5518 0084 48D0     		beq	.L377
 5519 0086 FB68     		ldr	r3, [r7, #12]
 5520 0088 1B68     		ldr	r3, [r3]
 5521 008a 1A68     		ldr	r2, [r3]
 5522 008c FB68     		ldr	r3, [r7, #12]
 5523 008e 1B68     		ldr	r3, [r3]
 5524 0090 22F40042 		bic	r2, r2, #32768
 5525 0094 1A60     		str	r2, [r3]
 5526 0096 FB68     		ldr	r3, [r7, #12]
 5527 0098 DB6B     		ldr	r3, [r3, #60]
 5528 009a 784A     		ldr	r2, .L385
 5529 009c 9A63     		str	r2, [r3, #56]
ARM GAS  /var/folders/k1/1yttftd15rl7jxtpyc5m93n80000gn/T//ccqqVpOc.s 			page 97


 5530 009e FB68     		ldr	r3, [r7, #12]
 5531 00a0 DB6B     		ldr	r3, [r3, #60]
 5532 00a2 1846     		mov	r0, r3
 5533 00a4 FFF7FEFF 		bl	HAL_DMA_Abort_IT
 5534 00a8 0346     		mov	r3, r0
 5535 00aa 002B     		cmp	r3, #0
 5536 00ac 34D0     		beq	.L377
 5537 00ae FB68     		ldr	r3, [r7, #12]
 5538 00b0 DB6B     		ldr	r3, [r3, #60]
 5539 00b2 9B6B     		ldr	r3, [r3, #56]
 5540 00b4 FA68     		ldr	r2, [r7, #12]
 5541 00b6 D26B     		ldr	r2, [r2, #60]
 5542 00b8 1046     		mov	r0, r2
 5543 00ba 9847     		blx	r3
 5544 00bc 2CE0     		b	.L377
 5545              	.L376:
 5546 00be FB68     		ldr	r3, [r7, #12]
 5547 00c0 93F84130 		ldrb	r3, [r3, #65]
 5548 00c4 DBB2     		uxtb	r3, r3
 5549 00c6 292B     		cmp	r3, #41
 5550 00c8 26D1     		bne	.L377
 5551 00ca FB68     		ldr	r3, [r7, #12]
 5552 00cc 1B68     		ldr	r3, [r3]
 5553 00ce 1B68     		ldr	r3, [r3]
 5554 00d0 03F48043 		and	r3, r3, #16384
 5555 00d4 B3F5804F 		cmp	r3, #16384
 5556 00d8 1ED1     		bne	.L377
 5557 00da FB68     		ldr	r3, [r7, #12]
 5558 00dc 1B68     		ldr	r3, [r3]
 5559 00de 1A68     		ldr	r2, [r3]
 5560 00e0 FB68     		ldr	r3, [r7, #12]
 5561 00e2 1B68     		ldr	r3, [r3]
 5562 00e4 22F48042 		bic	r2, r2, #16384
 5563 00e8 1A60     		str	r2, [r3]
 5564 00ea FB68     		ldr	r3, [r7, #12]
 5565 00ec 9B6B     		ldr	r3, [r3, #56]
 5566 00ee 002B     		cmp	r3, #0
 5567 00f0 12D0     		beq	.L377
 5568 00f2 FB68     		ldr	r3, [r7, #12]
 5569 00f4 9B6B     		ldr	r3, [r3, #56]
 5570 00f6 614A     		ldr	r2, .L385
 5571 00f8 9A63     		str	r2, [r3, #56]
 5572 00fa FB68     		ldr	r3, [r7, #12]
 5573 00fc 9B6B     		ldr	r3, [r3, #56]
 5574 00fe 1846     		mov	r0, r3
 5575 0100 FFF7FEFF 		bl	HAL_DMA_Abort_IT
 5576 0104 0346     		mov	r3, r0
 5577 0106 002B     		cmp	r3, #0
 5578 0108 06D0     		beq	.L377
 5579 010a FB68     		ldr	r3, [r7, #12]
 5580 010c 9B6B     		ldr	r3, [r3, #56]
 5581 010e 9B6B     		ldr	r3, [r3, #56]
 5582 0110 FA68     		ldr	r2, [r7, #12]
 5583 0112 926B     		ldr	r2, [r2, #56]
 5584 0114 1046     		mov	r0, r2
 5585 0116 9847     		blx	r3
 5586              	.L377:
ARM GAS  /var/folders/k1/1yttftd15rl7jxtpyc5m93n80000gn/T//ccqqVpOc.s 			page 98


 5587 0118 FB68     		ldr	r3, [r7, #12]
 5588 011a 2922     		movs	r2, #41
 5589 011c 83F84120 		strb	r2, [r3, #65]
 5590 0120 FB68     		ldr	r3, [r7, #12]
 5591 0122 2022     		movs	r2, #32
 5592 0124 83F84220 		strb	r2, [r3, #66]
 5593 0128 FB68     		ldr	r3, [r7, #12]
 5594 012a 0022     		movs	r2, #0
 5595 012c 5A64     		str	r2, [r3, #68]
 5596 012e FB68     		ldr	r3, [r7, #12]
 5597 0130 1B68     		ldr	r3, [r3]
 5598 0132 5A68     		ldr	r2, [r3, #4]
 5599 0134 FB68     		ldr	r3, [r7, #12]
 5600 0136 1B68     		ldr	r3, [r3]
 5601 0138 22F40042 		bic	r2, r2, #32768
 5602 013c 5A60     		str	r2, [r3, #4]
 5603 013e FB68     		ldr	r3, [r7, #12]
 5604 0140 BA68     		ldr	r2, [r7, #8]
 5605 0142 5A62     		str	r2, [r3, #36]
 5606 0144 FB68     		ldr	r3, [r7, #12]
 5607 0146 FA88     		ldrh	r2, [r7, #6]	@ movhi
 5608 0148 5A85     		strh	r2, [r3, #42]	@ movhi
 5609 014a FB68     		ldr	r3, [r7, #12]
 5610 014c 5B8D     		ldrh	r3, [r3, #42]	@ movhi
 5611 014e 9AB2     		uxth	r2, r3
 5612 0150 FB68     		ldr	r3, [r7, #12]
 5613 0152 1A85     		strh	r2, [r3, #40]	@ movhi
 5614 0154 FB68     		ldr	r3, [r7, #12]
 5615 0156 3A68     		ldr	r2, [r7]
 5616 0158 DA62     		str	r2, [r3, #44]
 5617 015a FB68     		ldr	r3, [r7, #12]
 5618 015c 484A     		ldr	r2, .L385+4
 5619 015e 5A63     		str	r2, [r3, #52]
 5620 0160 FB68     		ldr	r3, [r7, #12]
 5621 0162 9B6B     		ldr	r3, [r3, #56]
 5622 0164 002B     		cmp	r3, #0
 5623 0166 20D0     		beq	.L378
 5624 0168 FB68     		ldr	r3, [r7, #12]
 5625 016a 9B6B     		ldr	r3, [r3, #56]
 5626 016c 454A     		ldr	r2, .L385+8
 5627 016e DA62     		str	r2, [r3, #44]
 5628 0170 FB68     		ldr	r3, [r7, #12]
 5629 0172 9B6B     		ldr	r3, [r3, #56]
 5630 0174 444A     		ldr	r2, .L385+12
 5631 0176 5A63     		str	r2, [r3, #52]
 5632 0178 FB68     		ldr	r3, [r7, #12]
 5633 017a 9B6B     		ldr	r3, [r3, #56]
 5634 017c 0022     		movs	r2, #0
 5635 017e 1A63     		str	r2, [r3, #48]
 5636 0180 FB68     		ldr	r3, [r7, #12]
 5637 0182 9B6B     		ldr	r3, [r3, #56]
 5638 0184 0022     		movs	r2, #0
 5639 0186 9A63     		str	r2, [r3, #56]
 5640 0188 FB68     		ldr	r3, [r7, #12]
 5641 018a 986B     		ldr	r0, [r3, #56]
 5642 018c B968     		ldr	r1, [r7, #8]
 5643 018e FB68     		ldr	r3, [r7, #12]
ARM GAS  /var/folders/k1/1yttftd15rl7jxtpyc5m93n80000gn/T//ccqqVpOc.s 			page 99


 5644 0190 1B68     		ldr	r3, [r3]
 5645 0192 2833     		adds	r3, r3, #40
 5646 0194 1A46     		mov	r2, r3
 5647 0196 FB68     		ldr	r3, [r7, #12]
 5648 0198 1B8D     		ldrh	r3, [r3, #40]
 5649 019a FFF7FEFF 		bl	HAL_DMA_Start_IT
 5650 019e 0346     		mov	r3, r0
 5651 01a0 FB75     		strb	r3, [r7, #23]
 5652 01a2 FB7D     		ldrb	r3, [r7, #23]	@ zero_extendqisi2
 5653 01a4 002B     		cmp	r3, #0
 5654 01a6 36D1     		bne	.L380
 5655 01a8 13E0     		b	.L383
 5656              	.L378:
 5657 01aa FB68     		ldr	r3, [r7, #12]
 5658 01ac 2822     		movs	r2, #40
 5659 01ae 83F84120 		strb	r2, [r3, #65]
 5660 01b2 FB68     		ldr	r3, [r7, #12]
 5661 01b4 0022     		movs	r2, #0
 5662 01b6 83F84220 		strb	r2, [r3, #66]
 5663 01ba FB68     		ldr	r3, [r7, #12]
 5664 01bc 5B6C     		ldr	r3, [r3, #68]
 5665 01be 43F08002 		orr	r2, r3, #128
 5666 01c2 FB68     		ldr	r3, [r7, #12]
 5667 01c4 5A64     		str	r2, [r3, #68]
 5668 01c6 FB68     		ldr	r3, [r7, #12]
 5669 01c8 0022     		movs	r2, #0
 5670 01ca 83F84020 		strb	r2, [r3, #64]
 5671 01ce 0123     		movs	r3, #1
 5672 01d0 50E0     		b	.L374
 5673              	.L383:
 5674 01d2 FB68     		ldr	r3, [r7, #12]
 5675 01d4 5B8D     		ldrh	r3, [r3, #42]	@ movhi
 5676 01d6 9AB2     		uxth	r2, r3
 5677 01d8 FB68     		ldr	r3, [r7, #12]
 5678 01da 1B8D     		ldrh	r3, [r3, #40]
 5679 01dc D31A     		subs	r3, r2, r3
 5680 01de 9AB2     		uxth	r2, r3
 5681 01e0 FB68     		ldr	r3, [r7, #12]
 5682 01e2 5A85     		strh	r2, [r3, #42]	@ movhi
 5683 01e4 FB68     		ldr	r3, [r7, #12]
 5684 01e6 0022     		movs	r2, #0
 5685 01e8 1A85     		strh	r2, [r3, #40]	@ movhi
 5686 01ea FB68     		ldr	r3, [r7, #12]
 5687 01ec 1B68     		ldr	r3, [r3]
 5688 01ee 9B69     		ldr	r3, [r3, #24]
 5689 01f0 03F00803 		and	r3, r3, #8
 5690 01f4 082B     		cmp	r3, #8
 5691 01f6 0CBF     		ite	eq
 5692 01f8 0123     		moveq	r3, #1
 5693 01fa 0023     		movne	r3, #0
 5694 01fc DBB2     		uxtb	r3, r3
 5695 01fe BB75     		strb	r3, [r7, #22]
 5696 0200 FB68     		ldr	r3, [r7, #12]
 5697 0202 1B68     		ldr	r3, [r3]
 5698 0204 9B69     		ldr	r3, [r3, #24]
 5699 0206 1B0C     		lsrs	r3, r3, #16
 5700 0208 DBB2     		uxtb	r3, r3
ARM GAS  /var/folders/k1/1yttftd15rl7jxtpyc5m93n80000gn/T//ccqqVpOc.s 			page 100


 5701 020a 03F00103 		and	r3, r3, #1
 5702 020e DBB2     		uxtb	r3, r3
 5703 0210 012B     		cmp	r3, #1
 5704 0212 1BD1     		bne	.L382
 5705 0214 13E0     		b	.L384
 5706              	.L380:
 5707 0216 FB68     		ldr	r3, [r7, #12]
 5708 0218 2822     		movs	r2, #40
 5709 021a 83F84120 		strb	r2, [r3, #65]
 5710 021e FB68     		ldr	r3, [r7, #12]
 5711 0220 0022     		movs	r2, #0
 5712 0222 83F84220 		strb	r2, [r3, #66]
 5713 0226 FB68     		ldr	r3, [r7, #12]
 5714 0228 5B6C     		ldr	r3, [r3, #68]
 5715 022a 43F01002 		orr	r2, r3, #16
 5716 022e FB68     		ldr	r3, [r7, #12]
 5717 0230 5A64     		str	r2, [r3, #68]
 5718 0232 FB68     		ldr	r3, [r7, #12]
 5719 0234 0022     		movs	r2, #0
 5720 0236 83F84020 		strb	r2, [r3, #64]
 5721 023a 0123     		movs	r3, #1
 5722 023c 1AE0     		b	.L374
 5723              	.L384:
 5724 023e BB7D     		ldrb	r3, [r7, #22]	@ zero_extendqisi2
 5725 0240 002B     		cmp	r3, #0
 5726 0242 03D0     		beq	.L382
 5727 0244 FB68     		ldr	r3, [r7, #12]
 5728 0246 1B68     		ldr	r3, [r3]
 5729 0248 0822     		movs	r2, #8
 5730 024a DA61     		str	r2, [r3, #28]
 5731              	.L382:
 5732 024c FB68     		ldr	r3, [r7, #12]
 5733 024e 0022     		movs	r2, #0
 5734 0250 83F84020 		strb	r2, [r3, #64]
 5735 0254 FB68     		ldr	r3, [r7, #12]
 5736 0256 1B68     		ldr	r3, [r3]
 5737 0258 1A68     		ldr	r2, [r3]
 5738 025a FB68     		ldr	r3, [r7, #12]
 5739 025c 1B68     		ldr	r3, [r3]
 5740 025e 42F48042 		orr	r2, r2, #16384
 5741 0262 1A60     		str	r2, [r3]
 5742 0264 4FF40041 		mov	r1, #32768
 5743 0268 F868     		ldr	r0, [r7, #12]
 5744 026a FFF7FEFF 		bl	I2C_Enable_IRQ
 5745 026e 0023     		movs	r3, #0
 5746 0270 00E0     		b	.L374
 5747              	.L371:
 5748 0272 0123     		movs	r3, #1
 5749              	.L374:
 5750 0274 1846     		mov	r0, r3
 5751 0276 1837     		adds	r7, r7, #24
 5752 0278 BD46     		mov	sp, r7
 5753              		@ sp needed
 5754 027a 80BD     		pop	{r7, pc}
 5755              	.L386:
 5756              		.align	2
 5757              	.L385:
ARM GAS  /var/folders/k1/1yttftd15rl7jxtpyc5m93n80000gn/T//ccqqVpOc.s 			page 101


 5758 027c 00000000 		.word	I2C_DMAAbort
 5759 0280 00000000 		.word	I2C_Slave_ISR_DMA
 5760 0284 00000000 		.word	I2C_DMASlaveTransmitCplt
 5761 0288 00000000 		.word	I2C_DMAError
 5763              		.section	.text.HAL_I2C_Slave_Seq_Receive_IT,"ax",%progbits
 5764              		.align	1
 5765              		.global	HAL_I2C_Slave_Seq_Receive_IT
 5766              		.syntax unified
 5767              		.thumb
 5768              		.thumb_func
 5770              	HAL_I2C_Slave_Seq_Receive_IT:
 5771              		@ args = 0, pretend = 0, frame = 24
 5772              		@ frame_needed = 1, uses_anonymous_args = 0
 5773 0000 80B5     		push	{r7, lr}
 5774 0002 86B0     		sub	sp, sp, #24
 5775 0004 00AF     		add	r7, sp, #0
 5776 0006 F860     		str	r0, [r7, #12]
 5777 0008 B960     		str	r1, [r7, #8]
 5778 000a 3B60     		str	r3, [r7]
 5779 000c 1346     		mov	r3, r2	@ movhi
 5780 000e FB80     		strh	r3, [r7, #6]	@ movhi
 5781 0010 FB68     		ldr	r3, [r7, #12]
 5782 0012 93F84130 		ldrb	r3, [r3, #65]
 5783 0016 DBB2     		uxtb	r3, r3
 5784 0018 03F02803 		and	r3, r3, #40
 5785 001c 282B     		cmp	r3, #40
 5786 001e 40F09880 		bne	.L388
 5787 0022 BB68     		ldr	r3, [r7, #8]
 5788 0024 002B     		cmp	r3, #0
 5789 0026 02D0     		beq	.L389
 5790 0028 FB88     		ldrh	r3, [r7, #6]
 5791 002a 002B     		cmp	r3, #0
 5792 002c 05D1     		bne	.L390
 5793              	.L389:
 5794 002e FB68     		ldr	r3, [r7, #12]
 5795 0030 4FF40072 		mov	r2, #512
 5796 0034 5A64     		str	r2, [r3, #68]
 5797 0036 0123     		movs	r3, #1
 5798 0038 8CE0     		b	.L391
 5799              	.L390:
 5800 003a 48F20201 		movw	r1, #32770
 5801 003e F868     		ldr	r0, [r7, #12]
 5802 0040 FFF7FEFF 		bl	I2C_Disable_IRQ
 5803 0044 FB68     		ldr	r3, [r7, #12]
 5804 0046 93F84030 		ldrb	r3, [r3, #64]	@ zero_extendqisi2
 5805 004a 012B     		cmp	r3, #1
 5806 004c 01D1     		bne	.L392
 5807 004e 0223     		movs	r3, #2
 5808 0050 80E0     		b	.L391
 5809              	.L392:
 5810 0052 FB68     		ldr	r3, [r7, #12]
 5811 0054 0122     		movs	r2, #1
 5812 0056 83F84020 		strb	r2, [r3, #64]
 5813 005a FB68     		ldr	r3, [r7, #12]
 5814 005c 93F84130 		ldrb	r3, [r3, #65]
 5815 0060 DBB2     		uxtb	r3, r3
 5816 0062 292B     		cmp	r3, #41
ARM GAS  /var/folders/k1/1yttftd15rl7jxtpyc5m93n80000gn/T//ccqqVpOc.s 			page 102


 5817 0064 2AD1     		bne	.L393
 5818 0066 0121     		movs	r1, #1
 5819 0068 F868     		ldr	r0, [r7, #12]
 5820 006a FFF7FEFF 		bl	I2C_Disable_IRQ
 5821 006e FB68     		ldr	r3, [r7, #12]
 5822 0070 1B68     		ldr	r3, [r3]
 5823 0072 1B68     		ldr	r3, [r3]
 5824 0074 03F48043 		and	r3, r3, #16384
 5825 0078 B3F5804F 		cmp	r3, #16384
 5826 007c 1ED1     		bne	.L393
 5827 007e FB68     		ldr	r3, [r7, #12]
 5828 0080 1B68     		ldr	r3, [r3]
 5829 0082 1A68     		ldr	r2, [r3]
 5830 0084 FB68     		ldr	r3, [r7, #12]
 5831 0086 1B68     		ldr	r3, [r3]
 5832 0088 22F48042 		bic	r2, r2, #16384
 5833 008c 1A60     		str	r2, [r3]
 5834 008e FB68     		ldr	r3, [r7, #12]
 5835 0090 9B6B     		ldr	r3, [r3, #56]
 5836 0092 002B     		cmp	r3, #0
 5837 0094 12D0     		beq	.L393
 5838 0096 FB68     		ldr	r3, [r7, #12]
 5839 0098 9B6B     		ldr	r3, [r3, #56]
 5840 009a 304A     		ldr	r2, .L395
 5841 009c 9A63     		str	r2, [r3, #56]
 5842 009e FB68     		ldr	r3, [r7, #12]
 5843 00a0 9B6B     		ldr	r3, [r3, #56]
 5844 00a2 1846     		mov	r0, r3
 5845 00a4 FFF7FEFF 		bl	HAL_DMA_Abort_IT
 5846 00a8 0346     		mov	r3, r0
 5847 00aa 002B     		cmp	r3, #0
 5848 00ac 06D0     		beq	.L393
 5849 00ae FB68     		ldr	r3, [r7, #12]
 5850 00b0 9B6B     		ldr	r3, [r3, #56]
 5851 00b2 9B6B     		ldr	r3, [r3, #56]
 5852 00b4 FA68     		ldr	r2, [r7, #12]
 5853 00b6 926B     		ldr	r2, [r2, #56]
 5854 00b8 1046     		mov	r0, r2
 5855 00ba 9847     		blx	r3
 5856              	.L393:
 5857 00bc FB68     		ldr	r3, [r7, #12]
 5858 00be 2A22     		movs	r2, #42
 5859 00c0 83F84120 		strb	r2, [r3, #65]
 5860 00c4 FB68     		ldr	r3, [r7, #12]
 5861 00c6 2022     		movs	r2, #32
 5862 00c8 83F84220 		strb	r2, [r3, #66]
 5863 00cc FB68     		ldr	r3, [r7, #12]
 5864 00ce 0022     		movs	r2, #0
 5865 00d0 5A64     		str	r2, [r3, #68]
 5866 00d2 FB68     		ldr	r3, [r7, #12]
 5867 00d4 1B68     		ldr	r3, [r3]
 5868 00d6 5A68     		ldr	r2, [r3, #4]
 5869 00d8 FB68     		ldr	r3, [r7, #12]
 5870 00da 1B68     		ldr	r3, [r3]
 5871 00dc 22F40042 		bic	r2, r2, #32768
 5872 00e0 5A60     		str	r2, [r3, #4]
 5873 00e2 FB68     		ldr	r3, [r7, #12]
ARM GAS  /var/folders/k1/1yttftd15rl7jxtpyc5m93n80000gn/T//ccqqVpOc.s 			page 103


 5874 00e4 BA68     		ldr	r2, [r7, #8]
 5875 00e6 5A62     		str	r2, [r3, #36]
 5876 00e8 FB68     		ldr	r3, [r7, #12]
 5877 00ea FA88     		ldrh	r2, [r7, #6]	@ movhi
 5878 00ec 5A85     		strh	r2, [r3, #42]	@ movhi
 5879 00ee FB68     		ldr	r3, [r7, #12]
 5880 00f0 5B8D     		ldrh	r3, [r3, #42]	@ movhi
 5881 00f2 9AB2     		uxth	r2, r3
 5882 00f4 FB68     		ldr	r3, [r7, #12]
 5883 00f6 1A85     		strh	r2, [r3, #40]	@ movhi
 5884 00f8 FB68     		ldr	r3, [r7, #12]
 5885 00fa 3A68     		ldr	r2, [r7]
 5886 00fc DA62     		str	r2, [r3, #44]
 5887 00fe FB68     		ldr	r3, [r7, #12]
 5888 0100 174A     		ldr	r2, .L395+4
 5889 0102 5A63     		str	r2, [r3, #52]
 5890 0104 FB68     		ldr	r3, [r7, #12]
 5891 0106 1B68     		ldr	r3, [r3]
 5892 0108 9B69     		ldr	r3, [r3, #24]
 5893 010a 03F00803 		and	r3, r3, #8
 5894 010e 082B     		cmp	r3, #8
 5895 0110 0CBF     		ite	eq
 5896 0112 0123     		moveq	r3, #1
 5897 0114 0023     		movne	r3, #0
 5898 0116 DBB2     		uxtb	r3, r3
 5899 0118 FB75     		strb	r3, [r7, #23]
 5900 011a FB68     		ldr	r3, [r7, #12]
 5901 011c 1B68     		ldr	r3, [r3]
 5902 011e 9B69     		ldr	r3, [r3, #24]
 5903 0120 1B0C     		lsrs	r3, r3, #16
 5904 0122 DBB2     		uxtb	r3, r3
 5905 0124 03F00103 		and	r3, r3, #1
 5906 0128 DBB2     		uxtb	r3, r3
 5907 012a 002B     		cmp	r3, #0
 5908 012c 06D1     		bne	.L394
 5909 012e FB7D     		ldrb	r3, [r7, #23]	@ zero_extendqisi2
 5910 0130 002B     		cmp	r3, #0
 5911 0132 03D0     		beq	.L394
 5912 0134 FB68     		ldr	r3, [r7, #12]
 5913 0136 1B68     		ldr	r3, [r3]
 5914 0138 0822     		movs	r2, #8
 5915 013a DA61     		str	r2, [r3, #28]
 5916              	.L394:
 5917 013c FB68     		ldr	r3, [r7, #12]
 5918 013e 0022     		movs	r2, #0
 5919 0140 83F84020 		strb	r2, [r3, #64]
 5920 0144 48F20201 		movw	r1, #32770
 5921 0148 F868     		ldr	r0, [r7, #12]
 5922 014a FFF7FEFF 		bl	I2C_Enable_IRQ
 5923 014e 0023     		movs	r3, #0
 5924 0150 00E0     		b	.L391
 5925              	.L388:
 5926 0152 0123     		movs	r3, #1
 5927              	.L391:
 5928 0154 1846     		mov	r0, r3
 5929 0156 1837     		adds	r7, r7, #24
 5930 0158 BD46     		mov	sp, r7
ARM GAS  /var/folders/k1/1yttftd15rl7jxtpyc5m93n80000gn/T//ccqqVpOc.s 			page 104


 5931              		@ sp needed
 5932 015a 80BD     		pop	{r7, pc}
 5933              	.L396:
 5934              		.align	2
 5935              	.L395:
 5936 015c 00000000 		.word	I2C_DMAAbort
 5937 0160 00000000 		.word	I2C_Slave_ISR_IT
 5939              		.section	.text.HAL_I2C_Slave_Seq_Receive_DMA,"ax",%progbits
 5940              		.align	1
 5941              		.global	HAL_I2C_Slave_Seq_Receive_DMA
 5942              		.syntax unified
 5943              		.thumb
 5944              		.thumb_func
 5946              	HAL_I2C_Slave_Seq_Receive_DMA:
 5947              		@ args = 0, pretend = 0, frame = 24
 5948              		@ frame_needed = 1, uses_anonymous_args = 0
 5949 0000 80B5     		push	{r7, lr}
 5950 0002 86B0     		sub	sp, sp, #24
 5951 0004 00AF     		add	r7, sp, #0
 5952 0006 F860     		str	r0, [r7, #12]
 5953 0008 B960     		str	r1, [r7, #8]
 5954 000a 3B60     		str	r3, [r7]
 5955 000c 1346     		mov	r3, r2	@ movhi
 5956 000e FB80     		strh	r3, [r7, #6]	@ movhi
 5957 0010 FB68     		ldr	r3, [r7, #12]
 5958 0012 93F84130 		ldrb	r3, [r3, #65]
 5959 0016 DBB2     		uxtb	r3, r3
 5960 0018 03F02803 		and	r3, r3, #40
 5961 001c 282B     		cmp	r3, #40
 5962 001e 40F02881 		bne	.L398
 5963 0022 BB68     		ldr	r3, [r7, #8]
 5964 0024 002B     		cmp	r3, #0
 5965 0026 02D0     		beq	.L399
 5966 0028 FB88     		ldrh	r3, [r7, #6]
 5967 002a 002B     		cmp	r3, #0
 5968 002c 05D1     		bne	.L400
 5969              	.L399:
 5970 002e FB68     		ldr	r3, [r7, #12]
 5971 0030 4FF40072 		mov	r2, #512
 5972 0034 5A64     		str	r2, [r3, #68]
 5973 0036 0123     		movs	r3, #1
 5974 0038 1CE1     		b	.L401
 5975              	.L400:
 5976 003a 48F20201 		movw	r1, #32770
 5977 003e F868     		ldr	r0, [r7, #12]
 5978 0040 FFF7FEFF 		bl	I2C_Disable_IRQ
 5979 0044 FB68     		ldr	r3, [r7, #12]
 5980 0046 93F84030 		ldrb	r3, [r3, #64]	@ zero_extendqisi2
 5981 004a 012B     		cmp	r3, #1
 5982 004c 01D1     		bne	.L402
 5983 004e 0223     		movs	r3, #2
 5984 0050 10E1     		b	.L401
 5985              	.L402:
 5986 0052 FB68     		ldr	r3, [r7, #12]
 5987 0054 0122     		movs	r2, #1
 5988 0056 83F84020 		strb	r2, [r3, #64]
 5989 005a FB68     		ldr	r3, [r7, #12]
ARM GAS  /var/folders/k1/1yttftd15rl7jxtpyc5m93n80000gn/T//ccqqVpOc.s 			page 105


 5990 005c 93F84130 		ldrb	r3, [r3, #65]
 5991 0060 DBB2     		uxtb	r3, r3
 5992 0062 292B     		cmp	r3, #41
 5993 0064 2BD1     		bne	.L403
 5994 0066 0121     		movs	r1, #1
 5995 0068 F868     		ldr	r0, [r7, #12]
 5996 006a FFF7FEFF 		bl	I2C_Disable_IRQ
 5997 006e FB68     		ldr	r3, [r7, #12]
 5998 0070 1B68     		ldr	r3, [r3]
 5999 0072 1B68     		ldr	r3, [r3]
 6000 0074 03F48043 		and	r3, r3, #16384
 6001 0078 B3F5804F 		cmp	r3, #16384
 6002 007c 4CD1     		bne	.L404
 6003 007e FB68     		ldr	r3, [r7, #12]
 6004 0080 9B6B     		ldr	r3, [r3, #56]
 6005 0082 002B     		cmp	r3, #0
 6006 0084 48D0     		beq	.L404
 6007 0086 FB68     		ldr	r3, [r7, #12]
 6008 0088 1B68     		ldr	r3, [r3]
 6009 008a 1A68     		ldr	r2, [r3]
 6010 008c FB68     		ldr	r3, [r7, #12]
 6011 008e 1B68     		ldr	r3, [r3]
 6012 0090 22F48042 		bic	r2, r2, #16384
 6013 0094 1A60     		str	r2, [r3]
 6014 0096 FB68     		ldr	r3, [r7, #12]
 6015 0098 9B6B     		ldr	r3, [r3, #56]
 6016 009a 784A     		ldr	r2, .L412
 6017 009c 9A63     		str	r2, [r3, #56]
 6018 009e FB68     		ldr	r3, [r7, #12]
 6019 00a0 9B6B     		ldr	r3, [r3, #56]
 6020 00a2 1846     		mov	r0, r3
 6021 00a4 FFF7FEFF 		bl	HAL_DMA_Abort_IT
 6022 00a8 0346     		mov	r3, r0
 6023 00aa 002B     		cmp	r3, #0
 6024 00ac 34D0     		beq	.L404
 6025 00ae FB68     		ldr	r3, [r7, #12]
 6026 00b0 9B6B     		ldr	r3, [r3, #56]
 6027 00b2 9B6B     		ldr	r3, [r3, #56]
 6028 00b4 FA68     		ldr	r2, [r7, #12]
 6029 00b6 926B     		ldr	r2, [r2, #56]
 6030 00b8 1046     		mov	r0, r2
 6031 00ba 9847     		blx	r3
 6032 00bc 2CE0     		b	.L404
 6033              	.L403:
 6034 00be FB68     		ldr	r3, [r7, #12]
 6035 00c0 93F84130 		ldrb	r3, [r3, #65]
 6036 00c4 DBB2     		uxtb	r3, r3
 6037 00c6 2A2B     		cmp	r3, #42
 6038 00c8 26D1     		bne	.L404
 6039 00ca FB68     		ldr	r3, [r7, #12]
 6040 00cc 1B68     		ldr	r3, [r3]
 6041 00ce 1B68     		ldr	r3, [r3]
 6042 00d0 03F40043 		and	r3, r3, #32768
 6043 00d4 B3F5004F 		cmp	r3, #32768
 6044 00d8 1ED1     		bne	.L404
 6045 00da FB68     		ldr	r3, [r7, #12]
 6046 00dc 1B68     		ldr	r3, [r3]
ARM GAS  /var/folders/k1/1yttftd15rl7jxtpyc5m93n80000gn/T//ccqqVpOc.s 			page 106


 6047 00de 1A68     		ldr	r2, [r3]
 6048 00e0 FB68     		ldr	r3, [r7, #12]
 6049 00e2 1B68     		ldr	r3, [r3]
 6050 00e4 22F40042 		bic	r2, r2, #32768
 6051 00e8 1A60     		str	r2, [r3]
 6052 00ea FB68     		ldr	r3, [r7, #12]
 6053 00ec DB6B     		ldr	r3, [r3, #60]
 6054 00ee 002B     		cmp	r3, #0
 6055 00f0 12D0     		beq	.L404
 6056 00f2 FB68     		ldr	r3, [r7, #12]
 6057 00f4 DB6B     		ldr	r3, [r3, #60]
 6058 00f6 614A     		ldr	r2, .L412
 6059 00f8 9A63     		str	r2, [r3, #56]
 6060 00fa FB68     		ldr	r3, [r7, #12]
 6061 00fc DB6B     		ldr	r3, [r3, #60]
 6062 00fe 1846     		mov	r0, r3
 6063 0100 FFF7FEFF 		bl	HAL_DMA_Abort_IT
 6064 0104 0346     		mov	r3, r0
 6065 0106 002B     		cmp	r3, #0
 6066 0108 06D0     		beq	.L404
 6067 010a FB68     		ldr	r3, [r7, #12]
 6068 010c DB6B     		ldr	r3, [r3, #60]
 6069 010e 9B6B     		ldr	r3, [r3, #56]
 6070 0110 FA68     		ldr	r2, [r7, #12]
 6071 0112 D26B     		ldr	r2, [r2, #60]
 6072 0114 1046     		mov	r0, r2
 6073 0116 9847     		blx	r3
 6074              	.L404:
 6075 0118 FB68     		ldr	r3, [r7, #12]
 6076 011a 2A22     		movs	r2, #42
 6077 011c 83F84120 		strb	r2, [r3, #65]
 6078 0120 FB68     		ldr	r3, [r7, #12]
 6079 0122 2022     		movs	r2, #32
 6080 0124 83F84220 		strb	r2, [r3, #66]
 6081 0128 FB68     		ldr	r3, [r7, #12]
 6082 012a 0022     		movs	r2, #0
 6083 012c 5A64     		str	r2, [r3, #68]
 6084 012e FB68     		ldr	r3, [r7, #12]
 6085 0130 1B68     		ldr	r3, [r3]
 6086 0132 5A68     		ldr	r2, [r3, #4]
 6087 0134 FB68     		ldr	r3, [r7, #12]
 6088 0136 1B68     		ldr	r3, [r3]
 6089 0138 22F40042 		bic	r2, r2, #32768
 6090 013c 5A60     		str	r2, [r3, #4]
 6091 013e FB68     		ldr	r3, [r7, #12]
 6092 0140 BA68     		ldr	r2, [r7, #8]
 6093 0142 5A62     		str	r2, [r3, #36]
 6094 0144 FB68     		ldr	r3, [r7, #12]
 6095 0146 FA88     		ldrh	r2, [r7, #6]	@ movhi
 6096 0148 5A85     		strh	r2, [r3, #42]	@ movhi
 6097 014a FB68     		ldr	r3, [r7, #12]
 6098 014c 5B8D     		ldrh	r3, [r3, #42]	@ movhi
 6099 014e 9AB2     		uxth	r2, r3
 6100 0150 FB68     		ldr	r3, [r7, #12]
 6101 0152 1A85     		strh	r2, [r3, #40]	@ movhi
 6102 0154 FB68     		ldr	r3, [r7, #12]
 6103 0156 3A68     		ldr	r2, [r7]
ARM GAS  /var/folders/k1/1yttftd15rl7jxtpyc5m93n80000gn/T//ccqqVpOc.s 			page 107


 6104 0158 DA62     		str	r2, [r3, #44]
 6105 015a FB68     		ldr	r3, [r7, #12]
 6106 015c 484A     		ldr	r2, .L412+4
 6107 015e 5A63     		str	r2, [r3, #52]
 6108 0160 FB68     		ldr	r3, [r7, #12]
 6109 0162 DB6B     		ldr	r3, [r3, #60]
 6110 0164 002B     		cmp	r3, #0
 6111 0166 20D0     		beq	.L405
 6112 0168 FB68     		ldr	r3, [r7, #12]
 6113 016a DB6B     		ldr	r3, [r3, #60]
 6114 016c 454A     		ldr	r2, .L412+8
 6115 016e DA62     		str	r2, [r3, #44]
 6116 0170 FB68     		ldr	r3, [r7, #12]
 6117 0172 DB6B     		ldr	r3, [r3, #60]
 6118 0174 444A     		ldr	r2, .L412+12
 6119 0176 5A63     		str	r2, [r3, #52]
 6120 0178 FB68     		ldr	r3, [r7, #12]
 6121 017a DB6B     		ldr	r3, [r3, #60]
 6122 017c 0022     		movs	r2, #0
 6123 017e 1A63     		str	r2, [r3, #48]
 6124 0180 FB68     		ldr	r3, [r7, #12]
 6125 0182 DB6B     		ldr	r3, [r3, #60]
 6126 0184 0022     		movs	r2, #0
 6127 0186 9A63     		str	r2, [r3, #56]
 6128 0188 FB68     		ldr	r3, [r7, #12]
 6129 018a D86B     		ldr	r0, [r3, #60]
 6130 018c FB68     		ldr	r3, [r7, #12]
 6131 018e 1B68     		ldr	r3, [r3]
 6132 0190 2433     		adds	r3, r3, #36
 6133 0192 1946     		mov	r1, r3
 6134 0194 BA68     		ldr	r2, [r7, #8]
 6135 0196 FB68     		ldr	r3, [r7, #12]
 6136 0198 1B8D     		ldrh	r3, [r3, #40]
 6137 019a FFF7FEFF 		bl	HAL_DMA_Start_IT
 6138 019e 0346     		mov	r3, r0
 6139 01a0 FB75     		strb	r3, [r7, #23]
 6140 01a2 FB7D     		ldrb	r3, [r7, #23]	@ zero_extendqisi2
 6141 01a4 002B     		cmp	r3, #0
 6142 01a6 36D1     		bne	.L407
 6143 01a8 13E0     		b	.L410
 6144              	.L405:
 6145 01aa FB68     		ldr	r3, [r7, #12]
 6146 01ac 2822     		movs	r2, #40
 6147 01ae 83F84120 		strb	r2, [r3, #65]
 6148 01b2 FB68     		ldr	r3, [r7, #12]
 6149 01b4 0022     		movs	r2, #0
 6150 01b6 83F84220 		strb	r2, [r3, #66]
 6151 01ba FB68     		ldr	r3, [r7, #12]
 6152 01bc 5B6C     		ldr	r3, [r3, #68]
 6153 01be 43F08002 		orr	r2, r3, #128
 6154 01c2 FB68     		ldr	r3, [r7, #12]
 6155 01c4 5A64     		str	r2, [r3, #68]
 6156 01c6 FB68     		ldr	r3, [r7, #12]
 6157 01c8 0022     		movs	r2, #0
 6158 01ca 83F84020 		strb	r2, [r3, #64]
 6159 01ce 0123     		movs	r3, #1
 6160 01d0 50E0     		b	.L401
ARM GAS  /var/folders/k1/1yttftd15rl7jxtpyc5m93n80000gn/T//ccqqVpOc.s 			page 108


 6161              	.L410:
 6162 01d2 FB68     		ldr	r3, [r7, #12]
 6163 01d4 5B8D     		ldrh	r3, [r3, #42]	@ movhi
 6164 01d6 9AB2     		uxth	r2, r3
 6165 01d8 FB68     		ldr	r3, [r7, #12]
 6166 01da 1B8D     		ldrh	r3, [r3, #40]
 6167 01dc D31A     		subs	r3, r2, r3
 6168 01de 9AB2     		uxth	r2, r3
 6169 01e0 FB68     		ldr	r3, [r7, #12]
 6170 01e2 5A85     		strh	r2, [r3, #42]	@ movhi
 6171 01e4 FB68     		ldr	r3, [r7, #12]
 6172 01e6 0022     		movs	r2, #0
 6173 01e8 1A85     		strh	r2, [r3, #40]	@ movhi
 6174 01ea FB68     		ldr	r3, [r7, #12]
 6175 01ec 1B68     		ldr	r3, [r3]
 6176 01ee 9B69     		ldr	r3, [r3, #24]
 6177 01f0 03F00803 		and	r3, r3, #8
 6178 01f4 082B     		cmp	r3, #8
 6179 01f6 0CBF     		ite	eq
 6180 01f8 0123     		moveq	r3, #1
 6181 01fa 0023     		movne	r3, #0
 6182 01fc DBB2     		uxtb	r3, r3
 6183 01fe BB75     		strb	r3, [r7, #22]
 6184 0200 FB68     		ldr	r3, [r7, #12]
 6185 0202 1B68     		ldr	r3, [r3]
 6186 0204 9B69     		ldr	r3, [r3, #24]
 6187 0206 1B0C     		lsrs	r3, r3, #16
 6188 0208 DBB2     		uxtb	r3, r3
 6189 020a 03F00103 		and	r3, r3, #1
 6190 020e DBB2     		uxtb	r3, r3
 6191 0210 002B     		cmp	r3, #0
 6192 0212 1BD1     		bne	.L409
 6193 0214 13E0     		b	.L411
 6194              	.L407:
 6195 0216 FB68     		ldr	r3, [r7, #12]
 6196 0218 2822     		movs	r2, #40
 6197 021a 83F84120 		strb	r2, [r3, #65]
 6198 021e FB68     		ldr	r3, [r7, #12]
 6199 0220 0022     		movs	r2, #0
 6200 0222 83F84220 		strb	r2, [r3, #66]
 6201 0226 FB68     		ldr	r3, [r7, #12]
 6202 0228 5B6C     		ldr	r3, [r3, #68]
 6203 022a 43F01002 		orr	r2, r3, #16
 6204 022e FB68     		ldr	r3, [r7, #12]
 6205 0230 5A64     		str	r2, [r3, #68]
 6206 0232 FB68     		ldr	r3, [r7, #12]
 6207 0234 0022     		movs	r2, #0
 6208 0236 83F84020 		strb	r2, [r3, #64]
 6209 023a 0123     		movs	r3, #1
 6210 023c 1AE0     		b	.L401
 6211              	.L411:
 6212 023e BB7D     		ldrb	r3, [r7, #22]	@ zero_extendqisi2
 6213 0240 002B     		cmp	r3, #0
 6214 0242 03D0     		beq	.L409
 6215 0244 FB68     		ldr	r3, [r7, #12]
 6216 0246 1B68     		ldr	r3, [r3]
 6217 0248 0822     		movs	r2, #8
ARM GAS  /var/folders/k1/1yttftd15rl7jxtpyc5m93n80000gn/T//ccqqVpOc.s 			page 109


 6218 024a DA61     		str	r2, [r3, #28]
 6219              	.L409:
 6220 024c FB68     		ldr	r3, [r7, #12]
 6221 024e 0022     		movs	r2, #0
 6222 0250 83F84020 		strb	r2, [r3, #64]
 6223 0254 FB68     		ldr	r3, [r7, #12]
 6224 0256 1B68     		ldr	r3, [r3]
 6225 0258 1A68     		ldr	r2, [r3]
 6226 025a FB68     		ldr	r3, [r7, #12]
 6227 025c 1B68     		ldr	r3, [r3]
 6228 025e 42F40042 		orr	r2, r2, #32768
 6229 0262 1A60     		str	r2, [r3]
 6230 0264 48F20201 		movw	r1, #32770
 6231 0268 F868     		ldr	r0, [r7, #12]
 6232 026a FFF7FEFF 		bl	I2C_Enable_IRQ
 6233 026e 0023     		movs	r3, #0
 6234 0270 00E0     		b	.L401
 6235              	.L398:
 6236 0272 0123     		movs	r3, #1
 6237              	.L401:
 6238 0274 1846     		mov	r0, r3
 6239 0276 1837     		adds	r7, r7, #24
 6240 0278 BD46     		mov	sp, r7
 6241              		@ sp needed
 6242 027a 80BD     		pop	{r7, pc}
 6243              	.L413:
 6244              		.align	2
 6245              	.L412:
 6246 027c 00000000 		.word	I2C_DMAAbort
 6247 0280 00000000 		.word	I2C_Slave_ISR_DMA
 6248 0284 00000000 		.word	I2C_DMASlaveReceiveCplt
 6249 0288 00000000 		.word	I2C_DMAError
 6251              		.section	.text.HAL_I2C_EnableListen_IT,"ax",%progbits
 6252              		.align	1
 6253              		.global	HAL_I2C_EnableListen_IT
 6254              		.syntax unified
 6255              		.thumb
 6256              		.thumb_func
 6258              	HAL_I2C_EnableListen_IT:
 6259              		@ args = 0, pretend = 0, frame = 8
 6260              		@ frame_needed = 1, uses_anonymous_args = 0
 6261 0000 80B5     		push	{r7, lr}
 6262 0002 82B0     		sub	sp, sp, #8
 6263 0004 00AF     		add	r7, sp, #0
 6264 0006 7860     		str	r0, [r7, #4]
 6265 0008 7B68     		ldr	r3, [r7, #4]
 6266 000a 93F84130 		ldrb	r3, [r3, #65]
 6267 000e DBB2     		uxtb	r3, r3
 6268 0010 202B     		cmp	r3, #32
 6269 0012 0DD1     		bne	.L415
 6270 0014 7B68     		ldr	r3, [r7, #4]
 6271 0016 2822     		movs	r2, #40
 6272 0018 83F84120 		strb	r2, [r3, #65]
 6273 001c 7B68     		ldr	r3, [r7, #4]
 6274 001e 074A     		ldr	r2, .L417
 6275 0020 5A63     		str	r2, [r3, #52]
 6276 0022 4FF40041 		mov	r1, #32768
ARM GAS  /var/folders/k1/1yttftd15rl7jxtpyc5m93n80000gn/T//ccqqVpOc.s 			page 110


 6277 0026 7868     		ldr	r0, [r7, #4]
 6278 0028 FFF7FEFF 		bl	I2C_Enable_IRQ
 6279 002c 0023     		movs	r3, #0
 6280 002e 00E0     		b	.L416
 6281              	.L415:
 6282 0030 0223     		movs	r3, #2
 6283              	.L416:
 6284 0032 1846     		mov	r0, r3
 6285 0034 0837     		adds	r7, r7, #8
 6286 0036 BD46     		mov	sp, r7
 6287              		@ sp needed
 6288 0038 80BD     		pop	{r7, pc}
 6289              	.L418:
 6290 003a 00BF     		.align	2
 6291              	.L417:
 6292 003c 00000000 		.word	I2C_Slave_ISR_IT
 6294              		.section	.text.HAL_I2C_DisableListen_IT,"ax",%progbits
 6295              		.align	1
 6296              		.global	HAL_I2C_DisableListen_IT
 6297              		.syntax unified
 6298              		.thumb
 6299              		.thumb_func
 6301              	HAL_I2C_DisableListen_IT:
 6302              		@ args = 0, pretend = 0, frame = 16
 6303              		@ frame_needed = 1, uses_anonymous_args = 0
 6304 0000 80B5     		push	{r7, lr}
 6305 0002 84B0     		sub	sp, sp, #16
 6306 0004 00AF     		add	r7, sp, #0
 6307 0006 7860     		str	r0, [r7, #4]
 6308 0008 7B68     		ldr	r3, [r7, #4]
 6309 000a 93F84130 		ldrb	r3, [r3, #65]
 6310 000e DBB2     		uxtb	r3, r3
 6311 0010 282B     		cmp	r3, #40
 6312 0012 21D1     		bne	.L420
 6313 0014 7B68     		ldr	r3, [r7, #4]
 6314 0016 93F84130 		ldrb	r3, [r3, #65]
 6315 001a DBB2     		uxtb	r3, r3
 6316 001c 03F00303 		and	r3, r3, #3
 6317 0020 FB60     		str	r3, [r7, #12]
 6318 0022 7B68     		ldr	r3, [r7, #4]
 6319 0024 93F84230 		ldrb	r3, [r3, #66]
 6320 0028 DBB2     		uxtb	r3, r3
 6321 002a 1A46     		mov	r2, r3
 6322 002c FB68     		ldr	r3, [r7, #12]
 6323 002e 1A43     		orrs	r2, r2, r3
 6324 0030 7B68     		ldr	r3, [r7, #4]
 6325 0032 1A63     		str	r2, [r3, #48]
 6326 0034 7B68     		ldr	r3, [r7, #4]
 6327 0036 2022     		movs	r2, #32
 6328 0038 83F84120 		strb	r2, [r3, #65]
 6329 003c 7B68     		ldr	r3, [r7, #4]
 6330 003e 0022     		movs	r2, #0
 6331 0040 83F84220 		strb	r2, [r3, #66]
 6332 0044 7B68     		ldr	r3, [r7, #4]
 6333 0046 0022     		movs	r2, #0
 6334 0048 5A63     		str	r2, [r3, #52]
 6335 004a 4FF40041 		mov	r1, #32768
ARM GAS  /var/folders/k1/1yttftd15rl7jxtpyc5m93n80000gn/T//ccqqVpOc.s 			page 111


 6336 004e 7868     		ldr	r0, [r7, #4]
 6337 0050 FFF7FEFF 		bl	I2C_Disable_IRQ
 6338 0054 0023     		movs	r3, #0
 6339 0056 00E0     		b	.L421
 6340              	.L420:
 6341 0058 0223     		movs	r3, #2
 6342              	.L421:
 6343 005a 1846     		mov	r0, r3
 6344 005c 1037     		adds	r7, r7, #16
 6345 005e BD46     		mov	sp, r7
 6346              		@ sp needed
 6347 0060 80BD     		pop	{r7, pc}
 6349              		.section	.text.HAL_I2C_Master_Abort_IT,"ax",%progbits
 6350              		.align	1
 6351              		.global	HAL_I2C_Master_Abort_IT
 6352              		.syntax unified
 6353              		.thumb
 6354              		.thumb_func
 6356              	HAL_I2C_Master_Abort_IT:
 6357              		@ args = 0, pretend = 0, frame = 16
 6358              		@ frame_needed = 1, uses_anonymous_args = 0
 6359 0000 80B5     		push	{r7, lr}
 6360 0002 86B0     		sub	sp, sp, #24
 6361 0004 02AF     		add	r7, sp, #8
 6362 0006 7860     		str	r0, [r7, #4]
 6363 0008 0B46     		mov	r3, r1
 6364 000a 7B80     		strh	r3, [r7, #2]	@ movhi
 6365 000c 7B68     		ldr	r3, [r7, #4]
 6366 000e 93F84230 		ldrb	r3, [r3, #66]
 6367 0012 FB73     		strb	r3, [r7, #15]
 6368 0014 FB7B     		ldrb	r3, [r7, #15]	@ zero_extendqisi2
 6369 0016 102B     		cmp	r3, #16
 6370 0018 02D0     		beq	.L423
 6371 001a FB7B     		ldrb	r3, [r7, #15]	@ zero_extendqisi2
 6372 001c 402B     		cmp	r3, #64
 6373 001e 3CD1     		bne	.L424
 6374              	.L423:
 6375 0020 7B68     		ldr	r3, [r7, #4]
 6376 0022 93F84030 		ldrb	r3, [r3, #64]	@ zero_extendqisi2
 6377 0026 012B     		cmp	r3, #1
 6378 0028 01D1     		bne	.L425
 6379 002a 0223     		movs	r3, #2
 6380 002c 36E0     		b	.L426
 6381              	.L425:
 6382 002e 7B68     		ldr	r3, [r7, #4]
 6383 0030 0122     		movs	r2, #1
 6384 0032 83F84020 		strb	r2, [r3, #64]
 6385 0036 7B68     		ldr	r3, [r7, #4]
 6386 0038 93F84130 		ldrb	r3, [r3, #65]
 6387 003c DBB2     		uxtb	r3, r3
 6388 003e 212B     		cmp	r3, #33
 6389 0040 07D1     		bne	.L427
 6390 0042 0121     		movs	r1, #1
 6391 0044 7868     		ldr	r0, [r7, #4]
 6392 0046 FFF7FEFF 		bl	I2C_Disable_IRQ
 6393 004a 7B68     		ldr	r3, [r7, #4]
 6394 004c 1122     		movs	r2, #17
ARM GAS  /var/folders/k1/1yttftd15rl7jxtpyc5m93n80000gn/T//ccqqVpOc.s 			page 112


 6395 004e 1A63     		str	r2, [r3, #48]
 6396 0050 0CE0     		b	.L428
 6397              	.L427:
 6398 0052 7B68     		ldr	r3, [r7, #4]
 6399 0054 93F84130 		ldrb	r3, [r3, #65]
 6400 0058 DBB2     		uxtb	r3, r3
 6401 005a 222B     		cmp	r3, #34
 6402 005c 06D1     		bne	.L428
 6403 005e 0221     		movs	r1, #2
 6404 0060 7868     		ldr	r0, [r7, #4]
 6405 0062 FFF7FEFF 		bl	I2C_Disable_IRQ
 6406 0066 7B68     		ldr	r3, [r7, #4]
 6407 0068 1222     		movs	r2, #18
 6408 006a 1A63     		str	r2, [r3, #48]
 6409              	.L428:
 6410 006c 7B68     		ldr	r3, [r7, #4]
 6411 006e 6022     		movs	r2, #96
 6412 0070 83F84120 		strb	r2, [r3, #65]
 6413 0074 7988     		ldrh	r1, [r7, #2]
 6414 0076 0B4B     		ldr	r3, .L429
 6415 0078 0093     		str	r3, [sp]
 6416 007a 4FF00073 		mov	r3, #33554432
 6417 007e 0122     		movs	r2, #1
 6418 0080 7868     		ldr	r0, [r7, #4]
 6419 0082 FFF7FEFF 		bl	I2C_TransferConfig
 6420 0086 7B68     		ldr	r3, [r7, #4]
 6421 0088 0022     		movs	r2, #0
 6422 008a 83F84020 		strb	r2, [r3, #64]
 6423 008e 2021     		movs	r1, #32
 6424 0090 7868     		ldr	r0, [r7, #4]
 6425 0092 FFF7FEFF 		bl	I2C_Enable_IRQ
 6426 0096 0023     		movs	r3, #0
 6427 0098 00E0     		b	.L426
 6428              	.L424:
 6429 009a 0123     		movs	r3, #1
 6430              	.L426:
 6431 009c 1846     		mov	r0, r3
 6432 009e 1037     		adds	r7, r7, #16
 6433 00a0 BD46     		mov	sp, r7
 6434              		@ sp needed
 6435 00a2 80BD     		pop	{r7, pc}
 6436              	.L430:
 6437              		.align	2
 6438              	.L429:
 6439 00a4 00400080 		.word	-2147467264
 6441              		.section	.text.HAL_I2C_EV_IRQHandler,"ax",%progbits
 6442              		.align	1
 6443              		.global	HAL_I2C_EV_IRQHandler
 6444              		.syntax unified
 6445              		.thumb
 6446              		.thumb_func
 6448              	HAL_I2C_EV_IRQHandler:
 6449              		@ args = 0, pretend = 0, frame = 16
 6450              		@ frame_needed = 1, uses_anonymous_args = 0
 6451 0000 80B5     		push	{r7, lr}
 6452 0002 84B0     		sub	sp, sp, #16
 6453 0004 00AF     		add	r7, sp, #0
ARM GAS  /var/folders/k1/1yttftd15rl7jxtpyc5m93n80000gn/T//ccqqVpOc.s 			page 113


 6454 0006 7860     		str	r0, [r7, #4]
 6455 0008 7B68     		ldr	r3, [r7, #4]
 6456 000a 1B68     		ldr	r3, [r3]
 6457 000c 9B69     		ldr	r3, [r3, #24]
 6458 000e FB60     		str	r3, [r7, #12]
 6459 0010 7B68     		ldr	r3, [r7, #4]
 6460 0012 1B68     		ldr	r3, [r3]
 6461 0014 1B68     		ldr	r3, [r3]
 6462 0016 BB60     		str	r3, [r7, #8]
 6463 0018 7B68     		ldr	r3, [r7, #4]
 6464 001a 5B6B     		ldr	r3, [r3, #52]
 6465 001c 002B     		cmp	r3, #0
 6466 001e 05D0     		beq	.L433
 6467 0020 7B68     		ldr	r3, [r7, #4]
 6468 0022 5B6B     		ldr	r3, [r3, #52]
 6469 0024 BA68     		ldr	r2, [r7, #8]
 6470 0026 F968     		ldr	r1, [r7, #12]
 6471 0028 7868     		ldr	r0, [r7, #4]
 6472 002a 9847     		blx	r3
 6473              	.L433:
 6474 002c 00BF     		nop
 6475 002e 1037     		adds	r7, r7, #16
 6476 0030 BD46     		mov	sp, r7
 6477              		@ sp needed
 6478 0032 80BD     		pop	{r7, pc}
 6480              		.section	.text.HAL_I2C_ER_IRQHandler,"ax",%progbits
 6481              		.align	1
 6482              		.global	HAL_I2C_ER_IRQHandler
 6483              		.syntax unified
 6484              		.thumb
 6485              		.thumb_func
 6487              	HAL_I2C_ER_IRQHandler:
 6488              		@ args = 0, pretend = 0, frame = 24
 6489              		@ frame_needed = 1, uses_anonymous_args = 0
 6490 0000 80B5     		push	{r7, lr}
 6491 0002 86B0     		sub	sp, sp, #24
 6492 0004 00AF     		add	r7, sp, #0
 6493 0006 7860     		str	r0, [r7, #4]
 6494 0008 7B68     		ldr	r3, [r7, #4]
 6495 000a 1B68     		ldr	r3, [r3]
 6496 000c 9B69     		ldr	r3, [r3, #24]
 6497 000e 7B61     		str	r3, [r7, #20]
 6498 0010 7B68     		ldr	r3, [r7, #4]
 6499 0012 1B68     		ldr	r3, [r3]
 6500 0014 1B68     		ldr	r3, [r3]
 6501 0016 3B61     		str	r3, [r7, #16]
 6502 0018 7B69     		ldr	r3, [r7, #20]
 6503 001a 1B0A     		lsrs	r3, r3, #8
 6504 001c 03F00103 		and	r3, r3, #1
 6505 0020 002B     		cmp	r3, #0
 6506 0022 10D0     		beq	.L435
 6507 0024 3B69     		ldr	r3, [r7, #16]
 6508 0026 DB09     		lsrs	r3, r3, #7
 6509 0028 03F00103 		and	r3, r3, #1
 6510 002c 002B     		cmp	r3, #0
 6511 002e 0AD0     		beq	.L435
 6512 0030 7B68     		ldr	r3, [r7, #4]
ARM GAS  /var/folders/k1/1yttftd15rl7jxtpyc5m93n80000gn/T//ccqqVpOc.s 			page 114


 6513 0032 5B6C     		ldr	r3, [r3, #68]
 6514 0034 43F00102 		orr	r2, r3, #1
 6515 0038 7B68     		ldr	r3, [r7, #4]
 6516 003a 5A64     		str	r2, [r3, #68]
 6517 003c 7B68     		ldr	r3, [r7, #4]
 6518 003e 1B68     		ldr	r3, [r3]
 6519 0040 4FF48072 		mov	r2, #256
 6520 0044 DA61     		str	r2, [r3, #28]
 6521              	.L435:
 6522 0046 7B69     		ldr	r3, [r7, #20]
 6523 0048 9B0A     		lsrs	r3, r3, #10
 6524 004a 03F00103 		and	r3, r3, #1
 6525 004e 002B     		cmp	r3, #0
 6526 0050 10D0     		beq	.L436
 6527 0052 3B69     		ldr	r3, [r7, #16]
 6528 0054 DB09     		lsrs	r3, r3, #7
 6529 0056 03F00103 		and	r3, r3, #1
 6530 005a 002B     		cmp	r3, #0
 6531 005c 0AD0     		beq	.L436
 6532 005e 7B68     		ldr	r3, [r7, #4]
 6533 0060 5B6C     		ldr	r3, [r3, #68]
 6534 0062 43F00802 		orr	r2, r3, #8
 6535 0066 7B68     		ldr	r3, [r7, #4]
 6536 0068 5A64     		str	r2, [r3, #68]
 6537 006a 7B68     		ldr	r3, [r7, #4]
 6538 006c 1B68     		ldr	r3, [r3]
 6539 006e 4FF48062 		mov	r2, #1024
 6540 0072 DA61     		str	r2, [r3, #28]
 6541              	.L436:
 6542 0074 7B69     		ldr	r3, [r7, #20]
 6543 0076 5B0A     		lsrs	r3, r3, #9
 6544 0078 03F00103 		and	r3, r3, #1
 6545 007c 002B     		cmp	r3, #0
 6546 007e 10D0     		beq	.L437
 6547 0080 3B69     		ldr	r3, [r7, #16]
 6548 0082 DB09     		lsrs	r3, r3, #7
 6549 0084 03F00103 		and	r3, r3, #1
 6550 0088 002B     		cmp	r3, #0
 6551 008a 0AD0     		beq	.L437
 6552 008c 7B68     		ldr	r3, [r7, #4]
 6553 008e 5B6C     		ldr	r3, [r3, #68]
 6554 0090 43F00202 		orr	r2, r3, #2
 6555 0094 7B68     		ldr	r3, [r7, #4]
 6556 0096 5A64     		str	r2, [r3, #68]
 6557 0098 7B68     		ldr	r3, [r7, #4]
 6558 009a 1B68     		ldr	r3, [r3]
 6559 009c 4FF40072 		mov	r2, #512
 6560 00a0 DA61     		str	r2, [r3, #28]
 6561              	.L437:
 6562 00a2 7B68     		ldr	r3, [r7, #4]
 6563 00a4 5B6C     		ldr	r3, [r3, #68]
 6564 00a6 FB60     		str	r3, [r7, #12]
 6565 00a8 FB68     		ldr	r3, [r7, #12]
 6566 00aa 03F00B03 		and	r3, r3, #11
 6567 00ae 002B     		cmp	r3, #0
 6568 00b0 03D0     		beq	.L439
 6569 00b2 F968     		ldr	r1, [r7, #12]
ARM GAS  /var/folders/k1/1yttftd15rl7jxtpyc5m93n80000gn/T//ccqqVpOc.s 			page 115


 6570 00b4 7868     		ldr	r0, [r7, #4]
 6571 00b6 FFF7FEFF 		bl	I2C_ITError
 6572              	.L439:
 6573 00ba 00BF     		nop
 6574 00bc 1837     		adds	r7, r7, #24
 6575 00be BD46     		mov	sp, r7
 6576              		@ sp needed
 6577 00c0 80BD     		pop	{r7, pc}
 6579              		.section	.text.HAL_I2C_MasterTxCpltCallback,"ax",%progbits
 6580              		.align	1
 6581              		.weak	HAL_I2C_MasterTxCpltCallback
 6582              		.syntax unified
 6583              		.thumb
 6584              		.thumb_func
 6586              	HAL_I2C_MasterTxCpltCallback:
 6587              		@ args = 0, pretend = 0, frame = 8
 6588              		@ frame_needed = 1, uses_anonymous_args = 0
 6589              		@ link register save eliminated.
 6590 0000 80B4     		push	{r7}
 6591 0002 83B0     		sub	sp, sp, #12
 6592 0004 00AF     		add	r7, sp, #0
 6593 0006 7860     		str	r0, [r7, #4]
 6594 0008 00BF     		nop
 6595 000a 0C37     		adds	r7, r7, #12
 6596 000c BD46     		mov	sp, r7
 6597              		@ sp needed
 6598 000e 5DF8047B 		ldr	r7, [sp], #4
 6599 0012 7047     		bx	lr
 6601              		.section	.text.HAL_I2C_MasterRxCpltCallback,"ax",%progbits
 6602              		.align	1
 6603              		.weak	HAL_I2C_MasterRxCpltCallback
 6604              		.syntax unified
 6605              		.thumb
 6606              		.thumb_func
 6608              	HAL_I2C_MasterRxCpltCallback:
 6609              		@ args = 0, pretend = 0, frame = 8
 6610              		@ frame_needed = 1, uses_anonymous_args = 0
 6611              		@ link register save eliminated.
 6612 0000 80B4     		push	{r7}
 6613 0002 83B0     		sub	sp, sp, #12
 6614 0004 00AF     		add	r7, sp, #0
 6615 0006 7860     		str	r0, [r7, #4]
 6616 0008 00BF     		nop
 6617 000a 0C37     		adds	r7, r7, #12
 6618 000c BD46     		mov	sp, r7
 6619              		@ sp needed
 6620 000e 5DF8047B 		ldr	r7, [sp], #4
 6621 0012 7047     		bx	lr
 6623              		.section	.text.HAL_I2C_SlaveTxCpltCallback,"ax",%progbits
 6624              		.align	1
 6625              		.weak	HAL_I2C_SlaveTxCpltCallback
 6626              		.syntax unified
 6627              		.thumb
 6628              		.thumb_func
 6630              	HAL_I2C_SlaveTxCpltCallback:
 6631              		@ args = 0, pretend = 0, frame = 8
 6632              		@ frame_needed = 1, uses_anonymous_args = 0
ARM GAS  /var/folders/k1/1yttftd15rl7jxtpyc5m93n80000gn/T//ccqqVpOc.s 			page 116


 6633              		@ link register save eliminated.
 6634 0000 80B4     		push	{r7}
 6635 0002 83B0     		sub	sp, sp, #12
 6636 0004 00AF     		add	r7, sp, #0
 6637 0006 7860     		str	r0, [r7, #4]
 6638 0008 00BF     		nop
 6639 000a 0C37     		adds	r7, r7, #12
 6640 000c BD46     		mov	sp, r7
 6641              		@ sp needed
 6642 000e 5DF8047B 		ldr	r7, [sp], #4
 6643 0012 7047     		bx	lr
 6645              		.section	.text.HAL_I2C_SlaveRxCpltCallback,"ax",%progbits
 6646              		.align	1
 6647              		.weak	HAL_I2C_SlaveRxCpltCallback
 6648              		.syntax unified
 6649              		.thumb
 6650              		.thumb_func
 6652              	HAL_I2C_SlaveRxCpltCallback:
 6653              		@ args = 0, pretend = 0, frame = 8
 6654              		@ frame_needed = 1, uses_anonymous_args = 0
 6655              		@ link register save eliminated.
 6656 0000 80B4     		push	{r7}
 6657 0002 83B0     		sub	sp, sp, #12
 6658 0004 00AF     		add	r7, sp, #0
 6659 0006 7860     		str	r0, [r7, #4]
 6660 0008 00BF     		nop
 6661 000a 0C37     		adds	r7, r7, #12
 6662 000c BD46     		mov	sp, r7
 6663              		@ sp needed
 6664 000e 5DF8047B 		ldr	r7, [sp], #4
 6665 0012 7047     		bx	lr
 6667              		.section	.text.HAL_I2C_AddrCallback,"ax",%progbits
 6668              		.align	1
 6669              		.weak	HAL_I2C_AddrCallback
 6670              		.syntax unified
 6671              		.thumb
 6672              		.thumb_func
 6674              	HAL_I2C_AddrCallback:
 6675              		@ args = 0, pretend = 0, frame = 8
 6676              		@ frame_needed = 1, uses_anonymous_args = 0
 6677              		@ link register save eliminated.
 6678 0000 80B4     		push	{r7}
 6679 0002 83B0     		sub	sp, sp, #12
 6680 0004 00AF     		add	r7, sp, #0
 6681 0006 7860     		str	r0, [r7, #4]
 6682 0008 0B46     		mov	r3, r1
 6683 000a FB70     		strb	r3, [r7, #3]
 6684 000c 1346     		mov	r3, r2	@ movhi
 6685 000e 3B80     		strh	r3, [r7]	@ movhi
 6686 0010 00BF     		nop
 6687 0012 0C37     		adds	r7, r7, #12
 6688 0014 BD46     		mov	sp, r7
 6689              		@ sp needed
 6690 0016 5DF8047B 		ldr	r7, [sp], #4
 6691 001a 7047     		bx	lr
 6693              		.section	.text.HAL_I2C_ListenCpltCallback,"ax",%progbits
 6694              		.align	1
ARM GAS  /var/folders/k1/1yttftd15rl7jxtpyc5m93n80000gn/T//ccqqVpOc.s 			page 117


 6695              		.weak	HAL_I2C_ListenCpltCallback
 6696              		.syntax unified
 6697              		.thumb
 6698              		.thumb_func
 6700              	HAL_I2C_ListenCpltCallback:
 6701              		@ args = 0, pretend = 0, frame = 8
 6702              		@ frame_needed = 1, uses_anonymous_args = 0
 6703              		@ link register save eliminated.
 6704 0000 80B4     		push	{r7}
 6705 0002 83B0     		sub	sp, sp, #12
 6706 0004 00AF     		add	r7, sp, #0
 6707 0006 7860     		str	r0, [r7, #4]
 6708 0008 00BF     		nop
 6709 000a 0C37     		adds	r7, r7, #12
 6710 000c BD46     		mov	sp, r7
 6711              		@ sp needed
 6712 000e 5DF8047B 		ldr	r7, [sp], #4
 6713 0012 7047     		bx	lr
 6715              		.section	.text.HAL_I2C_MemTxCpltCallback,"ax",%progbits
 6716              		.align	1
 6717              		.weak	HAL_I2C_MemTxCpltCallback
 6718              		.syntax unified
 6719              		.thumb
 6720              		.thumb_func
 6722              	HAL_I2C_MemTxCpltCallback:
 6723              		@ args = 0, pretend = 0, frame = 8
 6724              		@ frame_needed = 1, uses_anonymous_args = 0
 6725              		@ link register save eliminated.
 6726 0000 80B4     		push	{r7}
 6727 0002 83B0     		sub	sp, sp, #12
 6728 0004 00AF     		add	r7, sp, #0
 6729 0006 7860     		str	r0, [r7, #4]
 6730 0008 00BF     		nop
 6731 000a 0C37     		adds	r7, r7, #12
 6732 000c BD46     		mov	sp, r7
 6733              		@ sp needed
 6734 000e 5DF8047B 		ldr	r7, [sp], #4
 6735 0012 7047     		bx	lr
 6737              		.section	.text.HAL_I2C_MemRxCpltCallback,"ax",%progbits
 6738              		.align	1
 6739              		.weak	HAL_I2C_MemRxCpltCallback
 6740              		.syntax unified
 6741              		.thumb
 6742              		.thumb_func
 6744              	HAL_I2C_MemRxCpltCallback:
 6745              		@ args = 0, pretend = 0, frame = 8
 6746              		@ frame_needed = 1, uses_anonymous_args = 0
 6747              		@ link register save eliminated.
 6748 0000 80B4     		push	{r7}
 6749 0002 83B0     		sub	sp, sp, #12
 6750 0004 00AF     		add	r7, sp, #0
 6751 0006 7860     		str	r0, [r7, #4]
 6752 0008 00BF     		nop
 6753 000a 0C37     		adds	r7, r7, #12
 6754 000c BD46     		mov	sp, r7
 6755              		@ sp needed
 6756 000e 5DF8047B 		ldr	r7, [sp], #4
ARM GAS  /var/folders/k1/1yttftd15rl7jxtpyc5m93n80000gn/T//ccqqVpOc.s 			page 118


 6757 0012 7047     		bx	lr
 6759              		.section	.text.HAL_I2C_ErrorCallback,"ax",%progbits
 6760              		.align	1
 6761              		.weak	HAL_I2C_ErrorCallback
 6762              		.syntax unified
 6763              		.thumb
 6764              		.thumb_func
 6766              	HAL_I2C_ErrorCallback:
 6767              		@ args = 0, pretend = 0, frame = 8
 6768              		@ frame_needed = 1, uses_anonymous_args = 0
 6769              		@ link register save eliminated.
 6770 0000 80B4     		push	{r7}
 6771 0002 83B0     		sub	sp, sp, #12
 6772 0004 00AF     		add	r7, sp, #0
 6773 0006 7860     		str	r0, [r7, #4]
 6774 0008 00BF     		nop
 6775 000a 0C37     		adds	r7, r7, #12
 6776 000c BD46     		mov	sp, r7
 6777              		@ sp needed
 6778 000e 5DF8047B 		ldr	r7, [sp], #4
 6779 0012 7047     		bx	lr
 6781              		.section	.text.HAL_I2C_AbortCpltCallback,"ax",%progbits
 6782              		.align	1
 6783              		.weak	HAL_I2C_AbortCpltCallback
 6784              		.syntax unified
 6785              		.thumb
 6786              		.thumb_func
 6788              	HAL_I2C_AbortCpltCallback:
 6789              		@ args = 0, pretend = 0, frame = 8
 6790              		@ frame_needed = 1, uses_anonymous_args = 0
 6791              		@ link register save eliminated.
 6792 0000 80B4     		push	{r7}
 6793 0002 83B0     		sub	sp, sp, #12
 6794 0004 00AF     		add	r7, sp, #0
 6795 0006 7860     		str	r0, [r7, #4]
 6796 0008 00BF     		nop
 6797 000a 0C37     		adds	r7, r7, #12
 6798 000c BD46     		mov	sp, r7
 6799              		@ sp needed
 6800 000e 5DF8047B 		ldr	r7, [sp], #4
 6801 0012 7047     		bx	lr
 6803              		.section	.text.HAL_I2C_GetState,"ax",%progbits
 6804              		.align	1
 6805              		.global	HAL_I2C_GetState
 6806              		.syntax unified
 6807              		.thumb
 6808              		.thumb_func
 6810              	HAL_I2C_GetState:
 6811              		@ args = 0, pretend = 0, frame = 8
 6812              		@ frame_needed = 1, uses_anonymous_args = 0
 6813              		@ link register save eliminated.
 6814 0000 80B4     		push	{r7}
 6815 0002 83B0     		sub	sp, sp, #12
 6816 0004 00AF     		add	r7, sp, #0
 6817 0006 7860     		str	r0, [r7, #4]
 6818 0008 7B68     		ldr	r3, [r7, #4]
 6819 000a 93F84130 		ldrb	r3, [r3, #65]
ARM GAS  /var/folders/k1/1yttftd15rl7jxtpyc5m93n80000gn/T//ccqqVpOc.s 			page 119


 6820 000e DBB2     		uxtb	r3, r3
 6821 0010 1846     		mov	r0, r3
 6822 0012 0C37     		adds	r7, r7, #12
 6823 0014 BD46     		mov	sp, r7
 6824              		@ sp needed
 6825 0016 5DF8047B 		ldr	r7, [sp], #4
 6826 001a 7047     		bx	lr
 6828              		.section	.text.HAL_I2C_GetMode,"ax",%progbits
 6829              		.align	1
 6830              		.global	HAL_I2C_GetMode
 6831              		.syntax unified
 6832              		.thumb
 6833              		.thumb_func
 6835              	HAL_I2C_GetMode:
 6836              		@ args = 0, pretend = 0, frame = 8
 6837              		@ frame_needed = 1, uses_anonymous_args = 0
 6838              		@ link register save eliminated.
 6839 0000 80B4     		push	{r7}
 6840 0002 83B0     		sub	sp, sp, #12
 6841 0004 00AF     		add	r7, sp, #0
 6842 0006 7860     		str	r0, [r7, #4]
 6843 0008 7B68     		ldr	r3, [r7, #4]
 6844 000a 93F84230 		ldrb	r3, [r3, #66]
 6845 000e DBB2     		uxtb	r3, r3
 6846 0010 1846     		mov	r0, r3
 6847 0012 0C37     		adds	r7, r7, #12
 6848 0014 BD46     		mov	sp, r7
 6849              		@ sp needed
 6850 0016 5DF8047B 		ldr	r7, [sp], #4
 6851 001a 7047     		bx	lr
 6853              		.section	.text.HAL_I2C_GetError,"ax",%progbits
 6854              		.align	1
 6855              		.global	HAL_I2C_GetError
 6856              		.syntax unified
 6857              		.thumb
 6858              		.thumb_func
 6860              	HAL_I2C_GetError:
 6861              		@ args = 0, pretend = 0, frame = 8
 6862              		@ frame_needed = 1, uses_anonymous_args = 0
 6863              		@ link register save eliminated.
 6864 0000 80B4     		push	{r7}
 6865 0002 83B0     		sub	sp, sp, #12
 6866 0004 00AF     		add	r7, sp, #0
 6867 0006 7860     		str	r0, [r7, #4]
 6868 0008 7B68     		ldr	r3, [r7, #4]
 6869 000a 5B6C     		ldr	r3, [r3, #68]
 6870 000c 1846     		mov	r0, r3
 6871 000e 0C37     		adds	r7, r7, #12
 6872 0010 BD46     		mov	sp, r7
 6873              		@ sp needed
 6874 0012 5DF8047B 		ldr	r7, [sp], #4
 6875 0016 7047     		bx	lr
 6877              		.section	.text.I2C_Master_ISR_IT,"ax",%progbits
 6878              		.align	1
 6879              		.syntax unified
 6880              		.thumb
 6881              		.thumb_func
ARM GAS  /var/folders/k1/1yttftd15rl7jxtpyc5m93n80000gn/T//ccqqVpOc.s 			page 120


 6883              	I2C_Master_ISR_IT:
 6884              		@ args = 0, pretend = 0, frame = 24
 6885              		@ frame_needed = 1, uses_anonymous_args = 0
 6886 0000 80B5     		push	{r7, lr}
 6887 0002 88B0     		sub	sp, sp, #32
 6888 0004 02AF     		add	r7, sp, #8
 6889 0006 F860     		str	r0, [r7, #12]
 6890 0008 B960     		str	r1, [r7, #8]
 6891 000a 7A60     		str	r2, [r7, #4]
 6892 000c BB68     		ldr	r3, [r7, #8]
 6893 000e 7B61     		str	r3, [r7, #20]
 6894 0010 FB68     		ldr	r3, [r7, #12]
 6895 0012 93F84030 		ldrb	r3, [r3, #64]	@ zero_extendqisi2
 6896 0016 012B     		cmp	r3, #1
 6897 0018 01D1     		bne	.L457
 6898 001a 0223     		movs	r3, #2
 6899 001c 20E1     		b	.L458
 6900              	.L457:
 6901 001e FB68     		ldr	r3, [r7, #12]
 6902 0020 0122     		movs	r2, #1
 6903 0022 83F84020 		strb	r2, [r3, #64]
 6904 0026 7B69     		ldr	r3, [r7, #20]
 6905 0028 1B09     		lsrs	r3, r3, #4
 6906 002a 03F00103 		and	r3, r3, #1
 6907 002e 002B     		cmp	r3, #0
 6908 0030 13D0     		beq	.L459
 6909 0032 7B68     		ldr	r3, [r7, #4]
 6910 0034 1B09     		lsrs	r3, r3, #4
 6911 0036 03F00103 		and	r3, r3, #1
 6912 003a 002B     		cmp	r3, #0
 6913 003c 0DD0     		beq	.L459
 6914 003e FB68     		ldr	r3, [r7, #12]
 6915 0040 1B68     		ldr	r3, [r3]
 6916 0042 1022     		movs	r2, #16
 6917 0044 DA61     		str	r2, [r3, #28]
 6918 0046 FB68     		ldr	r3, [r7, #12]
 6919 0048 5B6C     		ldr	r3, [r3, #68]
 6920 004a 43F00402 		orr	r2, r3, #4
 6921 004e FB68     		ldr	r3, [r7, #12]
 6922 0050 5A64     		str	r2, [r3, #68]
 6923 0052 F868     		ldr	r0, [r7, #12]
 6924 0054 FFF7FEFF 		bl	I2C_Flush_TXDR
 6925 0058 EDE0     		b	.L460
 6926              	.L459:
 6927 005a 7B69     		ldr	r3, [r7, #20]
 6928 005c 9B08     		lsrs	r3, r3, #2
 6929 005e 03F00103 		and	r3, r3, #1
 6930 0062 002B     		cmp	r3, #0
 6931 0064 23D0     		beq	.L461
 6932 0066 7B68     		ldr	r3, [r7, #4]
 6933 0068 9B08     		lsrs	r3, r3, #2
 6934 006a 03F00103 		and	r3, r3, #1
 6935 006e 002B     		cmp	r3, #0
 6936 0070 1DD0     		beq	.L461
 6937 0072 7B69     		ldr	r3, [r7, #20]
 6938 0074 23F00403 		bic	r3, r3, #4
 6939 0078 7B61     		str	r3, [r7, #20]
ARM GAS  /var/folders/k1/1yttftd15rl7jxtpyc5m93n80000gn/T//ccqqVpOc.s 			page 121


 6940 007a FB68     		ldr	r3, [r7, #12]
 6941 007c 1B68     		ldr	r3, [r3]
 6942 007e 5A6A     		ldr	r2, [r3, #36]
 6943 0080 FB68     		ldr	r3, [r7, #12]
 6944 0082 5B6A     		ldr	r3, [r3, #36]
 6945 0084 D2B2     		uxtb	r2, r2
 6946 0086 1A70     		strb	r2, [r3]
 6947 0088 FB68     		ldr	r3, [r7, #12]
 6948 008a 5B6A     		ldr	r3, [r3, #36]
 6949 008c 5A1C     		adds	r2, r3, #1
 6950 008e FB68     		ldr	r3, [r7, #12]
 6951 0090 5A62     		str	r2, [r3, #36]
 6952 0092 FB68     		ldr	r3, [r7, #12]
 6953 0094 1B8D     		ldrh	r3, [r3, #40]
 6954 0096 013B     		subs	r3, r3, #1
 6955 0098 9AB2     		uxth	r2, r3
 6956 009a FB68     		ldr	r3, [r7, #12]
 6957 009c 1A85     		strh	r2, [r3, #40]	@ movhi
 6958 009e FB68     		ldr	r3, [r7, #12]
 6959 00a0 5B8D     		ldrh	r3, [r3, #42]	@ movhi
 6960 00a2 9BB2     		uxth	r3, r3
 6961 00a4 013B     		subs	r3, r3, #1
 6962 00a6 9AB2     		uxth	r2, r3
 6963 00a8 FB68     		ldr	r3, [r7, #12]
 6964 00aa 5A85     		strh	r2, [r3, #42]	@ movhi
 6965 00ac C3E0     		b	.L460
 6966              	.L461:
 6967 00ae 7B69     		ldr	r3, [r7, #20]
 6968 00b0 9B09     		lsrs	r3, r3, #6
 6969 00b2 03F00103 		and	r3, r3, #1
 6970 00b6 002B     		cmp	r3, #0
 6971 00b8 2AD1     		bne	.L462
 6972 00ba 7B69     		ldr	r3, [r7, #20]
 6973 00bc 5B08     		lsrs	r3, r3, #1
 6974 00be 03F00103 		and	r3, r3, #1
 6975 00c2 002B     		cmp	r3, #0
 6976 00c4 24D0     		beq	.L462
 6977 00c6 7B68     		ldr	r3, [r7, #4]
 6978 00c8 5B08     		lsrs	r3, r3, #1
 6979 00ca 03F00103 		and	r3, r3, #1
 6980 00ce 002B     		cmp	r3, #0
 6981 00d0 1ED0     		beq	.L462
 6982 00d2 FB68     		ldr	r3, [r7, #12]
 6983 00d4 5B8D     		ldrh	r3, [r3, #42]	@ movhi
 6984 00d6 9BB2     		uxth	r3, r3
 6985 00d8 002B     		cmp	r3, #0
 6986 00da 00F0AC80 		beq	.L460
 6987 00de FB68     		ldr	r3, [r7, #12]
 6988 00e0 5B6A     		ldr	r3, [r3, #36]
 6989 00e2 1A78     		ldrb	r2, [r3]	@ zero_extendqisi2
 6990 00e4 FB68     		ldr	r3, [r7, #12]
 6991 00e6 1B68     		ldr	r3, [r3]
 6992 00e8 9A62     		str	r2, [r3, #40]
 6993 00ea FB68     		ldr	r3, [r7, #12]
 6994 00ec 5B6A     		ldr	r3, [r3, #36]
 6995 00ee 5A1C     		adds	r2, r3, #1
 6996 00f0 FB68     		ldr	r3, [r7, #12]
ARM GAS  /var/folders/k1/1yttftd15rl7jxtpyc5m93n80000gn/T//ccqqVpOc.s 			page 122


 6997 00f2 5A62     		str	r2, [r3, #36]
 6998 00f4 FB68     		ldr	r3, [r7, #12]
 6999 00f6 1B8D     		ldrh	r3, [r3, #40]
 7000 00f8 013B     		subs	r3, r3, #1
 7001 00fa 9AB2     		uxth	r2, r3
 7002 00fc FB68     		ldr	r3, [r7, #12]
 7003 00fe 1A85     		strh	r2, [r3, #40]	@ movhi
 7004 0100 FB68     		ldr	r3, [r7, #12]
 7005 0102 5B8D     		ldrh	r3, [r3, #42]	@ movhi
 7006 0104 9BB2     		uxth	r3, r3
 7007 0106 013B     		subs	r3, r3, #1
 7008 0108 9AB2     		uxth	r2, r3
 7009 010a FB68     		ldr	r3, [r7, #12]
 7010 010c 5A85     		strh	r2, [r3, #42]	@ movhi
 7011 010e 92E0     		b	.L460
 7012              	.L462:
 7013 0110 7B69     		ldr	r3, [r7, #20]
 7014 0112 DB09     		lsrs	r3, r3, #7
 7015 0114 03F00103 		and	r3, r3, #1
 7016 0118 002B     		cmp	r3, #0
 7017 011a 5DD0     		beq	.L464
 7018 011c 7B68     		ldr	r3, [r7, #4]
 7019 011e 9B09     		lsrs	r3, r3, #6
 7020 0120 03F00103 		and	r3, r3, #1
 7021 0124 002B     		cmp	r3, #0
 7022 0126 57D0     		beq	.L464
 7023 0128 FB68     		ldr	r3, [r7, #12]
 7024 012a 5B8D     		ldrh	r3, [r3, #42]	@ movhi
 7025 012c 9BB2     		uxth	r3, r3
 7026 012e 002B     		cmp	r3, #0
 7027 0130 40D0     		beq	.L465
 7028 0132 FB68     		ldr	r3, [r7, #12]
 7029 0134 1B8D     		ldrh	r3, [r3, #40]
 7030 0136 002B     		cmp	r3, #0
 7031 0138 3CD1     		bne	.L465
 7032 013a FB68     		ldr	r3, [r7, #12]
 7033 013c 1B68     		ldr	r3, [r3]
 7034 013e 5B68     		ldr	r3, [r3, #4]
 7035 0140 9BB2     		uxth	r3, r3
 7036 0142 C3F30903 		ubfx	r3, r3, #0, #10
 7037 0146 7B82     		strh	r3, [r7, #18]	@ movhi
 7038 0148 FB68     		ldr	r3, [r7, #12]
 7039 014a 5B8D     		ldrh	r3, [r3, #42]	@ movhi
 7040 014c 9BB2     		uxth	r3, r3
 7041 014e FF2B     		cmp	r3, #255
 7042 0150 0ED9     		bls	.L466
 7043 0152 FB68     		ldr	r3, [r7, #12]
 7044 0154 FF22     		movs	r2, #255
 7045 0156 1A85     		strh	r2, [r3, #40]	@ movhi
 7046 0158 FB68     		ldr	r3, [r7, #12]
 7047 015a 1B8D     		ldrh	r3, [r3, #40]
 7048 015c DAB2     		uxtb	r2, r3
 7049 015e 798A     		ldrh	r1, [r7, #18]
 7050 0160 0023     		movs	r3, #0
 7051 0162 0093     		str	r3, [sp]
 7052 0164 4FF08073 		mov	r3, #16777216
 7053 0168 F868     		ldr	r0, [r7, #12]
ARM GAS  /var/folders/k1/1yttftd15rl7jxtpyc5m93n80000gn/T//ccqqVpOc.s 			page 123


 7054 016a FFF7FEFF 		bl	I2C_TransferConfig
 7055 016e 32E0     		b	.L469
 7056              	.L466:
 7057 0170 FB68     		ldr	r3, [r7, #12]
 7058 0172 5B8D     		ldrh	r3, [r3, #42]	@ movhi
 7059 0174 9AB2     		uxth	r2, r3
 7060 0176 FB68     		ldr	r3, [r7, #12]
 7061 0178 1A85     		strh	r2, [r3, #40]	@ movhi
 7062 017a FB68     		ldr	r3, [r7, #12]
 7063 017c DB6A     		ldr	r3, [r3, #44]
 7064 017e 13F5803F 		cmn	r3, #65536
 7065 0182 0BD0     		beq	.L468
 7066 0184 FB68     		ldr	r3, [r7, #12]
 7067 0186 1B8D     		ldrh	r3, [r3, #40]
 7068 0188 DAB2     		uxtb	r2, r3
 7069 018a FB68     		ldr	r3, [r7, #12]
 7070 018c DB6A     		ldr	r3, [r3, #44]
 7071 018e 798A     		ldrh	r1, [r7, #18]
 7072 0190 0020     		movs	r0, #0
 7073 0192 0090     		str	r0, [sp]
 7074 0194 F868     		ldr	r0, [r7, #12]
 7075 0196 FFF7FEFF 		bl	I2C_TransferConfig
 7076 019a 1CE0     		b	.L469
 7077              	.L468:
 7078 019c FB68     		ldr	r3, [r7, #12]
 7079 019e 1B8D     		ldrh	r3, [r3, #40]
 7080 01a0 DAB2     		uxtb	r2, r3
 7081 01a2 798A     		ldrh	r1, [r7, #18]
 7082 01a4 0023     		movs	r3, #0
 7083 01a6 0093     		str	r3, [sp]
 7084 01a8 4FF00073 		mov	r3, #33554432
 7085 01ac F868     		ldr	r0, [r7, #12]
 7086 01ae FFF7FEFF 		bl	I2C_TransferConfig
 7087 01b2 10E0     		b	.L469
 7088              	.L465:
 7089 01b4 FB68     		ldr	r3, [r7, #12]
 7090 01b6 1B68     		ldr	r3, [r3]
 7091 01b8 5B68     		ldr	r3, [r3, #4]
 7092 01ba 03F00073 		and	r3, r3, #33554432
 7093 01be B3F1007F 		cmp	r3, #33554432
 7094 01c2 03D0     		beq	.L470
 7095 01c4 F868     		ldr	r0, [r7, #12]
 7096 01c6 FFF7FEFF 		bl	I2C_ITMasterSeqCplt
 7097 01ca 34E0     		b	.L460
 7098              	.L470:
 7099 01cc 4021     		movs	r1, #64
 7100 01ce F868     		ldr	r0, [r7, #12]
 7101 01d0 FFF7FEFF 		bl	I2C_ITError
 7102 01d4 2FE0     		b	.L460
 7103              	.L469:
 7104 01d6 2EE0     		b	.L460
 7105              	.L464:
 7106 01d8 7B69     		ldr	r3, [r7, #20]
 7107 01da 9B09     		lsrs	r3, r3, #6
 7108 01dc 03F00103 		and	r3, r3, #1
 7109 01e0 002B     		cmp	r3, #0
 7110 01e2 28D0     		beq	.L460
ARM GAS  /var/folders/k1/1yttftd15rl7jxtpyc5m93n80000gn/T//ccqqVpOc.s 			page 124


 7111 01e4 7B68     		ldr	r3, [r7, #4]
 7112 01e6 9B09     		lsrs	r3, r3, #6
 7113 01e8 03F00103 		and	r3, r3, #1
 7114 01ec 002B     		cmp	r3, #0
 7115 01ee 22D0     		beq	.L460
 7116 01f0 FB68     		ldr	r3, [r7, #12]
 7117 01f2 5B8D     		ldrh	r3, [r3, #42]	@ movhi
 7118 01f4 9BB2     		uxth	r3, r3
 7119 01f6 002B     		cmp	r3, #0
 7120 01f8 19D1     		bne	.L471
 7121 01fa FB68     		ldr	r3, [r7, #12]
 7122 01fc 1B68     		ldr	r3, [r3]
 7123 01fe 5B68     		ldr	r3, [r3, #4]
 7124 0200 03F00073 		and	r3, r3, #33554432
 7125 0204 B3F1007F 		cmp	r3, #33554432
 7126 0208 15D0     		beq	.L460
 7127 020a FB68     		ldr	r3, [r7, #12]
 7128 020c DB6A     		ldr	r3, [r3, #44]
 7129 020e 13F5803F 		cmn	r3, #65536
 7130 0212 08D1     		bne	.L472
 7131 0214 FB68     		ldr	r3, [r7, #12]
 7132 0216 1B68     		ldr	r3, [r3]
 7133 0218 5A68     		ldr	r2, [r3, #4]
 7134 021a FB68     		ldr	r3, [r7, #12]
 7135 021c 1B68     		ldr	r3, [r3]
 7136 021e 42F48042 		orr	r2, r2, #16384
 7137 0222 5A60     		str	r2, [r3, #4]
 7138 0224 07E0     		b	.L460
 7139              	.L472:
 7140 0226 F868     		ldr	r0, [r7, #12]
 7141 0228 FFF7FEFF 		bl	I2C_ITMasterSeqCplt
 7142 022c 03E0     		b	.L460
 7143              	.L471:
 7144 022e 4021     		movs	r1, #64
 7145 0230 F868     		ldr	r0, [r7, #12]
 7146 0232 FFF7FEFF 		bl	I2C_ITError
 7147              	.L460:
 7148 0236 7B69     		ldr	r3, [r7, #20]
 7149 0238 5B09     		lsrs	r3, r3, #5
 7150 023a 03F00103 		and	r3, r3, #1
 7151 023e 002B     		cmp	r3, #0
 7152 0240 09D0     		beq	.L473
 7153 0242 7B68     		ldr	r3, [r7, #4]
 7154 0244 5B09     		lsrs	r3, r3, #5
 7155 0246 03F00103 		and	r3, r3, #1
 7156 024a 002B     		cmp	r3, #0
 7157 024c 03D0     		beq	.L473
 7158 024e 7969     		ldr	r1, [r7, #20]
 7159 0250 F868     		ldr	r0, [r7, #12]
 7160 0252 FFF7FEFF 		bl	I2C_ITMasterCplt
 7161              	.L473:
 7162 0256 FB68     		ldr	r3, [r7, #12]
 7163 0258 0022     		movs	r2, #0
 7164 025a 83F84020 		strb	r2, [r3, #64]
 7165 025e 0023     		movs	r3, #0
 7166              	.L458:
 7167 0260 1846     		mov	r0, r3
ARM GAS  /var/folders/k1/1yttftd15rl7jxtpyc5m93n80000gn/T//ccqqVpOc.s 			page 125


 7168 0262 1837     		adds	r7, r7, #24
 7169 0264 BD46     		mov	sp, r7
 7170              		@ sp needed
 7171 0266 80BD     		pop	{r7, pc}
 7173              		.section	.text.I2C_Mem_ISR_IT,"ax",%progbits
 7174              		.align	1
 7175              		.syntax unified
 7176              		.thumb
 7177              		.thumb_func
 7179              	I2C_Mem_ISR_IT:
 7180              		@ args = 0, pretend = 0, frame = 24
 7181              		@ frame_needed = 1, uses_anonymous_args = 0
 7182 0000 80B5     		push	{r7, lr}
 7183 0002 88B0     		sub	sp, sp, #32
 7184 0004 02AF     		add	r7, sp, #8
 7185 0006 F860     		str	r0, [r7, #12]
 7186 0008 B960     		str	r1, [r7, #8]
 7187 000a 7A60     		str	r2, [r7, #4]
 7188 000c 934B     		ldr	r3, .L491
 7189 000e 7B61     		str	r3, [r7, #20]
 7190 0010 BB68     		ldr	r3, [r7, #8]
 7191 0012 3B61     		str	r3, [r7, #16]
 7192 0014 FB68     		ldr	r3, [r7, #12]
 7193 0016 93F84030 		ldrb	r3, [r3, #64]	@ zero_extendqisi2
 7194 001a 012B     		cmp	r3, #1
 7195 001c 01D1     		bne	.L475
 7196 001e 0223     		movs	r3, #2
 7197 0020 18E1     		b	.L476
 7198              	.L475:
 7199 0022 FB68     		ldr	r3, [r7, #12]
 7200 0024 0122     		movs	r2, #1
 7201 0026 83F84020 		strb	r2, [r3, #64]
 7202 002a 3B69     		ldr	r3, [r7, #16]
 7203 002c 1B09     		lsrs	r3, r3, #4
 7204 002e 03F00103 		and	r3, r3, #1
 7205 0032 002B     		cmp	r3, #0
 7206 0034 13D0     		beq	.L477
 7207 0036 7B68     		ldr	r3, [r7, #4]
 7208 0038 1B09     		lsrs	r3, r3, #4
 7209 003a 03F00103 		and	r3, r3, #1
 7210 003e 002B     		cmp	r3, #0
 7211 0040 0DD0     		beq	.L477
 7212 0042 FB68     		ldr	r3, [r7, #12]
 7213 0044 1B68     		ldr	r3, [r3]
 7214 0046 1022     		movs	r2, #16
 7215 0048 DA61     		str	r2, [r3, #28]
 7216 004a FB68     		ldr	r3, [r7, #12]
 7217 004c 5B6C     		ldr	r3, [r3, #68]
 7218 004e 43F00402 		orr	r2, r3, #4
 7219 0052 FB68     		ldr	r3, [r7, #12]
 7220 0054 5A64     		str	r2, [r3, #68]
 7221 0056 F868     		ldr	r0, [r7, #12]
 7222 0058 FFF7FEFF 		bl	I2C_Flush_TXDR
 7223 005c E5E0     		b	.L478
 7224              	.L477:
 7225 005e 3B69     		ldr	r3, [r7, #16]
 7226 0060 9B08     		lsrs	r3, r3, #2
ARM GAS  /var/folders/k1/1yttftd15rl7jxtpyc5m93n80000gn/T//ccqqVpOc.s 			page 126


 7227 0062 03F00103 		and	r3, r3, #1
 7228 0066 002B     		cmp	r3, #0
 7229 0068 23D0     		beq	.L479
 7230 006a 7B68     		ldr	r3, [r7, #4]
 7231 006c 9B08     		lsrs	r3, r3, #2
 7232 006e 03F00103 		and	r3, r3, #1
 7233 0072 002B     		cmp	r3, #0
 7234 0074 1DD0     		beq	.L479
 7235 0076 3B69     		ldr	r3, [r7, #16]
 7236 0078 23F00403 		bic	r3, r3, #4
 7237 007c 3B61     		str	r3, [r7, #16]
 7238 007e FB68     		ldr	r3, [r7, #12]
 7239 0080 1B68     		ldr	r3, [r3]
 7240 0082 5A6A     		ldr	r2, [r3, #36]
 7241 0084 FB68     		ldr	r3, [r7, #12]
 7242 0086 5B6A     		ldr	r3, [r3, #36]
 7243 0088 D2B2     		uxtb	r2, r2
 7244 008a 1A70     		strb	r2, [r3]
 7245 008c FB68     		ldr	r3, [r7, #12]
 7246 008e 5B6A     		ldr	r3, [r3, #36]
 7247 0090 5A1C     		adds	r2, r3, #1
 7248 0092 FB68     		ldr	r3, [r7, #12]
 7249 0094 5A62     		str	r2, [r3, #36]
 7250 0096 FB68     		ldr	r3, [r7, #12]
 7251 0098 1B8D     		ldrh	r3, [r3, #40]
 7252 009a 013B     		subs	r3, r3, #1
 7253 009c 9AB2     		uxth	r2, r3
 7254 009e FB68     		ldr	r3, [r7, #12]
 7255 00a0 1A85     		strh	r2, [r3, #40]	@ movhi
 7256 00a2 FB68     		ldr	r3, [r7, #12]
 7257 00a4 5B8D     		ldrh	r3, [r3, #42]	@ movhi
 7258 00a6 9BB2     		uxth	r3, r3
 7259 00a8 013B     		subs	r3, r3, #1
 7260 00aa 9AB2     		uxth	r2, r3
 7261 00ac FB68     		ldr	r3, [r7, #12]
 7262 00ae 5A85     		strh	r2, [r3, #42]	@ movhi
 7263 00b0 BBE0     		b	.L478
 7264              	.L479:
 7265 00b2 3B69     		ldr	r3, [r7, #16]
 7266 00b4 5B08     		lsrs	r3, r3, #1
 7267 00b6 03F00103 		and	r3, r3, #1
 7268 00ba 002B     		cmp	r3, #0
 7269 00bc 2DD0     		beq	.L480
 7270 00be 7B68     		ldr	r3, [r7, #4]
 7271 00c0 5B08     		lsrs	r3, r3, #1
 7272 00c2 03F00103 		and	r3, r3, #1
 7273 00c6 002B     		cmp	r3, #0
 7274 00c8 27D0     		beq	.L480
 7275 00ca FB68     		ldr	r3, [r7, #12]
 7276 00cc 1B6D     		ldr	r3, [r3, #80]
 7277 00ce B3F1FF3F 		cmp	r3, #-1
 7278 00d2 18D1     		bne	.L481
 7279 00d4 FB68     		ldr	r3, [r7, #12]
 7280 00d6 5B6A     		ldr	r3, [r3, #36]
 7281 00d8 1A78     		ldrb	r2, [r3]	@ zero_extendqisi2
 7282 00da FB68     		ldr	r3, [r7, #12]
 7283 00dc 1B68     		ldr	r3, [r3]
ARM GAS  /var/folders/k1/1yttftd15rl7jxtpyc5m93n80000gn/T//ccqqVpOc.s 			page 127


 7284 00de 9A62     		str	r2, [r3, #40]
 7285 00e0 FB68     		ldr	r3, [r7, #12]
 7286 00e2 5B6A     		ldr	r3, [r3, #36]
 7287 00e4 5A1C     		adds	r2, r3, #1
 7288 00e6 FB68     		ldr	r3, [r7, #12]
 7289 00e8 5A62     		str	r2, [r3, #36]
 7290 00ea FB68     		ldr	r3, [r7, #12]
 7291 00ec 1B8D     		ldrh	r3, [r3, #40]
 7292 00ee 013B     		subs	r3, r3, #1
 7293 00f0 9AB2     		uxth	r2, r3
 7294 00f2 FB68     		ldr	r3, [r7, #12]
 7295 00f4 1A85     		strh	r2, [r3, #40]	@ movhi
 7296 00f6 FB68     		ldr	r3, [r7, #12]
 7297 00f8 5B8D     		ldrh	r3, [r3, #42]	@ movhi
 7298 00fa 9BB2     		uxth	r3, r3
 7299 00fc 013B     		subs	r3, r3, #1
 7300 00fe 9AB2     		uxth	r2, r3
 7301 0100 FB68     		ldr	r3, [r7, #12]
 7302 0102 5A85     		strh	r2, [r3, #42]	@ movhi
 7303 0104 91E0     		b	.L478
 7304              	.L481:
 7305 0106 FB68     		ldr	r3, [r7, #12]
 7306 0108 1B68     		ldr	r3, [r3]
 7307 010a FA68     		ldr	r2, [r7, #12]
 7308 010c 126D     		ldr	r2, [r2, #80]
 7309 010e 9A62     		str	r2, [r3, #40]
 7310 0110 FB68     		ldr	r3, [r7, #12]
 7311 0112 4FF0FF32 		mov	r2, #-1
 7312 0116 1A65     		str	r2, [r3, #80]
 7313 0118 87E0     		b	.L478
 7314              	.L480:
 7315 011a 3B69     		ldr	r3, [r7, #16]
 7316 011c DB09     		lsrs	r3, r3, #7
 7317 011e 03F00103 		and	r3, r3, #1
 7318 0122 002B     		cmp	r3, #0
 7319 0124 3DD0     		beq	.L483
 7320 0126 7B68     		ldr	r3, [r7, #4]
 7321 0128 9B09     		lsrs	r3, r3, #6
 7322 012a 03F00103 		and	r3, r3, #1
 7323 012e 002B     		cmp	r3, #0
 7324 0130 37D0     		beq	.L483
 7325 0132 FB68     		ldr	r3, [r7, #12]
 7326 0134 5B8D     		ldrh	r3, [r3, #42]	@ movhi
 7327 0136 9BB2     		uxth	r3, r3
 7328 0138 002B     		cmp	r3, #0
 7329 013a 2CD0     		beq	.L484
 7330 013c FB68     		ldr	r3, [r7, #12]
 7331 013e 1B8D     		ldrh	r3, [r3, #40]
 7332 0140 002B     		cmp	r3, #0
 7333 0142 28D1     		bne	.L484
 7334 0144 FB68     		ldr	r3, [r7, #12]
 7335 0146 5B8D     		ldrh	r3, [r3, #42]	@ movhi
 7336 0148 9BB2     		uxth	r3, r3
 7337 014a FF2B     		cmp	r3, #255
 7338 014c 10D9     		bls	.L485
 7339 014e FB68     		ldr	r3, [r7, #12]
 7340 0150 FF22     		movs	r2, #255
ARM GAS  /var/folders/k1/1yttftd15rl7jxtpyc5m93n80000gn/T//ccqqVpOc.s 			page 128


 7341 0152 1A85     		strh	r2, [r3, #40]	@ movhi
 7342 0154 FB68     		ldr	r3, [r7, #12]
 7343 0156 DB6C     		ldr	r3, [r3, #76]
 7344 0158 99B2     		uxth	r1, r3
 7345 015a FB68     		ldr	r3, [r7, #12]
 7346 015c 1B8D     		ldrh	r3, [r3, #40]
 7347 015e DAB2     		uxtb	r2, r3
 7348 0160 0023     		movs	r3, #0
 7349 0162 0093     		str	r3, [sp]
 7350 0164 4FF08073 		mov	r3, #16777216
 7351 0168 F868     		ldr	r0, [r7, #12]
 7352 016a FFF7FEFF 		bl	I2C_TransferConfig
 7353 016e 17E0     		b	.L487
 7354              	.L485:
 7355 0170 FB68     		ldr	r3, [r7, #12]
 7356 0172 5B8D     		ldrh	r3, [r3, #42]	@ movhi
 7357 0174 9AB2     		uxth	r2, r3
 7358 0176 FB68     		ldr	r3, [r7, #12]
 7359 0178 1A85     		strh	r2, [r3, #40]	@ movhi
 7360 017a FB68     		ldr	r3, [r7, #12]
 7361 017c DB6C     		ldr	r3, [r3, #76]
 7362 017e 99B2     		uxth	r1, r3
 7363 0180 FB68     		ldr	r3, [r7, #12]
 7364 0182 1B8D     		ldrh	r3, [r3, #40]
 7365 0184 DAB2     		uxtb	r2, r3
 7366 0186 0023     		movs	r3, #0
 7367 0188 0093     		str	r3, [sp]
 7368 018a 4FF00073 		mov	r3, #33554432
 7369 018e F868     		ldr	r0, [r7, #12]
 7370 0190 FFF7FEFF 		bl	I2C_TransferConfig
 7371 0194 04E0     		b	.L487
 7372              	.L484:
 7373 0196 4021     		movs	r1, #64
 7374 0198 F868     		ldr	r0, [r7, #12]
 7375 019a FFF7FEFF 		bl	I2C_ITError
 7376 019e 44E0     		b	.L478
 7377              	.L487:
 7378 01a0 43E0     		b	.L478
 7379              	.L483:
 7380 01a2 3B69     		ldr	r3, [r7, #16]
 7381 01a4 9B09     		lsrs	r3, r3, #6
 7382 01a6 03F00103 		and	r3, r3, #1
 7383 01aa 002B     		cmp	r3, #0
 7384 01ac 3DD0     		beq	.L478
 7385 01ae 7B68     		ldr	r3, [r7, #4]
 7386 01b0 9B09     		lsrs	r3, r3, #6
 7387 01b2 03F00103 		and	r3, r3, #1
 7388 01b6 002B     		cmp	r3, #0
 7389 01b8 37D0     		beq	.L478
 7390 01ba 0121     		movs	r1, #1
 7391 01bc F868     		ldr	r0, [r7, #12]
 7392 01be FFF7FEFF 		bl	I2C_Disable_IRQ
 7393 01c2 0221     		movs	r1, #2
 7394 01c4 F868     		ldr	r0, [r7, #12]
 7395 01c6 FFF7FEFF 		bl	I2C_Enable_IRQ
 7396 01ca FB68     		ldr	r3, [r7, #12]
 7397 01cc 93F84130 		ldrb	r3, [r3, #65]
ARM GAS  /var/folders/k1/1yttftd15rl7jxtpyc5m93n80000gn/T//ccqqVpOc.s 			page 129


 7398 01d0 DBB2     		uxtb	r3, r3
 7399 01d2 222B     		cmp	r3, #34
 7400 01d4 01D1     		bne	.L488
 7401 01d6 224B     		ldr	r3, .L491+4
 7402 01d8 7B61     		str	r3, [r7, #20]
 7403              	.L488:
 7404 01da FB68     		ldr	r3, [r7, #12]
 7405 01dc 5B8D     		ldrh	r3, [r3, #42]	@ movhi
 7406 01de 9BB2     		uxth	r3, r3
 7407 01e0 FF2B     		cmp	r3, #255
 7408 01e2 10D9     		bls	.L489
 7409 01e4 FB68     		ldr	r3, [r7, #12]
 7410 01e6 FF22     		movs	r2, #255
 7411 01e8 1A85     		strh	r2, [r3, #40]	@ movhi
 7412 01ea FB68     		ldr	r3, [r7, #12]
 7413 01ec DB6C     		ldr	r3, [r3, #76]
 7414 01ee 99B2     		uxth	r1, r3
 7415 01f0 FB68     		ldr	r3, [r7, #12]
 7416 01f2 1B8D     		ldrh	r3, [r3, #40]
 7417 01f4 DAB2     		uxtb	r2, r3
 7418 01f6 7B69     		ldr	r3, [r7, #20]
 7419 01f8 0093     		str	r3, [sp]
 7420 01fa 4FF08073 		mov	r3, #16777216
 7421 01fe F868     		ldr	r0, [r7, #12]
 7422 0200 FFF7FEFF 		bl	I2C_TransferConfig
 7423 0204 11E0     		b	.L478
 7424              	.L489:
 7425 0206 FB68     		ldr	r3, [r7, #12]
 7426 0208 5B8D     		ldrh	r3, [r3, #42]	@ movhi
 7427 020a 9AB2     		uxth	r2, r3
 7428 020c FB68     		ldr	r3, [r7, #12]
 7429 020e 1A85     		strh	r2, [r3, #40]	@ movhi
 7430 0210 FB68     		ldr	r3, [r7, #12]
 7431 0212 DB6C     		ldr	r3, [r3, #76]
 7432 0214 99B2     		uxth	r1, r3
 7433 0216 FB68     		ldr	r3, [r7, #12]
 7434 0218 1B8D     		ldrh	r3, [r3, #40]
 7435 021a DAB2     		uxtb	r2, r3
 7436 021c 7B69     		ldr	r3, [r7, #20]
 7437 021e 0093     		str	r3, [sp]
 7438 0220 4FF00073 		mov	r3, #33554432
 7439 0224 F868     		ldr	r0, [r7, #12]
 7440 0226 FFF7FEFF 		bl	I2C_TransferConfig
 7441              	.L478:
 7442 022a 3B69     		ldr	r3, [r7, #16]
 7443 022c 5B09     		lsrs	r3, r3, #5
 7444 022e 03F00103 		and	r3, r3, #1
 7445 0232 002B     		cmp	r3, #0
 7446 0234 09D0     		beq	.L490
 7447 0236 7B68     		ldr	r3, [r7, #4]
 7448 0238 5B09     		lsrs	r3, r3, #5
 7449 023a 03F00103 		and	r3, r3, #1
 7450 023e 002B     		cmp	r3, #0
 7451 0240 03D0     		beq	.L490
 7452 0242 3969     		ldr	r1, [r7, #16]
 7453 0244 F868     		ldr	r0, [r7, #12]
 7454 0246 FFF7FEFF 		bl	I2C_ITMasterCplt
ARM GAS  /var/folders/k1/1yttftd15rl7jxtpyc5m93n80000gn/T//ccqqVpOc.s 			page 130


 7455              	.L490:
 7456 024a FB68     		ldr	r3, [r7, #12]
 7457 024c 0022     		movs	r2, #0
 7458 024e 83F84020 		strb	r2, [r3, #64]
 7459 0252 0023     		movs	r3, #0
 7460              	.L476:
 7461 0254 1846     		mov	r0, r3
 7462 0256 1837     		adds	r7, r7, #24
 7463 0258 BD46     		mov	sp, r7
 7464              		@ sp needed
 7465 025a 80BD     		pop	{r7, pc}
 7466              	.L492:
 7467              		.align	2
 7468              	.L491:
 7469 025c 00200080 		.word	-2147475456
 7470 0260 00240080 		.word	-2147474432
 7472              		.section	.text.I2C_Slave_ISR_IT,"ax",%progbits
 7473              		.align	1
 7474              		.syntax unified
 7475              		.thumb
 7476              		.thumb_func
 7478              	I2C_Slave_ISR_IT:
 7479              		@ args = 0, pretend = 0, frame = 24
 7480              		@ frame_needed = 1, uses_anonymous_args = 0
 7481 0000 80B5     		push	{r7, lr}
 7482 0002 86B0     		sub	sp, sp, #24
 7483 0004 00AF     		add	r7, sp, #0
 7484 0006 F860     		str	r0, [r7, #12]
 7485 0008 B960     		str	r1, [r7, #8]
 7486 000a 7A60     		str	r2, [r7, #4]
 7487 000c FB68     		ldr	r3, [r7, #12]
 7488 000e DB6A     		ldr	r3, [r3, #44]
 7489 0010 7B61     		str	r3, [r7, #20]
 7490 0012 BB68     		ldr	r3, [r7, #8]
 7491 0014 3B61     		str	r3, [r7, #16]
 7492 0016 FB68     		ldr	r3, [r7, #12]
 7493 0018 93F84030 		ldrb	r3, [r3, #64]	@ zero_extendqisi2
 7494 001c 012B     		cmp	r3, #1
 7495 001e 01D1     		bne	.L494
 7496 0020 0223     		movs	r3, #2
 7497 0022 EDE0     		b	.L495
 7498              	.L494:
 7499 0024 FB68     		ldr	r3, [r7, #12]
 7500 0026 0122     		movs	r2, #1
 7501 0028 83F84020 		strb	r2, [r3, #64]
 7502 002c 3B69     		ldr	r3, [r7, #16]
 7503 002e 5B09     		lsrs	r3, r3, #5
 7504 0030 03F00103 		and	r3, r3, #1
 7505 0034 002B     		cmp	r3, #0
 7506 0036 0AD0     		beq	.L496
 7507 0038 7B68     		ldr	r3, [r7, #4]
 7508 003a 5B09     		lsrs	r3, r3, #5
 7509 003c 03F00103 		and	r3, r3, #1
 7510 0040 002B     		cmp	r3, #0
 7511 0042 04D0     		beq	.L496
 7512 0044 3969     		ldr	r1, [r7, #16]
 7513 0046 F868     		ldr	r0, [r7, #12]
ARM GAS  /var/folders/k1/1yttftd15rl7jxtpyc5m93n80000gn/T//ccqqVpOc.s 			page 131


 7514 0048 FFF7FEFF 		bl	I2C_ITSlaveCplt
 7515 004c D3E0     		b	.L497
 7516              	.L496:
 7517 004e 3B69     		ldr	r3, [r7, #16]
 7518 0050 1B09     		lsrs	r3, r3, #4
 7519 0052 03F00103 		and	r3, r3, #1
 7520 0056 002B     		cmp	r3, #0
 7521 0058 4DD0     		beq	.L498
 7522 005a 7B68     		ldr	r3, [r7, #4]
 7523 005c 1B09     		lsrs	r3, r3, #4
 7524 005e 03F00103 		and	r3, r3, #1
 7525 0062 002B     		cmp	r3, #0
 7526 0064 47D0     		beq	.L498
 7527 0066 FB68     		ldr	r3, [r7, #12]
 7528 0068 5B8D     		ldrh	r3, [r3, #42]	@ movhi
 7529 006a 9BB2     		uxth	r3, r3
 7530 006c 002B     		cmp	r3, #0
 7531 006e 28D1     		bne	.L499
 7532 0070 FB68     		ldr	r3, [r7, #12]
 7533 0072 93F84130 		ldrb	r3, [r3, #65]
 7534 0076 DBB2     		uxtb	r3, r3
 7535 0078 282B     		cmp	r3, #40
 7536 007a 08D1     		bne	.L500
 7537 007c 7B69     		ldr	r3, [r7, #20]
 7538 007e B3F1007F 		cmp	r3, #33554432
 7539 0082 04D1     		bne	.L500
 7540 0084 3969     		ldr	r1, [r7, #16]
 7541 0086 F868     		ldr	r0, [r7, #12]
 7542 0088 FFF7FEFF 		bl	I2C_ITListenCplt
 7543 008c 32E0     		b	.L503
 7544              	.L500:
 7545 008e FB68     		ldr	r3, [r7, #12]
 7546 0090 93F84130 		ldrb	r3, [r3, #65]
 7547 0094 DBB2     		uxtb	r3, r3
 7548 0096 292B     		cmp	r3, #41
 7549 0098 0ED1     		bne	.L502
 7550 009a 7B69     		ldr	r3, [r7, #20]
 7551 009c 13F5803F 		cmn	r3, #65536
 7552 00a0 0AD0     		beq	.L502
 7553 00a2 FB68     		ldr	r3, [r7, #12]
 7554 00a4 1B68     		ldr	r3, [r3]
 7555 00a6 1022     		movs	r2, #16
 7556 00a8 DA61     		str	r2, [r3, #28]
 7557 00aa F868     		ldr	r0, [r7, #12]
 7558 00ac FFF7FEFF 		bl	I2C_Flush_TXDR
 7559 00b0 F868     		ldr	r0, [r7, #12]
 7560 00b2 FFF7FEFF 		bl	I2C_ITSlaveSeqCplt
 7561 00b6 1DE0     		b	.L503
 7562              	.L502:
 7563 00b8 FB68     		ldr	r3, [r7, #12]
 7564 00ba 1B68     		ldr	r3, [r3]
 7565 00bc 1022     		movs	r2, #16
 7566 00be DA61     		str	r2, [r3, #28]
 7567 00c0 96E0     		b	.L511
 7568              	.L499:
 7569 00c2 FB68     		ldr	r3, [r7, #12]
 7570 00c4 1B68     		ldr	r3, [r3]
ARM GAS  /var/folders/k1/1yttftd15rl7jxtpyc5m93n80000gn/T//ccqqVpOc.s 			page 132


 7571 00c6 1022     		movs	r2, #16
 7572 00c8 DA61     		str	r2, [r3, #28]
 7573 00ca FB68     		ldr	r3, [r7, #12]
 7574 00cc 5B6C     		ldr	r3, [r3, #68]
 7575 00ce 43F00402 		orr	r2, r3, #4
 7576 00d2 FB68     		ldr	r3, [r7, #12]
 7577 00d4 5A64     		str	r2, [r3, #68]
 7578 00d6 7B69     		ldr	r3, [r7, #20]
 7579 00d8 002B     		cmp	r3, #0
 7580 00da 04D0     		beq	.L504
 7581 00dc 7B69     		ldr	r3, [r7, #20]
 7582 00de B3F1807F 		cmp	r3, #16777216
 7583 00e2 40F08580 		bne	.L511
 7584              	.L504:
 7585 00e6 FB68     		ldr	r3, [r7, #12]
 7586 00e8 5B6C     		ldr	r3, [r3, #68]
 7587 00ea 1946     		mov	r1, r3
 7588 00ec F868     		ldr	r0, [r7, #12]
 7589 00ee FFF7FEFF 		bl	I2C_ITError
 7590 00f2 7DE0     		b	.L511
 7591              	.L503:
 7592 00f4 7CE0     		b	.L511
 7593              	.L498:
 7594 00f6 3B69     		ldr	r3, [r7, #16]
 7595 00f8 9B08     		lsrs	r3, r3, #2
 7596 00fa 03F00103 		and	r3, r3, #1
 7597 00fe 002B     		cmp	r3, #0
 7598 0100 30D0     		beq	.L505
 7599 0102 7B68     		ldr	r3, [r7, #4]
 7600 0104 9B08     		lsrs	r3, r3, #2
 7601 0106 03F00103 		and	r3, r3, #1
 7602 010a 002B     		cmp	r3, #0
 7603 010c 2AD0     		beq	.L505
 7604 010e FB68     		ldr	r3, [r7, #12]
 7605 0110 5B8D     		ldrh	r3, [r3, #42]	@ movhi
 7606 0112 9BB2     		uxth	r3, r3
 7607 0114 002B     		cmp	r3, #0
 7608 0116 18D0     		beq	.L506
 7609 0118 FB68     		ldr	r3, [r7, #12]
 7610 011a 1B68     		ldr	r3, [r3]
 7611 011c 5A6A     		ldr	r2, [r3, #36]
 7612 011e FB68     		ldr	r3, [r7, #12]
 7613 0120 5B6A     		ldr	r3, [r3, #36]
 7614 0122 D2B2     		uxtb	r2, r2
 7615 0124 1A70     		strb	r2, [r3]
 7616 0126 FB68     		ldr	r3, [r7, #12]
 7617 0128 5B6A     		ldr	r3, [r3, #36]
 7618 012a 5A1C     		adds	r2, r3, #1
 7619 012c FB68     		ldr	r3, [r7, #12]
 7620 012e 5A62     		str	r2, [r3, #36]
 7621 0130 FB68     		ldr	r3, [r7, #12]
 7622 0132 1B8D     		ldrh	r3, [r3, #40]
 7623 0134 013B     		subs	r3, r3, #1
 7624 0136 9AB2     		uxth	r2, r3
 7625 0138 FB68     		ldr	r3, [r7, #12]
 7626 013a 1A85     		strh	r2, [r3, #40]	@ movhi
 7627 013c FB68     		ldr	r3, [r7, #12]
ARM GAS  /var/folders/k1/1yttftd15rl7jxtpyc5m93n80000gn/T//ccqqVpOc.s 			page 133


 7628 013e 5B8D     		ldrh	r3, [r3, #42]	@ movhi
 7629 0140 9BB2     		uxth	r3, r3
 7630 0142 013B     		subs	r3, r3, #1
 7631 0144 9AB2     		uxth	r2, r3
 7632 0146 FB68     		ldr	r3, [r7, #12]
 7633 0148 5A85     		strh	r2, [r3, #42]	@ movhi
 7634              	.L506:
 7635 014a FB68     		ldr	r3, [r7, #12]
 7636 014c 5B8D     		ldrh	r3, [r3, #42]	@ movhi
 7637 014e 9BB2     		uxth	r3, r3
 7638 0150 002B     		cmp	r3, #0
 7639 0152 4FD1     		bne	.L512
 7640 0154 7B69     		ldr	r3, [r7, #20]
 7641 0156 13F5803F 		cmn	r3, #65536
 7642 015a 4BD0     		beq	.L512
 7643 015c F868     		ldr	r0, [r7, #12]
 7644 015e FFF7FEFF 		bl	I2C_ITSlaveSeqCplt
 7645 0162 47E0     		b	.L512
 7646              	.L505:
 7647 0164 3B69     		ldr	r3, [r7, #16]
 7648 0166 DB08     		lsrs	r3, r3, #3
 7649 0168 03F00103 		and	r3, r3, #1
 7650 016c 002B     		cmp	r3, #0
 7651 016e 0AD0     		beq	.L508
 7652 0170 7B68     		ldr	r3, [r7, #4]
 7653 0172 DB08     		lsrs	r3, r3, #3
 7654 0174 03F00103 		and	r3, r3, #1
 7655 0178 002B     		cmp	r3, #0
 7656 017a 04D0     		beq	.L508
 7657 017c 3969     		ldr	r1, [r7, #16]
 7658 017e F868     		ldr	r0, [r7, #12]
 7659 0180 FFF7FEFF 		bl	I2C_ITAddrCplt
 7660 0184 37E0     		b	.L497
 7661              	.L508:
 7662 0186 3B69     		ldr	r3, [r7, #16]
 7663 0188 5B08     		lsrs	r3, r3, #1
 7664 018a 03F00103 		and	r3, r3, #1
 7665 018e 002B     		cmp	r3, #0
 7666 0190 31D0     		beq	.L497
 7667 0192 7B68     		ldr	r3, [r7, #4]
 7668 0194 5B08     		lsrs	r3, r3, #1
 7669 0196 03F00103 		and	r3, r3, #1
 7670 019a 002B     		cmp	r3, #0
 7671 019c 2BD0     		beq	.L497
 7672 019e FB68     		ldr	r3, [r7, #12]
 7673 01a0 5B8D     		ldrh	r3, [r3, #42]	@ movhi
 7674 01a2 9BB2     		uxth	r3, r3
 7675 01a4 002B     		cmp	r3, #0
 7676 01a6 18D0     		beq	.L509
 7677 01a8 FB68     		ldr	r3, [r7, #12]
 7678 01aa 5B6A     		ldr	r3, [r3, #36]
 7679 01ac 1A78     		ldrb	r2, [r3]	@ zero_extendqisi2
 7680 01ae FB68     		ldr	r3, [r7, #12]
 7681 01b0 1B68     		ldr	r3, [r3]
 7682 01b2 9A62     		str	r2, [r3, #40]
 7683 01b4 FB68     		ldr	r3, [r7, #12]
 7684 01b6 5B6A     		ldr	r3, [r3, #36]
ARM GAS  /var/folders/k1/1yttftd15rl7jxtpyc5m93n80000gn/T//ccqqVpOc.s 			page 134


 7685 01b8 5A1C     		adds	r2, r3, #1
 7686 01ba FB68     		ldr	r3, [r7, #12]
 7687 01bc 5A62     		str	r2, [r3, #36]
 7688 01be FB68     		ldr	r3, [r7, #12]
 7689 01c0 5B8D     		ldrh	r3, [r3, #42]	@ movhi
 7690 01c2 9BB2     		uxth	r3, r3
 7691 01c4 013B     		subs	r3, r3, #1
 7692 01c6 9AB2     		uxth	r2, r3
 7693 01c8 FB68     		ldr	r3, [r7, #12]
 7694 01ca 5A85     		strh	r2, [r3, #42]	@ movhi
 7695 01cc FB68     		ldr	r3, [r7, #12]
 7696 01ce 1B8D     		ldrh	r3, [r3, #40]
 7697 01d0 013B     		subs	r3, r3, #1
 7698 01d2 9AB2     		uxth	r2, r3
 7699 01d4 FB68     		ldr	r3, [r7, #12]
 7700 01d6 1A85     		strh	r2, [r3, #40]	@ movhi
 7701 01d8 0DE0     		b	.L497
 7702              	.L509:
 7703 01da 7B69     		ldr	r3, [r7, #20]
 7704 01dc B3F1807F 		cmp	r3, #16777216
 7705 01e0 02D0     		beq	.L510
 7706 01e2 7B69     		ldr	r3, [r7, #20]
 7707 01e4 002B     		cmp	r3, #0
 7708 01e6 06D1     		bne	.L497
 7709              	.L510:
 7710 01e8 F868     		ldr	r0, [r7, #12]
 7711 01ea FFF7FEFF 		bl	I2C_ITSlaveSeqCplt
 7712 01ee 02E0     		b	.L497
 7713              	.L511:
 7714 01f0 00BF     		nop
 7715 01f2 00E0     		b	.L497
 7716              	.L512:
 7717 01f4 00BF     		nop
 7718              	.L497:
 7719 01f6 FB68     		ldr	r3, [r7, #12]
 7720 01f8 0022     		movs	r2, #0
 7721 01fa 83F84020 		strb	r2, [r3, #64]
 7722 01fe 0023     		movs	r3, #0
 7723              	.L495:
 7724 0200 1846     		mov	r0, r3
 7725 0202 1837     		adds	r7, r7, #24
 7726 0204 BD46     		mov	sp, r7
 7727              		@ sp needed
 7728 0206 80BD     		pop	{r7, pc}
 7730              		.section	.text.I2C_Master_ISR_DMA,"ax",%progbits
 7731              		.align	1
 7732              		.syntax unified
 7733              		.thumb
 7734              		.thumb_func
 7736              	I2C_Master_ISR_DMA:
 7737              		@ args = 0, pretend = 0, frame = 24
 7738              		@ frame_needed = 1, uses_anonymous_args = 0
 7739 0000 80B5     		push	{r7, lr}
 7740 0002 88B0     		sub	sp, sp, #32
 7741 0004 02AF     		add	r7, sp, #8
 7742 0006 F860     		str	r0, [r7, #12]
 7743 0008 B960     		str	r1, [r7, #8]
ARM GAS  /var/folders/k1/1yttftd15rl7jxtpyc5m93n80000gn/T//ccqqVpOc.s 			page 135


 7744 000a 7A60     		str	r2, [r7, #4]
 7745 000c FB68     		ldr	r3, [r7, #12]
 7746 000e 93F84030 		ldrb	r3, [r3, #64]	@ zero_extendqisi2
 7747 0012 012B     		cmp	r3, #1
 7748 0014 01D1     		bne	.L514
 7749 0016 0223     		movs	r3, #2
 7750 0018 E1E0     		b	.L515
 7751              	.L514:
 7752 001a FB68     		ldr	r3, [r7, #12]
 7753 001c 0122     		movs	r2, #1
 7754 001e 83F84020 		strb	r2, [r3, #64]
 7755 0022 BB68     		ldr	r3, [r7, #8]
 7756 0024 1B09     		lsrs	r3, r3, #4
 7757 0026 03F00103 		and	r3, r3, #1
 7758 002a 002B     		cmp	r3, #0
 7759 002c 17D0     		beq	.L516
 7760 002e 7B68     		ldr	r3, [r7, #4]
 7761 0030 1B09     		lsrs	r3, r3, #4
 7762 0032 03F00103 		and	r3, r3, #1
 7763 0036 002B     		cmp	r3, #0
 7764 0038 11D0     		beq	.L516
 7765 003a FB68     		ldr	r3, [r7, #12]
 7766 003c 1B68     		ldr	r3, [r3]
 7767 003e 1022     		movs	r2, #16
 7768 0040 DA61     		str	r2, [r3, #28]
 7769 0042 FB68     		ldr	r3, [r7, #12]
 7770 0044 5B6C     		ldr	r3, [r3, #68]
 7771 0046 43F00402 		orr	r2, r3, #4
 7772 004a FB68     		ldr	r3, [r7, #12]
 7773 004c 5A64     		str	r2, [r3, #68]
 7774 004e 2021     		movs	r1, #32
 7775 0050 F868     		ldr	r0, [r7, #12]
 7776 0052 FFF7FEFF 		bl	I2C_Enable_IRQ
 7777 0056 F868     		ldr	r0, [r7, #12]
 7778 0058 FFF7FEFF 		bl	I2C_Flush_TXDR
 7779 005c BAE0     		b	.L517
 7780              	.L516:
 7781 005e BB68     		ldr	r3, [r7, #8]
 7782 0060 DB09     		lsrs	r3, r3, #7
 7783 0062 03F00103 		and	r3, r3, #1
 7784 0066 002B     		cmp	r3, #0
 7785 0068 72D0     		beq	.L518
 7786 006a 7B68     		ldr	r3, [r7, #4]
 7787 006c 9B09     		lsrs	r3, r3, #6
 7788 006e 03F00103 		and	r3, r3, #1
 7789 0072 002B     		cmp	r3, #0
 7790 0074 6CD0     		beq	.L518
 7791 0076 FB68     		ldr	r3, [r7, #12]
 7792 0078 1B68     		ldr	r3, [r3]
 7793 007a 1A68     		ldr	r2, [r3]
 7794 007c FB68     		ldr	r3, [r7, #12]
 7795 007e 1B68     		ldr	r3, [r3]
 7796 0080 22F04002 		bic	r2, r2, #64
 7797 0084 1A60     		str	r2, [r3]
 7798 0086 FB68     		ldr	r3, [r7, #12]
 7799 0088 5B8D     		ldrh	r3, [r3, #42]	@ movhi
 7800 008a 9BB2     		uxth	r3, r3
ARM GAS  /var/folders/k1/1yttftd15rl7jxtpyc5m93n80000gn/T//ccqqVpOc.s 			page 136


 7801 008c 002B     		cmp	r3, #0
 7802 008e 4ED0     		beq	.L519
 7803 0090 FB68     		ldr	r3, [r7, #12]
 7804 0092 1B68     		ldr	r3, [r3]
 7805 0094 5B68     		ldr	r3, [r3, #4]
 7806 0096 9BB2     		uxth	r3, r3
 7807 0098 C3F30903 		ubfx	r3, r3, #0, #10
 7808 009c 7B82     		strh	r3, [r7, #18]	@ movhi
 7809 009e FB68     		ldr	r3, [r7, #12]
 7810 00a0 5B8D     		ldrh	r3, [r3, #42]	@ movhi
 7811 00a2 9BB2     		uxth	r3, r3
 7812 00a4 FF2B     		cmp	r3, #255
 7813 00a6 06D9     		bls	.L520
 7814 00a8 FB68     		ldr	r3, [r7, #12]
 7815 00aa FF22     		movs	r2, #255
 7816 00ac 1A85     		strh	r2, [r3, #40]	@ movhi
 7817 00ae 4FF08073 		mov	r3, #16777216
 7818 00b2 7B61     		str	r3, [r7, #20]
 7819 00b4 10E0     		b	.L521
 7820              	.L520:
 7821 00b6 FB68     		ldr	r3, [r7, #12]
 7822 00b8 5B8D     		ldrh	r3, [r3, #42]	@ movhi
 7823 00ba 9AB2     		uxth	r2, r3
 7824 00bc FB68     		ldr	r3, [r7, #12]
 7825 00be 1A85     		strh	r2, [r3, #40]	@ movhi
 7826 00c0 FB68     		ldr	r3, [r7, #12]
 7827 00c2 DB6A     		ldr	r3, [r3, #44]
 7828 00c4 13F5803F 		cmn	r3, #65536
 7829 00c8 03D0     		beq	.L522
 7830 00ca FB68     		ldr	r3, [r7, #12]
 7831 00cc DB6A     		ldr	r3, [r3, #44]
 7832 00ce 7B61     		str	r3, [r7, #20]
 7833 00d0 02E0     		b	.L521
 7834              	.L522:
 7835 00d2 4FF00073 		mov	r3, #33554432
 7836 00d6 7B61     		str	r3, [r7, #20]
 7837              	.L521:
 7838 00d8 FB68     		ldr	r3, [r7, #12]
 7839 00da 1B8D     		ldrh	r3, [r3, #40]
 7840 00dc DAB2     		uxtb	r2, r3
 7841 00de 798A     		ldrh	r1, [r7, #18]
 7842 00e0 0023     		movs	r3, #0
 7843 00e2 0093     		str	r3, [sp]
 7844 00e4 7B69     		ldr	r3, [r7, #20]
 7845 00e6 F868     		ldr	r0, [r7, #12]
 7846 00e8 FFF7FEFF 		bl	I2C_TransferConfig
 7847 00ec FB68     		ldr	r3, [r7, #12]
 7848 00ee 5B8D     		ldrh	r3, [r3, #42]	@ movhi
 7849 00f0 9AB2     		uxth	r2, r3
 7850 00f2 FB68     		ldr	r3, [r7, #12]
 7851 00f4 1B8D     		ldrh	r3, [r3, #40]
 7852 00f6 D31A     		subs	r3, r2, r3
 7853 00f8 9AB2     		uxth	r2, r3
 7854 00fa FB68     		ldr	r3, [r7, #12]
 7855 00fc 5A85     		strh	r2, [r3, #42]	@ movhi
 7856 00fe FB68     		ldr	r3, [r7, #12]
 7857 0100 93F84130 		ldrb	r3, [r3, #65]
ARM GAS  /var/folders/k1/1yttftd15rl7jxtpyc5m93n80000gn/T//ccqqVpOc.s 			page 137


 7858 0104 DBB2     		uxtb	r3, r3
 7859 0106 222B     		cmp	r3, #34
 7860 0108 08D1     		bne	.L523
 7861 010a FB68     		ldr	r3, [r7, #12]
 7862 010c 1B68     		ldr	r3, [r3]
 7863 010e 1A68     		ldr	r2, [r3]
 7864 0110 FB68     		ldr	r3, [r7, #12]
 7865 0112 1B68     		ldr	r3, [r3]
 7866 0114 42F40042 		orr	r2, r2, #32768
 7867 0118 1A60     		str	r2, [r3]
 7868 011a 5BE0     		b	.L517
 7869              	.L523:
 7870 011c FB68     		ldr	r3, [r7, #12]
 7871 011e 1B68     		ldr	r3, [r3]
 7872 0120 1A68     		ldr	r2, [r3]
 7873 0122 FB68     		ldr	r3, [r7, #12]
 7874 0124 1B68     		ldr	r3, [r3]
 7875 0126 42F48042 		orr	r2, r2, #16384
 7876 012a 1A60     		str	r2, [r3]
 7877 012c 52E0     		b	.L517
 7878              	.L519:
 7879 012e FB68     		ldr	r3, [r7, #12]
 7880 0130 1B68     		ldr	r3, [r3]
 7881 0132 5B68     		ldr	r3, [r3, #4]
 7882 0134 03F00073 		and	r3, r3, #33554432
 7883 0138 B3F1007F 		cmp	r3, #33554432
 7884 013c 03D0     		beq	.L525
 7885 013e F868     		ldr	r0, [r7, #12]
 7886 0140 FFF7FEFF 		bl	I2C_ITMasterSeqCplt
 7887 0144 46E0     		b	.L517
 7888              	.L525:
 7889 0146 4021     		movs	r1, #64
 7890 0148 F868     		ldr	r0, [r7, #12]
 7891 014a FFF7FEFF 		bl	I2C_ITError
 7892 014e 41E0     		b	.L517
 7893              	.L518:
 7894 0150 BB68     		ldr	r3, [r7, #8]
 7895 0152 9B09     		lsrs	r3, r3, #6
 7896 0154 03F00103 		and	r3, r3, #1
 7897 0158 002B     		cmp	r3, #0
 7898 015a 29D0     		beq	.L526
 7899 015c 7B68     		ldr	r3, [r7, #4]
 7900 015e 9B09     		lsrs	r3, r3, #6
 7901 0160 03F00103 		and	r3, r3, #1
 7902 0164 002B     		cmp	r3, #0
 7903 0166 23D0     		beq	.L526
 7904 0168 FB68     		ldr	r3, [r7, #12]
 7905 016a 5B8D     		ldrh	r3, [r3, #42]	@ movhi
 7906 016c 9BB2     		uxth	r3, r3
 7907 016e 002B     		cmp	r3, #0
 7908 0170 19D1     		bne	.L527
 7909 0172 FB68     		ldr	r3, [r7, #12]
 7910 0174 1B68     		ldr	r3, [r3]
 7911 0176 5B68     		ldr	r3, [r3, #4]
 7912 0178 03F00073 		and	r3, r3, #33554432
 7913 017c B3F1007F 		cmp	r3, #33554432
 7914 0180 27D0     		beq	.L530
ARM GAS  /var/folders/k1/1yttftd15rl7jxtpyc5m93n80000gn/T//ccqqVpOc.s 			page 138


 7915 0182 FB68     		ldr	r3, [r7, #12]
 7916 0184 DB6A     		ldr	r3, [r3, #44]
 7917 0186 13F5803F 		cmn	r3, #65536
 7918 018a 08D1     		bne	.L529
 7919 018c FB68     		ldr	r3, [r7, #12]
 7920 018e 1B68     		ldr	r3, [r3]
 7921 0190 5A68     		ldr	r2, [r3, #4]
 7922 0192 FB68     		ldr	r3, [r7, #12]
 7923 0194 1B68     		ldr	r3, [r3]
 7924 0196 42F48042 		orr	r2, r2, #16384
 7925 019a 5A60     		str	r2, [r3, #4]
 7926 019c 19E0     		b	.L530
 7927              	.L529:
 7928 019e F868     		ldr	r0, [r7, #12]
 7929 01a0 FFF7FEFF 		bl	I2C_ITMasterSeqCplt
 7930 01a4 15E0     		b	.L530
 7931              	.L527:
 7932 01a6 4021     		movs	r1, #64
 7933 01a8 F868     		ldr	r0, [r7, #12]
 7934 01aa FFF7FEFF 		bl	I2C_ITError
 7935 01ae 10E0     		b	.L530
 7936              	.L526:
 7937 01b0 BB68     		ldr	r3, [r7, #8]
 7938 01b2 5B09     		lsrs	r3, r3, #5
 7939 01b4 03F00103 		and	r3, r3, #1
 7940 01b8 002B     		cmp	r3, #0
 7941 01ba 0BD0     		beq	.L517
 7942 01bc 7B68     		ldr	r3, [r7, #4]
 7943 01be 5B09     		lsrs	r3, r3, #5
 7944 01c0 03F00103 		and	r3, r3, #1
 7945 01c4 002B     		cmp	r3, #0
 7946 01c6 05D0     		beq	.L517
 7947 01c8 B968     		ldr	r1, [r7, #8]
 7948 01ca F868     		ldr	r0, [r7, #12]
 7949 01cc FFF7FEFF 		bl	I2C_ITMasterCplt
 7950 01d0 00E0     		b	.L517
 7951              	.L530:
 7952 01d2 00BF     		nop
 7953              	.L517:
 7954 01d4 FB68     		ldr	r3, [r7, #12]
 7955 01d6 0022     		movs	r2, #0
 7956 01d8 83F84020 		strb	r2, [r3, #64]
 7957 01dc 0023     		movs	r3, #0
 7958              	.L515:
 7959 01de 1846     		mov	r0, r3
 7960 01e0 1837     		adds	r7, r7, #24
 7961 01e2 BD46     		mov	sp, r7
 7962              		@ sp needed
 7963 01e4 80BD     		pop	{r7, pc}
 7965              		.section	.text.I2C_Mem_ISR_DMA,"ax",%progbits
 7966              		.align	1
 7967              		.syntax unified
 7968              		.thumb
 7969              		.thumb_func
 7971              	I2C_Mem_ISR_DMA:
 7972              		@ args = 0, pretend = 0, frame = 24
 7973              		@ frame_needed = 1, uses_anonymous_args = 0
ARM GAS  /var/folders/k1/1yttftd15rl7jxtpyc5m93n80000gn/T//ccqqVpOc.s 			page 139


 7974 0000 80B5     		push	{r7, lr}
 7975 0002 88B0     		sub	sp, sp, #32
 7976 0004 02AF     		add	r7, sp, #8
 7977 0006 F860     		str	r0, [r7, #12]
 7978 0008 B960     		str	r1, [r7, #8]
 7979 000a 7A60     		str	r2, [r7, #4]
 7980 000c 924B     		ldr	r3, .L549
 7981 000e 7B61     		str	r3, [r7, #20]
 7982 0010 FB68     		ldr	r3, [r7, #12]
 7983 0012 93F84030 		ldrb	r3, [r3, #64]	@ zero_extendqisi2
 7984 0016 012B     		cmp	r3, #1
 7985 0018 01D1     		bne	.L532
 7986 001a 0223     		movs	r3, #2
 7987 001c 18E1     		b	.L533
 7988              	.L532:
 7989 001e FB68     		ldr	r3, [r7, #12]
 7990 0020 0122     		movs	r2, #1
 7991 0022 83F84020 		strb	r2, [r3, #64]
 7992 0026 BB68     		ldr	r3, [r7, #8]
 7993 0028 1B09     		lsrs	r3, r3, #4
 7994 002a 03F00103 		and	r3, r3, #1
 7995 002e 002B     		cmp	r3, #0
 7996 0030 17D0     		beq	.L534
 7997 0032 7B68     		ldr	r3, [r7, #4]
 7998 0034 1B09     		lsrs	r3, r3, #4
 7999 0036 03F00103 		and	r3, r3, #1
 8000 003a 002B     		cmp	r3, #0
 8001 003c 11D0     		beq	.L534
 8002 003e FB68     		ldr	r3, [r7, #12]
 8003 0040 1B68     		ldr	r3, [r3]
 8004 0042 1022     		movs	r2, #16
 8005 0044 DA61     		str	r2, [r3, #28]
 8006 0046 FB68     		ldr	r3, [r7, #12]
 8007 0048 5B6C     		ldr	r3, [r3, #68]
 8008 004a 43F00402 		orr	r2, r3, #4
 8009 004e FB68     		ldr	r3, [r7, #12]
 8010 0050 5A64     		str	r2, [r3, #68]
 8011 0052 2021     		movs	r1, #32
 8012 0054 F868     		ldr	r0, [r7, #12]
 8013 0056 FFF7FEFF 		bl	I2C_Enable_IRQ
 8014 005a F868     		ldr	r0, [r7, #12]
 8015 005c FFF7FEFF 		bl	I2C_Flush_TXDR
 8016 0060 F1E0     		b	.L535
 8017              	.L534:
 8018 0062 BB68     		ldr	r3, [r7, #8]
 8019 0064 5B08     		lsrs	r3, r3, #1
 8020 0066 03F00103 		and	r3, r3, #1
 8021 006a 002B     		cmp	r3, #0
 8022 006c 0FD0     		beq	.L536
 8023 006e 7B68     		ldr	r3, [r7, #4]
 8024 0070 5B08     		lsrs	r3, r3, #1
 8025 0072 03F00103 		and	r3, r3, #1
 8026 0076 002B     		cmp	r3, #0
 8027 0078 09D0     		beq	.L536
 8028 007a FB68     		ldr	r3, [r7, #12]
 8029 007c 1B68     		ldr	r3, [r3]
 8030 007e FA68     		ldr	r2, [r7, #12]
ARM GAS  /var/folders/k1/1yttftd15rl7jxtpyc5m93n80000gn/T//ccqqVpOc.s 			page 140


 8031 0080 126D     		ldr	r2, [r2, #80]
 8032 0082 9A62     		str	r2, [r3, #40]
 8033 0084 FB68     		ldr	r3, [r7, #12]
 8034 0086 4FF0FF32 		mov	r2, #-1
 8035 008a 1A65     		str	r2, [r3, #80]
 8036 008c DBE0     		b	.L535
 8037              	.L536:
 8038 008e BB68     		ldr	r3, [r7, #8]
 8039 0090 DB09     		lsrs	r3, r3, #7
 8040 0092 03F00103 		and	r3, r3, #1
 8041 0096 002B     		cmp	r3, #0
 8042 0098 60D0     		beq	.L537
 8043 009a 7B68     		ldr	r3, [r7, #4]
 8044 009c 9B09     		lsrs	r3, r3, #6
 8045 009e 03F00103 		and	r3, r3, #1
 8046 00a2 002B     		cmp	r3, #0
 8047 00a4 5AD0     		beq	.L537
 8048 00a6 0121     		movs	r1, #1
 8049 00a8 F868     		ldr	r0, [r7, #12]
 8050 00aa FFF7FEFF 		bl	I2C_Disable_IRQ
 8051 00ae 1021     		movs	r1, #16
 8052 00b0 F868     		ldr	r0, [r7, #12]
 8053 00b2 FFF7FEFF 		bl	I2C_Enable_IRQ
 8054 00b6 FB68     		ldr	r3, [r7, #12]
 8055 00b8 5B8D     		ldrh	r3, [r3, #42]	@ movhi
 8056 00ba 9BB2     		uxth	r3, r3
 8057 00bc 002B     		cmp	r3, #0
 8058 00be 48D0     		beq	.L538
 8059 00c0 FB68     		ldr	r3, [r7, #12]
 8060 00c2 5B8D     		ldrh	r3, [r3, #42]	@ movhi
 8061 00c4 9BB2     		uxth	r3, r3
 8062 00c6 FF2B     		cmp	r3, #255
 8063 00c8 10D9     		bls	.L539
 8064 00ca FB68     		ldr	r3, [r7, #12]
 8065 00cc FF22     		movs	r2, #255
 8066 00ce 1A85     		strh	r2, [r3, #40]	@ movhi
 8067 00d0 FB68     		ldr	r3, [r7, #12]
 8068 00d2 DB6C     		ldr	r3, [r3, #76]
 8069 00d4 99B2     		uxth	r1, r3
 8070 00d6 FB68     		ldr	r3, [r7, #12]
 8071 00d8 1B8D     		ldrh	r3, [r3, #40]
 8072 00da DAB2     		uxtb	r2, r3
 8073 00dc 0023     		movs	r3, #0
 8074 00de 0093     		str	r3, [sp]
 8075 00e0 4FF08073 		mov	r3, #16777216
 8076 00e4 F868     		ldr	r0, [r7, #12]
 8077 00e6 FFF7FEFF 		bl	I2C_TransferConfig
 8078 00ea 11E0     		b	.L540
 8079              	.L539:
 8080 00ec FB68     		ldr	r3, [r7, #12]
 8081 00ee 5B8D     		ldrh	r3, [r3, #42]	@ movhi
 8082 00f0 9AB2     		uxth	r2, r3
 8083 00f2 FB68     		ldr	r3, [r7, #12]
 8084 00f4 1A85     		strh	r2, [r3, #40]	@ movhi
 8085 00f6 FB68     		ldr	r3, [r7, #12]
 8086 00f8 DB6C     		ldr	r3, [r3, #76]
 8087 00fa 99B2     		uxth	r1, r3
ARM GAS  /var/folders/k1/1yttftd15rl7jxtpyc5m93n80000gn/T//ccqqVpOc.s 			page 141


 8088 00fc FB68     		ldr	r3, [r7, #12]
 8089 00fe 1B8D     		ldrh	r3, [r3, #40]
 8090 0100 DAB2     		uxtb	r2, r3
 8091 0102 0023     		movs	r3, #0
 8092 0104 0093     		str	r3, [sp]
 8093 0106 4FF00073 		mov	r3, #33554432
 8094 010a F868     		ldr	r0, [r7, #12]
 8095 010c FFF7FEFF 		bl	I2C_TransferConfig
 8096              	.L540:
 8097 0110 FB68     		ldr	r3, [r7, #12]
 8098 0112 5B8D     		ldrh	r3, [r3, #42]	@ movhi
 8099 0114 9AB2     		uxth	r2, r3
 8100 0116 FB68     		ldr	r3, [r7, #12]
 8101 0118 1B8D     		ldrh	r3, [r3, #40]
 8102 011a D31A     		subs	r3, r2, r3
 8103 011c 9AB2     		uxth	r2, r3
 8104 011e FB68     		ldr	r3, [r7, #12]
 8105 0120 5A85     		strh	r2, [r3, #42]	@ movhi
 8106 0122 FB68     		ldr	r3, [r7, #12]
 8107 0124 93F84130 		ldrb	r3, [r3, #65]
 8108 0128 DBB2     		uxtb	r3, r3
 8109 012a 222B     		cmp	r3, #34
 8110 012c 08D1     		bne	.L541
 8111 012e FB68     		ldr	r3, [r7, #12]
 8112 0130 1B68     		ldr	r3, [r3]
 8113 0132 1A68     		ldr	r2, [r3]
 8114 0134 FB68     		ldr	r3, [r7, #12]
 8115 0136 1B68     		ldr	r3, [r3]
 8116 0138 42F40042 		orr	r2, r2, #32768
 8117 013c 1A60     		str	r2, [r3]
 8118 013e 82E0     		b	.L535
 8119              	.L541:
 8120 0140 FB68     		ldr	r3, [r7, #12]
 8121 0142 1B68     		ldr	r3, [r3]
 8122 0144 1A68     		ldr	r2, [r3]
 8123 0146 FB68     		ldr	r3, [r7, #12]
 8124 0148 1B68     		ldr	r3, [r3]
 8125 014a 42F48042 		orr	r2, r2, #16384
 8126 014e 1A60     		str	r2, [r3]
 8127 0150 79E0     		b	.L535
 8128              	.L538:
 8129 0152 4021     		movs	r1, #64
 8130 0154 F868     		ldr	r0, [r7, #12]
 8131 0156 FFF7FEFF 		bl	I2C_ITError
 8132 015a 74E0     		b	.L535
 8133              	.L537:
 8134 015c BB68     		ldr	r3, [r7, #8]
 8135 015e 9B09     		lsrs	r3, r3, #6
 8136 0160 03F00103 		and	r3, r3, #1
 8137 0164 002B     		cmp	r3, #0
 8138 0166 5ED0     		beq	.L543
 8139 0168 7B68     		ldr	r3, [r7, #4]
 8140 016a 9B09     		lsrs	r3, r3, #6
 8141 016c 03F00103 		and	r3, r3, #1
 8142 0170 002B     		cmp	r3, #0
 8143 0172 58D0     		beq	.L543
 8144 0174 0121     		movs	r1, #1
ARM GAS  /var/folders/k1/1yttftd15rl7jxtpyc5m93n80000gn/T//ccqqVpOc.s 			page 142


 8145 0176 F868     		ldr	r0, [r7, #12]
 8146 0178 FFF7FEFF 		bl	I2C_Disable_IRQ
 8147 017c 1021     		movs	r1, #16
 8148 017e F868     		ldr	r0, [r7, #12]
 8149 0180 FFF7FEFF 		bl	I2C_Enable_IRQ
 8150 0184 FB68     		ldr	r3, [r7, #12]
 8151 0186 93F84130 		ldrb	r3, [r3, #65]
 8152 018a DBB2     		uxtb	r3, r3
 8153 018c 222B     		cmp	r3, #34
 8154 018e 01D1     		bne	.L544
 8155 0190 324B     		ldr	r3, .L549+4
 8156 0192 7B61     		str	r3, [r7, #20]
 8157              	.L544:
 8158 0194 FB68     		ldr	r3, [r7, #12]
 8159 0196 5B8D     		ldrh	r3, [r3, #42]	@ movhi
 8160 0198 9BB2     		uxth	r3, r3
 8161 019a FF2B     		cmp	r3, #255
 8162 019c 10D9     		bls	.L545
 8163 019e FB68     		ldr	r3, [r7, #12]
 8164 01a0 FF22     		movs	r2, #255
 8165 01a2 1A85     		strh	r2, [r3, #40]	@ movhi
 8166 01a4 FB68     		ldr	r3, [r7, #12]
 8167 01a6 DB6C     		ldr	r3, [r3, #76]
 8168 01a8 99B2     		uxth	r1, r3
 8169 01aa FB68     		ldr	r3, [r7, #12]
 8170 01ac 1B8D     		ldrh	r3, [r3, #40]
 8171 01ae DAB2     		uxtb	r2, r3
 8172 01b0 7B69     		ldr	r3, [r7, #20]
 8173 01b2 0093     		str	r3, [sp]
 8174 01b4 4FF08073 		mov	r3, #16777216
 8175 01b8 F868     		ldr	r0, [r7, #12]
 8176 01ba FFF7FEFF 		bl	I2C_TransferConfig
 8177 01be 11E0     		b	.L546
 8178              	.L545:
 8179 01c0 FB68     		ldr	r3, [r7, #12]
 8180 01c2 5B8D     		ldrh	r3, [r3, #42]	@ movhi
 8181 01c4 9AB2     		uxth	r2, r3
 8182 01c6 FB68     		ldr	r3, [r7, #12]
 8183 01c8 1A85     		strh	r2, [r3, #40]	@ movhi
 8184 01ca FB68     		ldr	r3, [r7, #12]
 8185 01cc DB6C     		ldr	r3, [r3, #76]
 8186 01ce 99B2     		uxth	r1, r3
 8187 01d0 FB68     		ldr	r3, [r7, #12]
 8188 01d2 1B8D     		ldrh	r3, [r3, #40]
 8189 01d4 DAB2     		uxtb	r2, r3
 8190 01d6 7B69     		ldr	r3, [r7, #20]
 8191 01d8 0093     		str	r3, [sp]
 8192 01da 4FF00073 		mov	r3, #33554432
 8193 01de F868     		ldr	r0, [r7, #12]
 8194 01e0 FFF7FEFF 		bl	I2C_TransferConfig
 8195              	.L546:
 8196 01e4 FB68     		ldr	r3, [r7, #12]
 8197 01e6 5B8D     		ldrh	r3, [r3, #42]	@ movhi
 8198 01e8 9AB2     		uxth	r2, r3
 8199 01ea FB68     		ldr	r3, [r7, #12]
 8200 01ec 1B8D     		ldrh	r3, [r3, #40]
 8201 01ee D31A     		subs	r3, r2, r3
ARM GAS  /var/folders/k1/1yttftd15rl7jxtpyc5m93n80000gn/T//ccqqVpOc.s 			page 143


 8202 01f0 9AB2     		uxth	r2, r3
 8203 01f2 FB68     		ldr	r3, [r7, #12]
 8204 01f4 5A85     		strh	r2, [r3, #42]	@ movhi
 8205 01f6 FB68     		ldr	r3, [r7, #12]
 8206 01f8 93F84130 		ldrb	r3, [r3, #65]
 8207 01fc DBB2     		uxtb	r3, r3
 8208 01fe 222B     		cmp	r3, #34
 8209 0200 08D1     		bne	.L547
 8210 0202 FB68     		ldr	r3, [r7, #12]
 8211 0204 1B68     		ldr	r3, [r3]
 8212 0206 1A68     		ldr	r2, [r3]
 8213 0208 FB68     		ldr	r3, [r7, #12]
 8214 020a 1B68     		ldr	r3, [r3]
 8215 020c 42F40042 		orr	r2, r2, #32768
 8216 0210 1A60     		str	r2, [r3]
 8217 0212 18E0     		b	.L535
 8218              	.L547:
 8219 0214 FB68     		ldr	r3, [r7, #12]
 8220 0216 1B68     		ldr	r3, [r3]
 8221 0218 1A68     		ldr	r2, [r3]
 8222 021a FB68     		ldr	r3, [r7, #12]
 8223 021c 1B68     		ldr	r3, [r3]
 8224 021e 42F48042 		orr	r2, r2, #16384
 8225 0222 1A60     		str	r2, [r3]
 8226 0224 0FE0     		b	.L535
 8227              	.L543:
 8228 0226 BB68     		ldr	r3, [r7, #8]
 8229 0228 5B09     		lsrs	r3, r3, #5
 8230 022a 03F00103 		and	r3, r3, #1
 8231 022e 002B     		cmp	r3, #0
 8232 0230 09D0     		beq	.L535
 8233 0232 7B68     		ldr	r3, [r7, #4]
 8234 0234 5B09     		lsrs	r3, r3, #5
 8235 0236 03F00103 		and	r3, r3, #1
 8236 023a 002B     		cmp	r3, #0
 8237 023c 03D0     		beq	.L535
 8238 023e B968     		ldr	r1, [r7, #8]
 8239 0240 F868     		ldr	r0, [r7, #12]
 8240 0242 FFF7FEFF 		bl	I2C_ITMasterCplt
 8241              	.L535:
 8242 0246 FB68     		ldr	r3, [r7, #12]
 8243 0248 0022     		movs	r2, #0
 8244 024a 83F84020 		strb	r2, [r3, #64]
 8245 024e 0023     		movs	r3, #0
 8246              	.L533:
 8247 0250 1846     		mov	r0, r3
 8248 0252 1837     		adds	r7, r7, #24
 8249 0254 BD46     		mov	sp, r7
 8250              		@ sp needed
 8251 0256 80BD     		pop	{r7, pc}
 8252              	.L550:
 8253              		.align	2
 8254              	.L549:
 8255 0258 00200080 		.word	-2147475456
 8256 025c 00240080 		.word	-2147474432
 8258              		.section	.text.I2C_Slave_ISR_DMA,"ax",%progbits
 8259              		.align	1
ARM GAS  /var/folders/k1/1yttftd15rl7jxtpyc5m93n80000gn/T//ccqqVpOc.s 			page 144


 8260              		.syntax unified
 8261              		.thumb
 8262              		.thumb_func
 8264              	I2C_Slave_ISR_DMA:
 8265              		@ args = 0, pretend = 0, frame = 32
 8266              		@ frame_needed = 1, uses_anonymous_args = 0
 8267 0000 80B5     		push	{r7, lr}
 8268 0002 88B0     		sub	sp, sp, #32
 8269 0004 00AF     		add	r7, sp, #0
 8270 0006 F860     		str	r0, [r7, #12]
 8271 0008 B960     		str	r1, [r7, #8]
 8272 000a 7A60     		str	r2, [r7, #4]
 8273 000c FB68     		ldr	r3, [r7, #12]
 8274 000e DB6A     		ldr	r3, [r3, #44]
 8275 0010 BB61     		str	r3, [r7, #24]
 8276 0012 0023     		movs	r3, #0
 8277 0014 FB61     		str	r3, [r7, #28]
 8278 0016 FB68     		ldr	r3, [r7, #12]
 8279 0018 93F84030 		ldrb	r3, [r3, #64]	@ zero_extendqisi2
 8280 001c 012B     		cmp	r3, #1
 8281 001e 01D1     		bne	.L552
 8282 0020 0223     		movs	r3, #2
 8283 0022 CAE0     		b	.L553
 8284              	.L552:
 8285 0024 FB68     		ldr	r3, [r7, #12]
 8286 0026 0122     		movs	r2, #1
 8287 0028 83F84020 		strb	r2, [r3, #64]
 8288 002c BB68     		ldr	r3, [r7, #8]
 8289 002e 5B09     		lsrs	r3, r3, #5
 8290 0030 03F00103 		and	r3, r3, #1
 8291 0034 002B     		cmp	r3, #0
 8292 0036 0AD0     		beq	.L554
 8293 0038 7B68     		ldr	r3, [r7, #4]
 8294 003a 5B09     		lsrs	r3, r3, #5
 8295 003c 03F00103 		and	r3, r3, #1
 8296 0040 002B     		cmp	r3, #0
 8297 0042 04D0     		beq	.L554
 8298 0044 B968     		ldr	r1, [r7, #8]
 8299 0046 F868     		ldr	r0, [r7, #12]
 8300 0048 FFF7FEFF 		bl	I2C_ITSlaveCplt
 8301 004c B0E0     		b	.L555
 8302              	.L554:
 8303 004e BB68     		ldr	r3, [r7, #8]
 8304 0050 1B09     		lsrs	r3, r3, #4
 8305 0052 03F00103 		and	r3, r3, #1
 8306 0056 002B     		cmp	r3, #0
 8307 0058 00F09A80 		beq	.L556
 8308 005c 7B68     		ldr	r3, [r7, #4]
 8309 005e 1B09     		lsrs	r3, r3, #4
 8310 0060 03F00103 		and	r3, r3, #1
 8311 0064 002B     		cmp	r3, #0
 8312 0066 00F09380 		beq	.L556
 8313 006a 7B68     		ldr	r3, [r7, #4]
 8314 006c 9B0B     		lsrs	r3, r3, #14
 8315 006e 03F00103 		and	r3, r3, #1
 8316 0072 002B     		cmp	r3, #0
 8317 0074 05D1     		bne	.L557
ARM GAS  /var/folders/k1/1yttftd15rl7jxtpyc5m93n80000gn/T//ccqqVpOc.s 			page 145


 8318 0076 7B68     		ldr	r3, [r7, #4]
 8319 0078 DB0B     		lsrs	r3, r3, #15
 8320 007a 03F00103 		and	r3, r3, #1
 8321 007e 002B     		cmp	r3, #0
 8322 0080 7FD0     		beq	.L558
 8323              	.L557:
 8324 0082 FB68     		ldr	r3, [r7, #12]
 8325 0084 DB6B     		ldr	r3, [r3, #60]
 8326 0086 002B     		cmp	r3, #0
 8327 0088 0DD0     		beq	.L559
 8328 008a 7B68     		ldr	r3, [r7, #4]
 8329 008c DB0B     		lsrs	r3, r3, #15
 8330 008e 03F00103 		and	r3, r3, #1
 8331 0092 002B     		cmp	r3, #0
 8332 0094 07D0     		beq	.L559
 8333 0096 FB68     		ldr	r3, [r7, #12]
 8334 0098 DB6B     		ldr	r3, [r3, #60]
 8335 009a 1B68     		ldr	r3, [r3]
 8336 009c 5B68     		ldr	r3, [r3, #4]
 8337 009e 002B     		cmp	r3, #0
 8338 00a0 01D1     		bne	.L559
 8339 00a2 0123     		movs	r3, #1
 8340 00a4 FB61     		str	r3, [r7, #28]
 8341              	.L559:
 8342 00a6 FB68     		ldr	r3, [r7, #12]
 8343 00a8 9B6B     		ldr	r3, [r3, #56]
 8344 00aa 002B     		cmp	r3, #0
 8345 00ac 0DD0     		beq	.L560
 8346 00ae 7B68     		ldr	r3, [r7, #4]
 8347 00b0 9B0B     		lsrs	r3, r3, #14
 8348 00b2 03F00103 		and	r3, r3, #1
 8349 00b6 002B     		cmp	r3, #0
 8350 00b8 07D0     		beq	.L560
 8351 00ba FB68     		ldr	r3, [r7, #12]
 8352 00bc 9B6B     		ldr	r3, [r3, #56]
 8353 00be 1B68     		ldr	r3, [r3]
 8354 00c0 5B68     		ldr	r3, [r3, #4]
 8355 00c2 002B     		cmp	r3, #0
 8356 00c4 01D1     		bne	.L560
 8357 00c6 0123     		movs	r3, #1
 8358 00c8 FB61     		str	r3, [r7, #28]
 8359              	.L560:
 8360 00ca FB69     		ldr	r3, [r7, #28]
 8361 00cc 012B     		cmp	r3, #1
 8362 00ce 28D1     		bne	.L561
 8363 00d0 FB68     		ldr	r3, [r7, #12]
 8364 00d2 93F84130 		ldrb	r3, [r3, #65]
 8365 00d6 DBB2     		uxtb	r3, r3
 8366 00d8 282B     		cmp	r3, #40
 8367 00da 08D1     		bne	.L562
 8368 00dc BB69     		ldr	r3, [r7, #24]
 8369 00de B3F1007F 		cmp	r3, #33554432
 8370 00e2 04D1     		bne	.L562
 8371 00e4 B968     		ldr	r1, [r7, #8]
 8372 00e6 F868     		ldr	r0, [r7, #12]
 8373 00e8 FFF7FEFF 		bl	I2C_ITListenCplt
 8374 00ec 48E0     		b	.L565
ARM GAS  /var/folders/k1/1yttftd15rl7jxtpyc5m93n80000gn/T//ccqqVpOc.s 			page 146


 8375              	.L562:
 8376 00ee FB68     		ldr	r3, [r7, #12]
 8377 00f0 93F84130 		ldrb	r3, [r3, #65]
 8378 00f4 DBB2     		uxtb	r3, r3
 8379 00f6 292B     		cmp	r3, #41
 8380 00f8 0ED1     		bne	.L564
 8381 00fa BB69     		ldr	r3, [r7, #24]
 8382 00fc 13F5803F 		cmn	r3, #65536
 8383 0100 0AD0     		beq	.L564
 8384 0102 FB68     		ldr	r3, [r7, #12]
 8385 0104 1B68     		ldr	r3, [r3]
 8386 0106 1022     		movs	r2, #16
 8387 0108 DA61     		str	r2, [r3, #28]
 8388 010a F868     		ldr	r0, [r7, #12]
 8389 010c FFF7FEFF 		bl	I2C_Flush_TXDR
 8390 0110 F868     		ldr	r0, [r7, #12]
 8391 0112 FFF7FEFF 		bl	I2C_ITSlaveSeqCplt
 8392 0116 33E0     		b	.L565
 8393              	.L564:
 8394 0118 FB68     		ldr	r3, [r7, #12]
 8395 011a 1B68     		ldr	r3, [r3]
 8396 011c 1022     		movs	r2, #16
 8397 011e DA61     		str	r2, [r3, #28]
 8398 0120 34E0     		b	.L572
 8399              	.L561:
 8400 0122 FB68     		ldr	r3, [r7, #12]
 8401 0124 1B68     		ldr	r3, [r3]
 8402 0126 1022     		movs	r2, #16
 8403 0128 DA61     		str	r2, [r3, #28]
 8404 012a FB68     		ldr	r3, [r7, #12]
 8405 012c 5B6C     		ldr	r3, [r3, #68]
 8406 012e 43F00402 		orr	r2, r3, #4
 8407 0132 FB68     		ldr	r3, [r7, #12]
 8408 0134 5A64     		str	r2, [r3, #68]
 8409 0136 FB68     		ldr	r3, [r7, #12]
 8410 0138 93F84130 		ldrb	r3, [r3, #65]
 8411 013c FB75     		strb	r3, [r7, #23]
 8412 013e BB69     		ldr	r3, [r7, #24]
 8413 0140 002B     		cmp	r3, #0
 8414 0142 03D0     		beq	.L566
 8415 0144 BB69     		ldr	r3, [r7, #24]
 8416 0146 B3F1807F 		cmp	r3, #16777216
 8417 014a 1FD1     		bne	.L572
 8418              	.L566:
 8419 014c FB7D     		ldrb	r3, [r7, #23]	@ zero_extendqisi2
 8420 014e 212B     		cmp	r3, #33
 8421 0150 02D0     		beq	.L567
 8422 0152 FB7D     		ldrb	r3, [r7, #23]	@ zero_extendqisi2
 8423 0154 292B     		cmp	r3, #41
 8424 0156 03D1     		bne	.L568
 8425              	.L567:
 8426 0158 FB68     		ldr	r3, [r7, #12]
 8427 015a 2122     		movs	r2, #33
 8428 015c 1A63     		str	r2, [r3, #48]
 8429 015e 08E0     		b	.L569
 8430              	.L568:
 8431 0160 FB7D     		ldrb	r3, [r7, #23]	@ zero_extendqisi2
ARM GAS  /var/folders/k1/1yttftd15rl7jxtpyc5m93n80000gn/T//ccqqVpOc.s 			page 147


 8432 0162 222B     		cmp	r3, #34
 8433 0164 02D0     		beq	.L570
 8434 0166 FB7D     		ldrb	r3, [r7, #23]	@ zero_extendqisi2
 8435 0168 2A2B     		cmp	r3, #42
 8436 016a 02D1     		bne	.L569
 8437              	.L570:
 8438 016c FB68     		ldr	r3, [r7, #12]
 8439 016e 2222     		movs	r2, #34
 8440 0170 1A63     		str	r2, [r3, #48]
 8441              	.L569:
 8442 0172 FB68     		ldr	r3, [r7, #12]
 8443 0174 5B6C     		ldr	r3, [r3, #68]
 8444 0176 1946     		mov	r1, r3
 8445 0178 F868     		ldr	r0, [r7, #12]
 8446 017a FFF7FEFF 		bl	I2C_ITError
 8447 017e 05E0     		b	.L572
 8448              	.L565:
 8449 0180 04E0     		b	.L572
 8450              	.L558:
 8451 0182 FB68     		ldr	r3, [r7, #12]
 8452 0184 1B68     		ldr	r3, [r3]
 8453 0186 1022     		movs	r2, #16
 8454 0188 DA61     		str	r2, [r3, #28]
 8455 018a 11E0     		b	.L555
 8456              	.L572:
 8457 018c 00BF     		nop
 8458 018e 0FE0     		b	.L555
 8459              	.L556:
 8460 0190 BB68     		ldr	r3, [r7, #8]
 8461 0192 DB08     		lsrs	r3, r3, #3
 8462 0194 03F00103 		and	r3, r3, #1
 8463 0198 002B     		cmp	r3, #0
 8464 019a 09D0     		beq	.L555
 8465 019c 7B68     		ldr	r3, [r7, #4]
 8466 019e DB08     		lsrs	r3, r3, #3
 8467 01a0 03F00103 		and	r3, r3, #1
 8468 01a4 002B     		cmp	r3, #0
 8469 01a6 03D0     		beq	.L555
 8470 01a8 B968     		ldr	r1, [r7, #8]
 8471 01aa F868     		ldr	r0, [r7, #12]
 8472 01ac FFF7FEFF 		bl	I2C_ITAddrCplt
 8473              	.L555:
 8474 01b0 FB68     		ldr	r3, [r7, #12]
 8475 01b2 0022     		movs	r2, #0
 8476 01b4 83F84020 		strb	r2, [r3, #64]
 8477 01b8 0023     		movs	r3, #0
 8478              	.L553:
 8479 01ba 1846     		mov	r0, r3
 8480 01bc 2037     		adds	r7, r7, #32
 8481 01be BD46     		mov	sp, r7
 8482              		@ sp needed
 8483 01c0 80BD     		pop	{r7, pc}
 8485              		.section	.text.I2C_RequestMemoryWrite,"ax",%progbits
 8486              		.align	1
 8487              		.syntax unified
 8488              		.thumb
 8489              		.thumb_func
ARM GAS  /var/folders/k1/1yttftd15rl7jxtpyc5m93n80000gn/T//ccqqVpOc.s 			page 148


 8491              	I2C_RequestMemoryWrite:
 8492              		@ args = 8, pretend = 0, frame = 16
 8493              		@ frame_needed = 1, uses_anonymous_args = 0
 8494 0000 80B5     		push	{r7, lr}
 8495 0002 86B0     		sub	sp, sp, #24
 8496 0004 02AF     		add	r7, sp, #8
 8497 0006 F860     		str	r0, [r7, #12]
 8498 0008 0846     		mov	r0, r1
 8499 000a 1146     		mov	r1, r2
 8500 000c 1A46     		mov	r2, r3
 8501 000e 0346     		mov	r3, r0	@ movhi
 8502 0010 7B81     		strh	r3, [r7, #10]	@ movhi
 8503 0012 0B46     		mov	r3, r1	@ movhi
 8504 0014 3B81     		strh	r3, [r7, #8]	@ movhi
 8505 0016 1346     		mov	r3, r2	@ movhi
 8506 0018 FB80     		strh	r3, [r7, #6]	@ movhi
 8507 001a FB88     		ldrh	r3, [r7, #6]	@ movhi
 8508 001c DAB2     		uxtb	r2, r3
 8509 001e 7989     		ldrh	r1, [r7, #10]
 8510 0020 204B     		ldr	r3, .L580
 8511 0022 0093     		str	r3, [sp]
 8512 0024 4FF08073 		mov	r3, #16777216
 8513 0028 F868     		ldr	r0, [r7, #12]
 8514 002a FFF7FEFF 		bl	I2C_TransferConfig
 8515 002e FA69     		ldr	r2, [r7, #28]
 8516 0030 B969     		ldr	r1, [r7, #24]
 8517 0032 F868     		ldr	r0, [r7, #12]
 8518 0034 FFF7FEFF 		bl	I2C_WaitOnTXISFlagUntilTimeout
 8519 0038 0346     		mov	r3, r0
 8520 003a 002B     		cmp	r3, #0
 8521 003c 01D0     		beq	.L574
 8522 003e 0123     		movs	r3, #1
 8523 0040 2CE0     		b	.L575
 8524              	.L574:
 8525 0042 FB88     		ldrh	r3, [r7, #6]
 8526 0044 012B     		cmp	r3, #1
 8527 0046 05D1     		bne	.L576
 8528 0048 3B89     		ldrh	r3, [r7, #8]	@ movhi
 8529 004a DAB2     		uxtb	r2, r3
 8530 004c FB68     		ldr	r3, [r7, #12]
 8531 004e 1B68     		ldr	r3, [r3]
 8532 0050 9A62     		str	r2, [r3, #40]
 8533 0052 15E0     		b	.L577
 8534              	.L576:
 8535 0054 3B89     		ldrh	r3, [r7, #8]
 8536 0056 1B0A     		lsrs	r3, r3, #8
 8537 0058 9BB2     		uxth	r3, r3
 8538 005a DAB2     		uxtb	r2, r3
 8539 005c FB68     		ldr	r3, [r7, #12]
 8540 005e 1B68     		ldr	r3, [r3]
 8541 0060 9A62     		str	r2, [r3, #40]
 8542 0062 FA69     		ldr	r2, [r7, #28]
 8543 0064 B969     		ldr	r1, [r7, #24]
 8544 0066 F868     		ldr	r0, [r7, #12]
 8545 0068 FFF7FEFF 		bl	I2C_WaitOnTXISFlagUntilTimeout
 8546 006c 0346     		mov	r3, r0
 8547 006e 002B     		cmp	r3, #0
ARM GAS  /var/folders/k1/1yttftd15rl7jxtpyc5m93n80000gn/T//ccqqVpOc.s 			page 149


 8548 0070 01D0     		beq	.L578
 8549 0072 0123     		movs	r3, #1
 8550 0074 12E0     		b	.L575
 8551              	.L578:
 8552 0076 3B89     		ldrh	r3, [r7, #8]	@ movhi
 8553 0078 DAB2     		uxtb	r2, r3
 8554 007a FB68     		ldr	r3, [r7, #12]
 8555 007c 1B68     		ldr	r3, [r3]
 8556 007e 9A62     		str	r2, [r3, #40]
 8557              	.L577:
 8558 0080 FB69     		ldr	r3, [r7, #28]
 8559 0082 0093     		str	r3, [sp]
 8560 0084 BB69     		ldr	r3, [r7, #24]
 8561 0086 0022     		movs	r2, #0
 8562 0088 8021     		movs	r1, #128
 8563 008a F868     		ldr	r0, [r7, #12]
 8564 008c FFF7FEFF 		bl	I2C_WaitOnFlagUntilTimeout
 8565 0090 0346     		mov	r3, r0
 8566 0092 002B     		cmp	r3, #0
 8567 0094 01D0     		beq	.L579
 8568 0096 0123     		movs	r3, #1
 8569 0098 00E0     		b	.L575
 8570              	.L579:
 8571 009a 0023     		movs	r3, #0
 8572              	.L575:
 8573 009c 1846     		mov	r0, r3
 8574 009e 1037     		adds	r7, r7, #16
 8575 00a0 BD46     		mov	sp, r7
 8576              		@ sp needed
 8577 00a2 80BD     		pop	{r7, pc}
 8578              	.L581:
 8579              		.align	2
 8580              	.L580:
 8581 00a4 00200080 		.word	-2147475456
 8583              		.section	.text.I2C_RequestMemoryRead,"ax",%progbits
 8584              		.align	1
 8585              		.syntax unified
 8586              		.thumb
 8587              		.thumb_func
 8589              	I2C_RequestMemoryRead:
 8590              		@ args = 8, pretend = 0, frame = 16
 8591              		@ frame_needed = 1, uses_anonymous_args = 0
 8592 0000 80B5     		push	{r7, lr}
 8593 0002 86B0     		sub	sp, sp, #24
 8594 0004 02AF     		add	r7, sp, #8
 8595 0006 F860     		str	r0, [r7, #12]
 8596 0008 0846     		mov	r0, r1
 8597 000a 1146     		mov	r1, r2
 8598 000c 1A46     		mov	r2, r3
 8599 000e 0346     		mov	r3, r0	@ movhi
 8600 0010 7B81     		strh	r3, [r7, #10]	@ movhi
 8601 0012 0B46     		mov	r3, r1	@ movhi
 8602 0014 3B81     		strh	r3, [r7, #8]	@ movhi
 8603 0016 1346     		mov	r3, r2	@ movhi
 8604 0018 FB80     		strh	r3, [r7, #6]	@ movhi
 8605 001a FB88     		ldrh	r3, [r7, #6]	@ movhi
 8606 001c DAB2     		uxtb	r2, r3
ARM GAS  /var/folders/k1/1yttftd15rl7jxtpyc5m93n80000gn/T//ccqqVpOc.s 			page 150


 8607 001e 7989     		ldrh	r1, [r7, #10]
 8608 0020 204B     		ldr	r3, .L589
 8609 0022 0093     		str	r3, [sp]
 8610 0024 0023     		movs	r3, #0
 8611 0026 F868     		ldr	r0, [r7, #12]
 8612 0028 FFF7FEFF 		bl	I2C_TransferConfig
 8613 002c FA69     		ldr	r2, [r7, #28]
 8614 002e B969     		ldr	r1, [r7, #24]
 8615 0030 F868     		ldr	r0, [r7, #12]
 8616 0032 FFF7FEFF 		bl	I2C_WaitOnTXISFlagUntilTimeout
 8617 0036 0346     		mov	r3, r0
 8618 0038 002B     		cmp	r3, #0
 8619 003a 01D0     		beq	.L583
 8620 003c 0123     		movs	r3, #1
 8621 003e 2CE0     		b	.L584
 8622              	.L583:
 8623 0040 FB88     		ldrh	r3, [r7, #6]
 8624 0042 012B     		cmp	r3, #1
 8625 0044 05D1     		bne	.L585
 8626 0046 3B89     		ldrh	r3, [r7, #8]	@ movhi
 8627 0048 DAB2     		uxtb	r2, r3
 8628 004a FB68     		ldr	r3, [r7, #12]
 8629 004c 1B68     		ldr	r3, [r3]
 8630 004e 9A62     		str	r2, [r3, #40]
 8631 0050 15E0     		b	.L586
 8632              	.L585:
 8633 0052 3B89     		ldrh	r3, [r7, #8]
 8634 0054 1B0A     		lsrs	r3, r3, #8
 8635 0056 9BB2     		uxth	r3, r3
 8636 0058 DAB2     		uxtb	r2, r3
 8637 005a FB68     		ldr	r3, [r7, #12]
 8638 005c 1B68     		ldr	r3, [r3]
 8639 005e 9A62     		str	r2, [r3, #40]
 8640 0060 FA69     		ldr	r2, [r7, #28]
 8641 0062 B969     		ldr	r1, [r7, #24]
 8642 0064 F868     		ldr	r0, [r7, #12]
 8643 0066 FFF7FEFF 		bl	I2C_WaitOnTXISFlagUntilTimeout
 8644 006a 0346     		mov	r3, r0
 8645 006c 002B     		cmp	r3, #0
 8646 006e 01D0     		beq	.L587
 8647 0070 0123     		movs	r3, #1
 8648 0072 12E0     		b	.L584
 8649              	.L587:
 8650 0074 3B89     		ldrh	r3, [r7, #8]	@ movhi
 8651 0076 DAB2     		uxtb	r2, r3
 8652 0078 FB68     		ldr	r3, [r7, #12]
 8653 007a 1B68     		ldr	r3, [r3]
 8654 007c 9A62     		str	r2, [r3, #40]
 8655              	.L586:
 8656 007e FB69     		ldr	r3, [r7, #28]
 8657 0080 0093     		str	r3, [sp]
 8658 0082 BB69     		ldr	r3, [r7, #24]
 8659 0084 0022     		movs	r2, #0
 8660 0086 4021     		movs	r1, #64
 8661 0088 F868     		ldr	r0, [r7, #12]
 8662 008a FFF7FEFF 		bl	I2C_WaitOnFlagUntilTimeout
 8663 008e 0346     		mov	r3, r0
ARM GAS  /var/folders/k1/1yttftd15rl7jxtpyc5m93n80000gn/T//ccqqVpOc.s 			page 151


 8664 0090 002B     		cmp	r3, #0
 8665 0092 01D0     		beq	.L588
 8666 0094 0123     		movs	r3, #1
 8667 0096 00E0     		b	.L584
 8668              	.L588:
 8669 0098 0023     		movs	r3, #0
 8670              	.L584:
 8671 009a 1846     		mov	r0, r3
 8672 009c 1037     		adds	r7, r7, #16
 8673 009e BD46     		mov	sp, r7
 8674              		@ sp needed
 8675 00a0 80BD     		pop	{r7, pc}
 8676              	.L590:
 8677 00a2 00BF     		.align	2
 8678              	.L589:
 8679 00a4 00200080 		.word	-2147475456
 8681              		.section	.text.I2C_ITAddrCplt,"ax",%progbits
 8682              		.align	1
 8683              		.syntax unified
 8684              		.thumb
 8685              		.thumb_func
 8687              	I2C_ITAddrCplt:
 8688              		@ args = 0, pretend = 0, frame = 16
 8689              		@ frame_needed = 1, uses_anonymous_args = 0
 8690 0000 80B5     		push	{r7, lr}
 8691 0002 84B0     		sub	sp, sp, #16
 8692 0004 00AF     		add	r7, sp, #0
 8693 0006 7860     		str	r0, [r7, #4]
 8694 0008 3960     		str	r1, [r7]
 8695 000a 7B68     		ldr	r3, [r7, #4]
 8696 000c 93F84130 		ldrb	r3, [r3, #65]
 8697 0010 DBB2     		uxtb	r3, r3
 8698 0012 03F02803 		and	r3, r3, #40
 8699 0016 282B     		cmp	r3, #40
 8700 0018 6AD1     		bne	.L592
 8701 001a 7B68     		ldr	r3, [r7, #4]
 8702 001c 1B68     		ldr	r3, [r3]
 8703 001e 9B69     		ldr	r3, [r3, #24]
 8704 0020 1B0C     		lsrs	r3, r3, #16
 8705 0022 DBB2     		uxtb	r3, r3
 8706 0024 03F00103 		and	r3, r3, #1
 8707 0028 FB73     		strb	r3, [r7, #15]
 8708 002a 7B68     		ldr	r3, [r7, #4]
 8709 002c 1B68     		ldr	r3, [r3]
 8710 002e 9B69     		ldr	r3, [r3, #24]
 8711 0030 1B0C     		lsrs	r3, r3, #16
 8712 0032 9BB2     		uxth	r3, r3
 8713 0034 03F0FE03 		and	r3, r3, #254
 8714 0038 BB81     		strh	r3, [r7, #12]	@ movhi
 8715 003a 7B68     		ldr	r3, [r7, #4]
 8716 003c 1B68     		ldr	r3, [r3]
 8717 003e 9B68     		ldr	r3, [r3, #8]
 8718 0040 9BB2     		uxth	r3, r3
 8719 0042 C3F30903 		ubfx	r3, r3, #0, #10
 8720 0046 7B81     		strh	r3, [r7, #10]	@ movhi
 8721 0048 7B68     		ldr	r3, [r7, #4]
 8722 004a 1B68     		ldr	r3, [r3]
ARM GAS  /var/folders/k1/1yttftd15rl7jxtpyc5m93n80000gn/T//ccqqVpOc.s 			page 152


 8723 004c DB68     		ldr	r3, [r3, #12]
 8724 004e 9BB2     		uxth	r3, r3
 8725 0050 03F0FE03 		and	r3, r3, #254
 8726 0054 3B81     		strh	r3, [r7, #8]	@ movhi
 8727 0056 7B68     		ldr	r3, [r7, #4]
 8728 0058 DB68     		ldr	r3, [r3, #12]
 8729 005a 022B     		cmp	r3, #2
 8730 005c 38D1     		bne	.L593
 8731 005e 7B89     		ldrh	r3, [r7, #10]
 8732 0060 DB09     		lsrs	r3, r3, #7
 8733 0062 9AB2     		uxth	r2, r3
 8734 0064 BB89     		ldrh	r3, [r7, #12]	@ movhi
 8735 0066 5340     		eors	r3, r3, r2
 8736 0068 9BB2     		uxth	r3, r3
 8737 006a 03F00603 		and	r3, r3, #6
 8738 006e 002B     		cmp	r3, #0
 8739 0070 1CD1     		bne	.L594
 8740 0072 7B89     		ldrh	r3, [r7, #10]	@ movhi
 8741 0074 BB81     		strh	r3, [r7, #12]	@ movhi
 8742 0076 7B68     		ldr	r3, [r7, #4]
 8743 0078 9B6C     		ldr	r3, [r3, #72]
 8744 007a 5A1C     		adds	r2, r3, #1
 8745 007c 7B68     		ldr	r3, [r7, #4]
 8746 007e 9A64     		str	r2, [r3, #72]
 8747 0080 7B68     		ldr	r3, [r7, #4]
 8748 0082 9B6C     		ldr	r3, [r3, #72]
 8749 0084 022B     		cmp	r3, #2
 8750 0086 3BD1     		bne	.L596
 8751 0088 7B68     		ldr	r3, [r7, #4]
 8752 008a 0022     		movs	r2, #0
 8753 008c 9A64     		str	r2, [r3, #72]
 8754 008e 7B68     		ldr	r3, [r7, #4]
 8755 0090 1B68     		ldr	r3, [r3]
 8756 0092 0822     		movs	r2, #8
 8757 0094 DA61     		str	r2, [r3, #28]
 8758 0096 7B68     		ldr	r3, [r7, #4]
 8759 0098 0022     		movs	r2, #0
 8760 009a 83F84020 		strb	r2, [r3, #64]
 8761 009e BA89     		ldrh	r2, [r7, #12]
 8762 00a0 FB7B     		ldrb	r3, [r7, #15]	@ zero_extendqisi2
 8763 00a2 1946     		mov	r1, r3
 8764 00a4 7868     		ldr	r0, [r7, #4]
 8765 00a6 FFF7FEFF 		bl	HAL_I2C_AddrCallback
 8766 00aa 29E0     		b	.L596
 8767              	.L594:
 8768 00ac 3B89     		ldrh	r3, [r7, #8]	@ movhi
 8769 00ae BB81     		strh	r3, [r7, #12]	@ movhi
 8770 00b0 4FF40041 		mov	r1, #32768
 8771 00b4 7868     		ldr	r0, [r7, #4]
 8772 00b6 FFF7FEFF 		bl	I2C_Disable_IRQ
 8773 00ba 7B68     		ldr	r3, [r7, #4]
 8774 00bc 0022     		movs	r2, #0
 8775 00be 83F84020 		strb	r2, [r3, #64]
 8776 00c2 BA89     		ldrh	r2, [r7, #12]
 8777 00c4 FB7B     		ldrb	r3, [r7, #15]	@ zero_extendqisi2
 8778 00c6 1946     		mov	r1, r3
 8779 00c8 7868     		ldr	r0, [r7, #4]
ARM GAS  /var/folders/k1/1yttftd15rl7jxtpyc5m93n80000gn/T//ccqqVpOc.s 			page 153


 8780 00ca FFF7FEFF 		bl	HAL_I2C_AddrCallback
 8781 00ce 17E0     		b	.L596
 8782              	.L593:
 8783 00d0 4FF40041 		mov	r1, #32768
 8784 00d4 7868     		ldr	r0, [r7, #4]
 8785 00d6 FFF7FEFF 		bl	I2C_Disable_IRQ
 8786 00da 7B68     		ldr	r3, [r7, #4]
 8787 00dc 0022     		movs	r2, #0
 8788 00de 83F84020 		strb	r2, [r3, #64]
 8789 00e2 BA89     		ldrh	r2, [r7, #12]
 8790 00e4 FB7B     		ldrb	r3, [r7, #15]	@ zero_extendqisi2
 8791 00e6 1946     		mov	r1, r3
 8792 00e8 7868     		ldr	r0, [r7, #4]
 8793 00ea FFF7FEFF 		bl	HAL_I2C_AddrCallback
 8794 00ee 07E0     		b	.L596
 8795              	.L592:
 8796 00f0 7B68     		ldr	r3, [r7, #4]
 8797 00f2 1B68     		ldr	r3, [r3]
 8798 00f4 0822     		movs	r2, #8
 8799 00f6 DA61     		str	r2, [r3, #28]
 8800 00f8 7B68     		ldr	r3, [r7, #4]
 8801 00fa 0022     		movs	r2, #0
 8802 00fc 83F84020 		strb	r2, [r3, #64]
 8803              	.L596:
 8804 0100 00BF     		nop
 8805 0102 1037     		adds	r7, r7, #16
 8806 0104 BD46     		mov	sp, r7
 8807              		@ sp needed
 8808 0106 80BD     		pop	{r7, pc}
 8810              		.section	.text.I2C_ITMasterSeqCplt,"ax",%progbits
 8811              		.align	1
 8812              		.syntax unified
 8813              		.thumb
 8814              		.thumb_func
 8816              	I2C_ITMasterSeqCplt:
 8817              		@ args = 0, pretend = 0, frame = 8
 8818              		@ frame_needed = 1, uses_anonymous_args = 0
 8819 0000 80B5     		push	{r7, lr}
 8820 0002 82B0     		sub	sp, sp, #8
 8821 0004 00AF     		add	r7, sp, #0
 8822 0006 7860     		str	r0, [r7, #4]
 8823 0008 7B68     		ldr	r3, [r7, #4]
 8824 000a 0022     		movs	r2, #0
 8825 000c 83F84220 		strb	r2, [r3, #66]
 8826 0010 7B68     		ldr	r3, [r7, #4]
 8827 0012 93F84130 		ldrb	r3, [r3, #65]
 8828 0016 DBB2     		uxtb	r3, r3
 8829 0018 212B     		cmp	r3, #33
 8830 001a 15D1     		bne	.L598
 8831 001c 7B68     		ldr	r3, [r7, #4]
 8832 001e 2022     		movs	r2, #32
 8833 0020 83F84120 		strb	r2, [r3, #65]
 8834 0024 7B68     		ldr	r3, [r7, #4]
 8835 0026 1122     		movs	r2, #17
 8836 0028 1A63     		str	r2, [r3, #48]
 8837 002a 7B68     		ldr	r3, [r7, #4]
 8838 002c 0022     		movs	r2, #0
ARM GAS  /var/folders/k1/1yttftd15rl7jxtpyc5m93n80000gn/T//ccqqVpOc.s 			page 154


 8839 002e 5A63     		str	r2, [r3, #52]
 8840 0030 0121     		movs	r1, #1
 8841 0032 7868     		ldr	r0, [r7, #4]
 8842 0034 FFF7FEFF 		bl	I2C_Disable_IRQ
 8843 0038 7B68     		ldr	r3, [r7, #4]
 8844 003a 0022     		movs	r2, #0
 8845 003c 83F84020 		strb	r2, [r3, #64]
 8846 0040 7868     		ldr	r0, [r7, #4]
 8847 0042 FFF7FEFF 		bl	HAL_I2C_MasterTxCpltCallback
 8848 0046 14E0     		b	.L600
 8849              	.L598:
 8850 0048 7B68     		ldr	r3, [r7, #4]
 8851 004a 2022     		movs	r2, #32
 8852 004c 83F84120 		strb	r2, [r3, #65]
 8853 0050 7B68     		ldr	r3, [r7, #4]
 8854 0052 1222     		movs	r2, #18
 8855 0054 1A63     		str	r2, [r3, #48]
 8856 0056 7B68     		ldr	r3, [r7, #4]
 8857 0058 0022     		movs	r2, #0
 8858 005a 5A63     		str	r2, [r3, #52]
 8859 005c 0221     		movs	r1, #2
 8860 005e 7868     		ldr	r0, [r7, #4]
 8861 0060 FFF7FEFF 		bl	I2C_Disable_IRQ
 8862 0064 7B68     		ldr	r3, [r7, #4]
 8863 0066 0022     		movs	r2, #0
 8864 0068 83F84020 		strb	r2, [r3, #64]
 8865 006c 7868     		ldr	r0, [r7, #4]
 8866 006e FFF7FEFF 		bl	HAL_I2C_MasterRxCpltCallback
 8867              	.L600:
 8868 0072 00BF     		nop
 8869 0074 0837     		adds	r7, r7, #8
 8870 0076 BD46     		mov	sp, r7
 8871              		@ sp needed
 8872 0078 80BD     		pop	{r7, pc}
 8874              		.section	.text.I2C_ITSlaveSeqCplt,"ax",%progbits
 8875              		.align	1
 8876              		.syntax unified
 8877              		.thumb
 8878              		.thumb_func
 8880              	I2C_ITSlaveSeqCplt:
 8881              		@ args = 0, pretend = 0, frame = 16
 8882              		@ frame_needed = 1, uses_anonymous_args = 0
 8883 0000 80B5     		push	{r7, lr}
 8884 0002 84B0     		sub	sp, sp, #16
 8885 0004 00AF     		add	r7, sp, #0
 8886 0006 7860     		str	r0, [r7, #4]
 8887 0008 7B68     		ldr	r3, [r7, #4]
 8888 000a 1B68     		ldr	r3, [r3]
 8889 000c 1B68     		ldr	r3, [r3]
 8890 000e FB60     		str	r3, [r7, #12]
 8891 0010 7B68     		ldr	r3, [r7, #4]
 8892 0012 0022     		movs	r2, #0
 8893 0014 83F84220 		strb	r2, [r3, #66]
 8894 0018 FB68     		ldr	r3, [r7, #12]
 8895 001a 9B0B     		lsrs	r3, r3, #14
 8896 001c 03F00103 		and	r3, r3, #1
 8897 0020 002B     		cmp	r3, #0
ARM GAS  /var/folders/k1/1yttftd15rl7jxtpyc5m93n80000gn/T//ccqqVpOc.s 			page 155


 8898 0022 08D0     		beq	.L602
 8899 0024 7B68     		ldr	r3, [r7, #4]
 8900 0026 1B68     		ldr	r3, [r3]
 8901 0028 1A68     		ldr	r2, [r3]
 8902 002a 7B68     		ldr	r3, [r7, #4]
 8903 002c 1B68     		ldr	r3, [r3]
 8904 002e 22F48042 		bic	r2, r2, #16384
 8905 0032 1A60     		str	r2, [r3]
 8906 0034 0DE0     		b	.L603
 8907              	.L602:
 8908 0036 FB68     		ldr	r3, [r7, #12]
 8909 0038 DB0B     		lsrs	r3, r3, #15
 8910 003a 03F00103 		and	r3, r3, #1
 8911 003e 002B     		cmp	r3, #0
 8912 0040 07D0     		beq	.L603
 8913 0042 7B68     		ldr	r3, [r7, #4]
 8914 0044 1B68     		ldr	r3, [r3]
 8915 0046 1A68     		ldr	r2, [r3]
 8916 0048 7B68     		ldr	r3, [r7, #4]
 8917 004a 1B68     		ldr	r3, [r3]
 8918 004c 22F40042 		bic	r2, r2, #32768
 8919 0050 1A60     		str	r2, [r3]
 8920              	.L603:
 8921 0052 7B68     		ldr	r3, [r7, #4]
 8922 0054 93F84130 		ldrb	r3, [r3, #65]
 8923 0058 DBB2     		uxtb	r3, r3
 8924 005a 292B     		cmp	r3, #41
 8925 005c 12D1     		bne	.L604
 8926 005e 7B68     		ldr	r3, [r7, #4]
 8927 0060 2822     		movs	r2, #40
 8928 0062 83F84120 		strb	r2, [r3, #65]
 8929 0066 7B68     		ldr	r3, [r7, #4]
 8930 0068 2122     		movs	r2, #33
 8931 006a 1A63     		str	r2, [r3, #48]
 8932 006c 0121     		movs	r1, #1
 8933 006e 7868     		ldr	r0, [r7, #4]
 8934 0070 FFF7FEFF 		bl	I2C_Disable_IRQ
 8935 0074 7B68     		ldr	r3, [r7, #4]
 8936 0076 0022     		movs	r2, #0
 8937 0078 83F84020 		strb	r2, [r3, #64]
 8938 007c 7868     		ldr	r0, [r7, #4]
 8939 007e FFF7FEFF 		bl	HAL_I2C_SlaveTxCpltCallback
 8940 0082 17E0     		b	.L606
 8941              	.L604:
 8942 0084 7B68     		ldr	r3, [r7, #4]
 8943 0086 93F84130 		ldrb	r3, [r3, #65]
 8944 008a DBB2     		uxtb	r3, r3
 8945 008c 2A2B     		cmp	r3, #42
 8946 008e 11D1     		bne	.L606
 8947 0090 7B68     		ldr	r3, [r7, #4]
 8948 0092 2822     		movs	r2, #40
 8949 0094 83F84120 		strb	r2, [r3, #65]
 8950 0098 7B68     		ldr	r3, [r7, #4]
 8951 009a 2222     		movs	r2, #34
 8952 009c 1A63     		str	r2, [r3, #48]
 8953 009e 0221     		movs	r1, #2
 8954 00a0 7868     		ldr	r0, [r7, #4]
ARM GAS  /var/folders/k1/1yttftd15rl7jxtpyc5m93n80000gn/T//ccqqVpOc.s 			page 156


 8955 00a2 FFF7FEFF 		bl	I2C_Disable_IRQ
 8956 00a6 7B68     		ldr	r3, [r7, #4]
 8957 00a8 0022     		movs	r2, #0
 8958 00aa 83F84020 		strb	r2, [r3, #64]
 8959 00ae 7868     		ldr	r0, [r7, #4]
 8960 00b0 FFF7FEFF 		bl	HAL_I2C_SlaveRxCpltCallback
 8961              	.L606:
 8962 00b4 00BF     		nop
 8963 00b6 1037     		adds	r7, r7, #16
 8964 00b8 BD46     		mov	sp, r7
 8965              		@ sp needed
 8966 00ba 80BD     		pop	{r7, pc}
 8968              		.section	.text.I2C_ITMasterCplt,"ax",%progbits
 8969              		.align	1
 8970              		.syntax unified
 8971              		.thumb
 8972              		.thumb_func
 8974              	I2C_ITMasterCplt:
 8975              		@ args = 0, pretend = 0, frame = 24
 8976              		@ frame_needed = 1, uses_anonymous_args = 0
 8977 0000 80B5     		push	{r7, lr}
 8978 0002 86B0     		sub	sp, sp, #24
 8979 0004 00AF     		add	r7, sp, #0
 8980 0006 7860     		str	r0, [r7, #4]
 8981 0008 3960     		str	r1, [r7]
 8982 000a 3B68     		ldr	r3, [r7]
 8983 000c 7B61     		str	r3, [r7, #20]
 8984 000e 7B68     		ldr	r3, [r7, #4]
 8985 0010 1B68     		ldr	r3, [r3]
 8986 0012 2022     		movs	r2, #32
 8987 0014 DA61     		str	r2, [r3, #28]
 8988 0016 7B68     		ldr	r3, [r7, #4]
 8989 0018 93F84130 		ldrb	r3, [r3, #65]
 8990 001c DBB2     		uxtb	r3, r3
 8991 001e 212B     		cmp	r3, #33
 8992 0020 07D1     		bne	.L608
 8993 0022 0121     		movs	r1, #1
 8994 0024 7868     		ldr	r0, [r7, #4]
 8995 0026 FFF7FEFF 		bl	I2C_Disable_IRQ
 8996 002a 7B68     		ldr	r3, [r7, #4]
 8997 002c 1122     		movs	r2, #17
 8998 002e 1A63     		str	r2, [r3, #48]
 8999 0030 0CE0     		b	.L609
 9000              	.L608:
 9001 0032 7B68     		ldr	r3, [r7, #4]
 9002 0034 93F84130 		ldrb	r3, [r3, #65]
 9003 0038 DBB2     		uxtb	r3, r3
 9004 003a 222B     		cmp	r3, #34
 9005 003c 06D1     		bne	.L609
 9006 003e 0221     		movs	r1, #2
 9007 0040 7868     		ldr	r0, [r7, #4]
 9008 0042 FFF7FEFF 		bl	I2C_Disable_IRQ
 9009 0046 7B68     		ldr	r3, [r7, #4]
 9010 0048 1222     		movs	r2, #18
 9011 004a 1A63     		str	r2, [r3, #48]
 9012              	.L609:
 9013 004c 7B68     		ldr	r3, [r7, #4]
ARM GAS  /var/folders/k1/1yttftd15rl7jxtpyc5m93n80000gn/T//ccqqVpOc.s 			page 157


 9014 004e 1B68     		ldr	r3, [r3]
 9015 0050 5968     		ldr	r1, [r3, #4]
 9016 0052 7B68     		ldr	r3, [r7, #4]
 9017 0054 1A68     		ldr	r2, [r3]
 9018 0056 4D4B     		ldr	r3, .L619
 9019 0058 0B40     		ands	r3, r3, r1
 9020 005a 5360     		str	r3, [r2, #4]
 9021 005c 7B68     		ldr	r3, [r7, #4]
 9022 005e 0022     		movs	r2, #0
 9023 0060 5A63     		str	r2, [r3, #52]
 9024 0062 7B68     		ldr	r3, [r7, #4]
 9025 0064 4A4A     		ldr	r2, .L619+4
 9026 0066 DA62     		str	r2, [r3, #44]
 9027 0068 7B69     		ldr	r3, [r7, #20]
 9028 006a 1B09     		lsrs	r3, r3, #4
 9029 006c 03F00103 		and	r3, r3, #1
 9030 0070 002B     		cmp	r3, #0
 9031 0072 09D0     		beq	.L610
 9032 0074 7B68     		ldr	r3, [r7, #4]
 9033 0076 1B68     		ldr	r3, [r3]
 9034 0078 1022     		movs	r2, #16
 9035 007a DA61     		str	r2, [r3, #28]
 9036 007c 7B68     		ldr	r3, [r7, #4]
 9037 007e 5B6C     		ldr	r3, [r3, #68]
 9038 0080 43F00402 		orr	r2, r3, #4
 9039 0084 7B68     		ldr	r3, [r7, #4]
 9040 0086 5A64     		str	r2, [r3, #68]
 9041              	.L610:
 9042 0088 7B68     		ldr	r3, [r7, #4]
 9043 008a 93F84130 		ldrb	r3, [r3, #65]
 9044 008e DBB2     		uxtb	r3, r3
 9045 0090 602B     		cmp	r3, #96
 9046 0092 0BD1     		bne	.L611
 9047 0094 7B69     		ldr	r3, [r7, #20]
 9048 0096 9B08     		lsrs	r3, r3, #2
 9049 0098 03F00103 		and	r3, r3, #1
 9050 009c 002B     		cmp	r3, #0
 9051 009e 05D0     		beq	.L611
 9052 00a0 7B68     		ldr	r3, [r7, #4]
 9053 00a2 1B68     		ldr	r3, [r3]
 9054 00a4 5B6A     		ldr	r3, [r3, #36]
 9055 00a6 DBB2     		uxtb	r3, r3
 9056 00a8 FB60     		str	r3, [r7, #12]
 9057 00aa FB68     		ldr	r3, [r7, #12]
 9058              	.L611:
 9059 00ac 7868     		ldr	r0, [r7, #4]
 9060 00ae FFF7FEFF 		bl	I2C_Flush_TXDR
 9061 00b2 7B68     		ldr	r3, [r7, #4]
 9062 00b4 5B6C     		ldr	r3, [r3, #68]
 9063 00b6 3B61     		str	r3, [r7, #16]
 9064 00b8 7B68     		ldr	r3, [r7, #4]
 9065 00ba 93F84130 		ldrb	r3, [r3, #65]
 9066 00be DBB2     		uxtb	r3, r3
 9067 00c0 602B     		cmp	r3, #96
 9068 00c2 02D0     		beq	.L612
 9069 00c4 3B69     		ldr	r3, [r7, #16]
 9070 00c6 002B     		cmp	r3, #0
ARM GAS  /var/folders/k1/1yttftd15rl7jxtpyc5m93n80000gn/T//ccqqVpOc.s 			page 158


 9071 00c8 06D0     		beq	.L613
 9072              	.L612:
 9073 00ca 7B68     		ldr	r3, [r7, #4]
 9074 00cc 5B6C     		ldr	r3, [r3, #68]
 9075 00ce 1946     		mov	r1, r3
 9076 00d0 7868     		ldr	r0, [r7, #4]
 9077 00d2 FFF7FEFF 		bl	I2C_ITError
 9078 00d6 54E0     		b	.L618
 9079              	.L613:
 9080 00d8 7B68     		ldr	r3, [r7, #4]
 9081 00da 93F84130 		ldrb	r3, [r3, #65]
 9082 00de DBB2     		uxtb	r3, r3
 9083 00e0 212B     		cmp	r3, #33
 9084 00e2 24D1     		bne	.L615
 9085 00e4 7B68     		ldr	r3, [r7, #4]
 9086 00e6 2022     		movs	r2, #32
 9087 00e8 83F84120 		strb	r2, [r3, #65]
 9088 00ec 7B68     		ldr	r3, [r7, #4]
 9089 00ee 0022     		movs	r2, #0
 9090 00f0 1A63     		str	r2, [r3, #48]
 9091 00f2 7B68     		ldr	r3, [r7, #4]
 9092 00f4 93F84230 		ldrb	r3, [r3, #66]
 9093 00f8 DBB2     		uxtb	r3, r3
 9094 00fa 402B     		cmp	r3, #64
 9095 00fc 0BD1     		bne	.L616
 9096 00fe 7B68     		ldr	r3, [r7, #4]
 9097 0100 0022     		movs	r2, #0
 9098 0102 83F84220 		strb	r2, [r3, #66]
 9099 0106 7B68     		ldr	r3, [r7, #4]
 9100 0108 0022     		movs	r2, #0
 9101 010a 83F84020 		strb	r2, [r3, #64]
 9102 010e 7868     		ldr	r0, [r7, #4]
 9103 0110 FFF7FEFF 		bl	HAL_I2C_MemTxCpltCallback
 9104 0114 35E0     		b	.L618
 9105              	.L616:
 9106 0116 7B68     		ldr	r3, [r7, #4]
 9107 0118 0022     		movs	r2, #0
 9108 011a 83F84220 		strb	r2, [r3, #66]
 9109 011e 7B68     		ldr	r3, [r7, #4]
 9110 0120 0022     		movs	r2, #0
 9111 0122 83F84020 		strb	r2, [r3, #64]
 9112 0126 7868     		ldr	r0, [r7, #4]
 9113 0128 FFF7FEFF 		bl	HAL_I2C_MasterTxCpltCallback
 9114 012c 29E0     		b	.L618
 9115              	.L615:
 9116 012e 7B68     		ldr	r3, [r7, #4]
 9117 0130 93F84130 		ldrb	r3, [r3, #65]
 9118 0134 DBB2     		uxtb	r3, r3
 9119 0136 222B     		cmp	r3, #34
 9120 0138 23D1     		bne	.L618
 9121 013a 7B68     		ldr	r3, [r7, #4]
 9122 013c 2022     		movs	r2, #32
 9123 013e 83F84120 		strb	r2, [r3, #65]
 9124 0142 7B68     		ldr	r3, [r7, #4]
 9125 0144 0022     		movs	r2, #0
 9126 0146 1A63     		str	r2, [r3, #48]
 9127 0148 7B68     		ldr	r3, [r7, #4]
ARM GAS  /var/folders/k1/1yttftd15rl7jxtpyc5m93n80000gn/T//ccqqVpOc.s 			page 159


 9128 014a 93F84230 		ldrb	r3, [r3, #66]
 9129 014e DBB2     		uxtb	r3, r3
 9130 0150 402B     		cmp	r3, #64
 9131 0152 0BD1     		bne	.L617
 9132 0154 7B68     		ldr	r3, [r7, #4]
 9133 0156 0022     		movs	r2, #0
 9134 0158 83F84220 		strb	r2, [r3, #66]
 9135 015c 7B68     		ldr	r3, [r7, #4]
 9136 015e 0022     		movs	r2, #0
 9137 0160 83F84020 		strb	r2, [r3, #64]
 9138 0164 7868     		ldr	r0, [r7, #4]
 9139 0166 FFF7FEFF 		bl	HAL_I2C_MemRxCpltCallback
 9140 016a 0AE0     		b	.L618
 9141              	.L617:
 9142 016c 7B68     		ldr	r3, [r7, #4]
 9143 016e 0022     		movs	r2, #0
 9144 0170 83F84220 		strb	r2, [r3, #66]
 9145 0174 7B68     		ldr	r3, [r7, #4]
 9146 0176 0022     		movs	r2, #0
 9147 0178 83F84020 		strb	r2, [r3, #64]
 9148 017c 7868     		ldr	r0, [r7, #4]
 9149 017e FFF7FEFF 		bl	HAL_I2C_MasterRxCpltCallback
 9150              	.L618:
 9151 0182 00BF     		nop
 9152 0184 1837     		adds	r7, r7, #24
 9153 0186 BD46     		mov	sp, r7
 9154              		@ sp needed
 9155 0188 80BD     		pop	{r7, pc}
 9156              	.L620:
 9157 018a 00BF     		.align	2
 9158              	.L619:
 9159 018c 00E800FE 		.word	-33495040
 9160 0190 0000FFFF 		.word	-65536
 9162              		.section	.text.I2C_ITSlaveCplt,"ax",%progbits
 9163              		.align	1
 9164              		.syntax unified
 9165              		.thumb
 9166              		.thumb_func
 9168              	I2C_ITSlaveCplt:
 9169              		@ args = 0, pretend = 0, frame = 24
 9170              		@ frame_needed = 1, uses_anonymous_args = 0
 9171 0000 80B5     		push	{r7, lr}
 9172 0002 86B0     		sub	sp, sp, #24
 9173 0004 00AF     		add	r7, sp, #0
 9174 0006 7860     		str	r0, [r7, #4]
 9175 0008 3960     		str	r1, [r7]
 9176 000a 7B68     		ldr	r3, [r7, #4]
 9177 000c 1B68     		ldr	r3, [r3]
 9178 000e 1B68     		ldr	r3, [r3]
 9179 0010 3B61     		str	r3, [r7, #16]
 9180 0012 3B68     		ldr	r3, [r7]
 9181 0014 7B61     		str	r3, [r7, #20]
 9182 0016 7B68     		ldr	r3, [r7, #4]
 9183 0018 DB6A     		ldr	r3, [r3, #44]
 9184 001a FB60     		str	r3, [r7, #12]
 9185 001c 7B68     		ldr	r3, [r7, #4]
 9186 001e 93F84130 		ldrb	r3, [r3, #65]
ARM GAS  /var/folders/k1/1yttftd15rl7jxtpyc5m93n80000gn/T//ccqqVpOc.s 			page 160


 9187 0022 FB72     		strb	r3, [r7, #11]
 9188 0024 7B68     		ldr	r3, [r7, #4]
 9189 0026 1B68     		ldr	r3, [r3]
 9190 0028 2022     		movs	r2, #32
 9191 002a DA61     		str	r2, [r3, #28]
 9192 002c FB7A     		ldrb	r3, [r7, #11]	@ zero_extendqisi2
 9193 002e 212B     		cmp	r3, #33
 9194 0030 02D0     		beq	.L622
 9195 0032 FB7A     		ldrb	r3, [r7, #11]	@ zero_extendqisi2
 9196 0034 292B     		cmp	r3, #41
 9197 0036 08D1     		bne	.L623
 9198              	.L622:
 9199 0038 48F20101 		movw	r1, #32769
 9200 003c 7868     		ldr	r0, [r7, #4]
 9201 003e FFF7FEFF 		bl	I2C_Disable_IRQ
 9202 0042 7B68     		ldr	r3, [r7, #4]
 9203 0044 2122     		movs	r2, #33
 9204 0046 1A63     		str	r2, [r3, #48]
 9205 0048 19E0     		b	.L624
 9206              	.L623:
 9207 004a FB7A     		ldrb	r3, [r7, #11]	@ zero_extendqisi2
 9208 004c 222B     		cmp	r3, #34
 9209 004e 02D0     		beq	.L625
 9210 0050 FB7A     		ldrb	r3, [r7, #11]	@ zero_extendqisi2
 9211 0052 2A2B     		cmp	r3, #42
 9212 0054 08D1     		bne	.L626
 9213              	.L625:
 9214 0056 48F20201 		movw	r1, #32770
 9215 005a 7868     		ldr	r0, [r7, #4]
 9216 005c FFF7FEFF 		bl	I2C_Disable_IRQ
 9217 0060 7B68     		ldr	r3, [r7, #4]
 9218 0062 2222     		movs	r2, #34
 9219 0064 1A63     		str	r2, [r3, #48]
 9220 0066 0AE0     		b	.L624
 9221              	.L626:
 9222 0068 FB7A     		ldrb	r3, [r7, #11]	@ zero_extendqisi2
 9223 006a 282B     		cmp	r3, #40
 9224 006c 07D1     		bne	.L624
 9225 006e 48F20301 		movw	r1, #32771
 9226 0072 7868     		ldr	r0, [r7, #4]
 9227 0074 FFF7FEFF 		bl	I2C_Disable_IRQ
 9228 0078 7B68     		ldr	r3, [r7, #4]
 9229 007a 0022     		movs	r2, #0
 9230 007c 1A63     		str	r2, [r3, #48]
 9231              	.L624:
 9232 007e 7B68     		ldr	r3, [r7, #4]
 9233 0080 1B68     		ldr	r3, [r3]
 9234 0082 5A68     		ldr	r2, [r3, #4]
 9235 0084 7B68     		ldr	r3, [r7, #4]
 9236 0086 1B68     		ldr	r3, [r3]
 9237 0088 42F40042 		orr	r2, r2, #32768
 9238 008c 5A60     		str	r2, [r3, #4]
 9239 008e 7B68     		ldr	r3, [r7, #4]
 9240 0090 1B68     		ldr	r3, [r3]
 9241 0092 5968     		ldr	r1, [r3, #4]
 9242 0094 7B68     		ldr	r3, [r7, #4]
 9243 0096 1A68     		ldr	r2, [r3]
ARM GAS  /var/folders/k1/1yttftd15rl7jxtpyc5m93n80000gn/T//ccqqVpOc.s 			page 161


 9244 0098 8C4B     		ldr	r3, .L642
 9245 009a 0B40     		ands	r3, r3, r1
 9246 009c 5360     		str	r3, [r2, #4]
 9247 009e 7868     		ldr	r0, [r7, #4]
 9248 00a0 FFF7FEFF 		bl	I2C_Flush_TXDR
 9249 00a4 3B69     		ldr	r3, [r7, #16]
 9250 00a6 9B0B     		lsrs	r3, r3, #14
 9251 00a8 03F00103 		and	r3, r3, #1
 9252 00ac 002B     		cmp	r3, #0
 9253 00ae 13D0     		beq	.L627
 9254 00b0 7B68     		ldr	r3, [r7, #4]
 9255 00b2 1B68     		ldr	r3, [r3]
 9256 00b4 1A68     		ldr	r2, [r3]
 9257 00b6 7B68     		ldr	r3, [r7, #4]
 9258 00b8 1B68     		ldr	r3, [r3]
 9259 00ba 22F48042 		bic	r2, r2, #16384
 9260 00be 1A60     		str	r2, [r3]
 9261 00c0 7B68     		ldr	r3, [r7, #4]
 9262 00c2 9B6B     		ldr	r3, [r3, #56]
 9263 00c4 002B     		cmp	r3, #0
 9264 00c6 20D0     		beq	.L628
 9265 00c8 7B68     		ldr	r3, [r7, #4]
 9266 00ca 9B6B     		ldr	r3, [r3, #56]
 9267 00cc 1B68     		ldr	r3, [r3]
 9268 00ce 5B68     		ldr	r3, [r3, #4]
 9269 00d0 9AB2     		uxth	r2, r3
 9270 00d2 7B68     		ldr	r3, [r7, #4]
 9271 00d4 5A85     		strh	r2, [r3, #42]	@ movhi
 9272 00d6 18E0     		b	.L628
 9273              	.L627:
 9274 00d8 3B69     		ldr	r3, [r7, #16]
 9275 00da DB0B     		lsrs	r3, r3, #15
 9276 00dc 03F00103 		and	r3, r3, #1
 9277 00e0 002B     		cmp	r3, #0
 9278 00e2 12D0     		beq	.L628
 9279 00e4 7B68     		ldr	r3, [r7, #4]
 9280 00e6 1B68     		ldr	r3, [r3]
 9281 00e8 1A68     		ldr	r2, [r3]
 9282 00ea 7B68     		ldr	r3, [r7, #4]
 9283 00ec 1B68     		ldr	r3, [r3]
 9284 00ee 22F40042 		bic	r2, r2, #32768
 9285 00f2 1A60     		str	r2, [r3]
 9286 00f4 7B68     		ldr	r3, [r7, #4]
 9287 00f6 DB6B     		ldr	r3, [r3, #60]
 9288 00f8 002B     		cmp	r3, #0
 9289 00fa 06D0     		beq	.L628
 9290 00fc 7B68     		ldr	r3, [r7, #4]
 9291 00fe DB6B     		ldr	r3, [r3, #60]
 9292 0100 1B68     		ldr	r3, [r3]
 9293 0102 5B68     		ldr	r3, [r3, #4]
 9294 0104 9AB2     		uxth	r2, r3
 9295 0106 7B68     		ldr	r3, [r7, #4]
 9296 0108 5A85     		strh	r2, [r3, #42]	@ movhi
 9297              	.L628:
 9298 010a 7B69     		ldr	r3, [r7, #20]
 9299 010c 9B08     		lsrs	r3, r3, #2
 9300 010e 03F00103 		and	r3, r3, #1
ARM GAS  /var/folders/k1/1yttftd15rl7jxtpyc5m93n80000gn/T//ccqqVpOc.s 			page 162


 9301 0112 002B     		cmp	r3, #0
 9302 0114 20D0     		beq	.L629
 9303 0116 7B69     		ldr	r3, [r7, #20]
 9304 0118 23F00403 		bic	r3, r3, #4
 9305 011c 7B61     		str	r3, [r7, #20]
 9306 011e 7B68     		ldr	r3, [r7, #4]
 9307 0120 1B68     		ldr	r3, [r3]
 9308 0122 5A6A     		ldr	r2, [r3, #36]
 9309 0124 7B68     		ldr	r3, [r7, #4]
 9310 0126 5B6A     		ldr	r3, [r3, #36]
 9311 0128 D2B2     		uxtb	r2, r2
 9312 012a 1A70     		strb	r2, [r3]
 9313 012c 7B68     		ldr	r3, [r7, #4]
 9314 012e 5B6A     		ldr	r3, [r3, #36]
 9315 0130 5A1C     		adds	r2, r3, #1
 9316 0132 7B68     		ldr	r3, [r7, #4]
 9317 0134 5A62     		str	r2, [r3, #36]
 9318 0136 7B68     		ldr	r3, [r7, #4]
 9319 0138 1B8D     		ldrh	r3, [r3, #40]
 9320 013a 002B     		cmp	r3, #0
 9321 013c 0CD0     		beq	.L629
 9322 013e 7B68     		ldr	r3, [r7, #4]
 9323 0140 1B8D     		ldrh	r3, [r3, #40]
 9324 0142 013B     		subs	r3, r3, #1
 9325 0144 9AB2     		uxth	r2, r3
 9326 0146 7B68     		ldr	r3, [r7, #4]
 9327 0148 1A85     		strh	r2, [r3, #40]	@ movhi
 9328 014a 7B68     		ldr	r3, [r7, #4]
 9329 014c 5B8D     		ldrh	r3, [r3, #42]	@ movhi
 9330 014e 9BB2     		uxth	r3, r3
 9331 0150 013B     		subs	r3, r3, #1
 9332 0152 9AB2     		uxth	r2, r3
 9333 0154 7B68     		ldr	r3, [r7, #4]
 9334 0156 5A85     		strh	r2, [r3, #42]	@ movhi
 9335              	.L629:
 9336 0158 7B68     		ldr	r3, [r7, #4]
 9337 015a 5B8D     		ldrh	r3, [r3, #42]	@ movhi
 9338 015c 9BB2     		uxth	r3, r3
 9339 015e 002B     		cmp	r3, #0
 9340 0160 05D0     		beq	.L630
 9341 0162 7B68     		ldr	r3, [r7, #4]
 9342 0164 5B6C     		ldr	r3, [r3, #68]
 9343 0166 43F00402 		orr	r2, r3, #4
 9344 016a 7B68     		ldr	r3, [r7, #4]
 9345 016c 5A64     		str	r2, [r3, #68]
 9346              	.L630:
 9347 016e 7B69     		ldr	r3, [r7, #20]
 9348 0170 1B09     		lsrs	r3, r3, #4
 9349 0172 03F00103 		and	r3, r3, #1
 9350 0176 002B     		cmp	r3, #0
 9351 0178 4AD0     		beq	.L631
 9352 017a 3B69     		ldr	r3, [r7, #16]
 9353 017c 1B09     		lsrs	r3, r3, #4
 9354 017e 03F00103 		and	r3, r3, #1
 9355 0182 002B     		cmp	r3, #0
 9356 0184 44D0     		beq	.L631
 9357 0186 7B68     		ldr	r3, [r7, #4]
ARM GAS  /var/folders/k1/1yttftd15rl7jxtpyc5m93n80000gn/T//ccqqVpOc.s 			page 163


 9358 0188 5B8D     		ldrh	r3, [r3, #42]	@ movhi
 9359 018a 9BB2     		uxth	r3, r3
 9360 018c 002B     		cmp	r3, #0
 9361 018e 28D1     		bne	.L632
 9362 0190 7B68     		ldr	r3, [r7, #4]
 9363 0192 93F84130 		ldrb	r3, [r3, #65]
 9364 0196 DBB2     		uxtb	r3, r3
 9365 0198 282B     		cmp	r3, #40
 9366 019a 08D1     		bne	.L633
 9367 019c FB68     		ldr	r3, [r7, #12]
 9368 019e B3F1007F 		cmp	r3, #33554432
 9369 01a2 04D1     		bne	.L633
 9370 01a4 7969     		ldr	r1, [r7, #20]
 9371 01a6 7868     		ldr	r0, [r7, #4]
 9372 01a8 FFF7FEFF 		bl	I2C_ITListenCplt
 9373 01ac 30E0     		b	.L631
 9374              	.L633:
 9375 01ae 7B68     		ldr	r3, [r7, #4]
 9376 01b0 93F84130 		ldrb	r3, [r3, #65]
 9377 01b4 DBB2     		uxtb	r3, r3
 9378 01b6 292B     		cmp	r3, #41
 9379 01b8 0ED1     		bne	.L635
 9380 01ba FB68     		ldr	r3, [r7, #12]
 9381 01bc 13F5803F 		cmn	r3, #65536
 9382 01c0 0AD0     		beq	.L635
 9383 01c2 7B68     		ldr	r3, [r7, #4]
 9384 01c4 1B68     		ldr	r3, [r3]
 9385 01c6 1022     		movs	r2, #16
 9386 01c8 DA61     		str	r2, [r3, #28]
 9387 01ca 7868     		ldr	r0, [r7, #4]
 9388 01cc FFF7FEFF 		bl	I2C_Flush_TXDR
 9389 01d0 7868     		ldr	r0, [r7, #4]
 9390 01d2 FFF7FEFF 		bl	I2C_ITSlaveSeqCplt
 9391 01d6 1BE0     		b	.L631
 9392              	.L635:
 9393 01d8 7B68     		ldr	r3, [r7, #4]
 9394 01da 1B68     		ldr	r3, [r3]
 9395 01dc 1022     		movs	r2, #16
 9396 01de DA61     		str	r2, [r3, #28]
 9397 01e0 16E0     		b	.L631
 9398              	.L632:
 9399 01e2 7B68     		ldr	r3, [r7, #4]
 9400 01e4 1B68     		ldr	r3, [r3]
 9401 01e6 1022     		movs	r2, #16
 9402 01e8 DA61     		str	r2, [r3, #28]
 9403 01ea 7B68     		ldr	r3, [r7, #4]
 9404 01ec 5B6C     		ldr	r3, [r3, #68]
 9405 01ee 43F00402 		orr	r2, r3, #4
 9406 01f2 7B68     		ldr	r3, [r7, #4]
 9407 01f4 5A64     		str	r2, [r3, #68]
 9408 01f6 FB68     		ldr	r3, [r7, #12]
 9409 01f8 002B     		cmp	r3, #0
 9410 01fa 03D0     		beq	.L636
 9411 01fc FB68     		ldr	r3, [r7, #12]
 9412 01fe B3F1807F 		cmp	r3, #16777216
 9413 0202 05D1     		bne	.L631
 9414              	.L636:
ARM GAS  /var/folders/k1/1yttftd15rl7jxtpyc5m93n80000gn/T//ccqqVpOc.s 			page 164


 9415 0204 7B68     		ldr	r3, [r7, #4]
 9416 0206 5B6C     		ldr	r3, [r3, #68]
 9417 0208 1946     		mov	r1, r3
 9418 020a 7868     		ldr	r0, [r7, #4]
 9419 020c FFF7FEFF 		bl	I2C_ITError
 9420              	.L631:
 9421 0210 7B68     		ldr	r3, [r7, #4]
 9422 0212 0022     		movs	r2, #0
 9423 0214 83F84220 		strb	r2, [r3, #66]
 9424 0218 7B68     		ldr	r3, [r7, #4]
 9425 021a 0022     		movs	r2, #0
 9426 021c 5A63     		str	r2, [r3, #52]
 9427 021e 7B68     		ldr	r3, [r7, #4]
 9428 0220 5B6C     		ldr	r3, [r3, #68]
 9429 0222 002B     		cmp	r3, #0
 9430 0224 10D0     		beq	.L637
 9431 0226 7B68     		ldr	r3, [r7, #4]
 9432 0228 5B6C     		ldr	r3, [r3, #68]
 9433 022a 1946     		mov	r1, r3
 9434 022c 7868     		ldr	r0, [r7, #4]
 9435 022e FFF7FEFF 		bl	I2C_ITError
 9436 0232 7B68     		ldr	r3, [r7, #4]
 9437 0234 93F84130 		ldrb	r3, [r3, #65]
 9438 0238 DBB2     		uxtb	r3, r3
 9439 023a 282B     		cmp	r3, #40
 9440 023c 41D1     		bne	.L641
 9441 023e 7969     		ldr	r1, [r7, #20]
 9442 0240 7868     		ldr	r0, [r7, #4]
 9443 0242 FFF7FEFF 		bl	I2C_ITListenCplt
 9444 0246 3CE0     		b	.L641
 9445              	.L637:
 9446 0248 7B68     		ldr	r3, [r7, #4]
 9447 024a DB6A     		ldr	r3, [r3, #44]
 9448 024c 13F5803F 		cmn	r3, #65536
 9449 0250 14D0     		beq	.L639
 9450 0252 7868     		ldr	r0, [r7, #4]
 9451 0254 FFF7FEFF 		bl	I2C_ITSlaveSeqCplt
 9452 0258 7B68     		ldr	r3, [r7, #4]
 9453 025a 1D4A     		ldr	r2, .L642+4
 9454 025c DA62     		str	r2, [r3, #44]
 9455 025e 7B68     		ldr	r3, [r7, #4]
 9456 0260 2022     		movs	r2, #32
 9457 0262 83F84120 		strb	r2, [r3, #65]
 9458 0266 7B68     		ldr	r3, [r7, #4]
 9459 0268 0022     		movs	r2, #0
 9460 026a 1A63     		str	r2, [r3, #48]
 9461 026c 7B68     		ldr	r3, [r7, #4]
 9462 026e 0022     		movs	r2, #0
 9463 0270 83F84020 		strb	r2, [r3, #64]
 9464 0274 7868     		ldr	r0, [r7, #4]
 9465 0276 FFF7FEFF 		bl	HAL_I2C_ListenCpltCallback
 9466 027a 22E0     		b	.L641
 9467              	.L639:
 9468 027c 7B68     		ldr	r3, [r7, #4]
 9469 027e 93F84130 		ldrb	r3, [r3, #65]
 9470 0282 DBB2     		uxtb	r3, r3
 9471 0284 222B     		cmp	r3, #34
ARM GAS  /var/folders/k1/1yttftd15rl7jxtpyc5m93n80000gn/T//ccqqVpOc.s 			page 165


 9472 0286 0ED1     		bne	.L640
 9473 0288 7B68     		ldr	r3, [r7, #4]
 9474 028a 2022     		movs	r2, #32
 9475 028c 83F84120 		strb	r2, [r3, #65]
 9476 0290 7B68     		ldr	r3, [r7, #4]
 9477 0292 0022     		movs	r2, #0
 9478 0294 1A63     		str	r2, [r3, #48]
 9479 0296 7B68     		ldr	r3, [r7, #4]
 9480 0298 0022     		movs	r2, #0
 9481 029a 83F84020 		strb	r2, [r3, #64]
 9482 029e 7868     		ldr	r0, [r7, #4]
 9483 02a0 FFF7FEFF 		bl	HAL_I2C_SlaveRxCpltCallback
 9484 02a4 0DE0     		b	.L641
 9485              	.L640:
 9486 02a6 7B68     		ldr	r3, [r7, #4]
 9487 02a8 2022     		movs	r2, #32
 9488 02aa 83F84120 		strb	r2, [r3, #65]
 9489 02ae 7B68     		ldr	r3, [r7, #4]
 9490 02b0 0022     		movs	r2, #0
 9491 02b2 1A63     		str	r2, [r3, #48]
 9492 02b4 7B68     		ldr	r3, [r7, #4]
 9493 02b6 0022     		movs	r2, #0
 9494 02b8 83F84020 		strb	r2, [r3, #64]
 9495 02bc 7868     		ldr	r0, [r7, #4]
 9496 02be FFF7FEFF 		bl	HAL_I2C_SlaveTxCpltCallback
 9497              	.L641:
 9498 02c2 00BF     		nop
 9499 02c4 1837     		adds	r7, r7, #24
 9500 02c6 BD46     		mov	sp, r7
 9501              		@ sp needed
 9502 02c8 80BD     		pop	{r7, pc}
 9503              	.L643:
 9504 02ca 00BF     		.align	2
 9505              	.L642:
 9506 02cc 00E800FE 		.word	-33495040
 9507 02d0 0000FFFF 		.word	-65536
 9509              		.section	.text.I2C_ITListenCplt,"ax",%progbits
 9510              		.align	1
 9511              		.syntax unified
 9512              		.thumb
 9513              		.thumb_func
 9515              	I2C_ITListenCplt:
 9516              		@ args = 0, pretend = 0, frame = 8
 9517              		@ frame_needed = 1, uses_anonymous_args = 0
 9518 0000 80B5     		push	{r7, lr}
 9519 0002 82B0     		sub	sp, sp, #8
 9520 0004 00AF     		add	r7, sp, #0
 9521 0006 7860     		str	r0, [r7, #4]
 9522 0008 3960     		str	r1, [r7]
 9523 000a 7B68     		ldr	r3, [r7, #4]
 9524 000c 264A     		ldr	r2, .L646
 9525 000e DA62     		str	r2, [r3, #44]
 9526 0010 7B68     		ldr	r3, [r7, #4]
 9527 0012 0022     		movs	r2, #0
 9528 0014 1A63     		str	r2, [r3, #48]
 9529 0016 7B68     		ldr	r3, [r7, #4]
 9530 0018 2022     		movs	r2, #32
ARM GAS  /var/folders/k1/1yttftd15rl7jxtpyc5m93n80000gn/T//ccqqVpOc.s 			page 166


 9531 001a 83F84120 		strb	r2, [r3, #65]
 9532 001e 7B68     		ldr	r3, [r7, #4]
 9533 0020 0022     		movs	r2, #0
 9534 0022 83F84220 		strb	r2, [r3, #66]
 9535 0026 7B68     		ldr	r3, [r7, #4]
 9536 0028 0022     		movs	r2, #0
 9537 002a 5A63     		str	r2, [r3, #52]
 9538 002c 3B68     		ldr	r3, [r7]
 9539 002e 9B08     		lsrs	r3, r3, #2
 9540 0030 03F00103 		and	r3, r3, #1
 9541 0034 002B     		cmp	r3, #0
 9542 0036 22D0     		beq	.L645
 9543 0038 7B68     		ldr	r3, [r7, #4]
 9544 003a 1B68     		ldr	r3, [r3]
 9545 003c 5A6A     		ldr	r2, [r3, #36]
 9546 003e 7B68     		ldr	r3, [r7, #4]
 9547 0040 5B6A     		ldr	r3, [r3, #36]
 9548 0042 D2B2     		uxtb	r2, r2
 9549 0044 1A70     		strb	r2, [r3]
 9550 0046 7B68     		ldr	r3, [r7, #4]
 9551 0048 5B6A     		ldr	r3, [r3, #36]
 9552 004a 5A1C     		adds	r2, r3, #1
 9553 004c 7B68     		ldr	r3, [r7, #4]
 9554 004e 5A62     		str	r2, [r3, #36]
 9555 0050 7B68     		ldr	r3, [r7, #4]
 9556 0052 1B8D     		ldrh	r3, [r3, #40]
 9557 0054 002B     		cmp	r3, #0
 9558 0056 12D0     		beq	.L645
 9559 0058 7B68     		ldr	r3, [r7, #4]
 9560 005a 1B8D     		ldrh	r3, [r3, #40]
 9561 005c 013B     		subs	r3, r3, #1
 9562 005e 9AB2     		uxth	r2, r3
 9563 0060 7B68     		ldr	r3, [r7, #4]
 9564 0062 1A85     		strh	r2, [r3, #40]	@ movhi
 9565 0064 7B68     		ldr	r3, [r7, #4]
 9566 0066 5B8D     		ldrh	r3, [r3, #42]	@ movhi
 9567 0068 9BB2     		uxth	r3, r3
 9568 006a 013B     		subs	r3, r3, #1
 9569 006c 9AB2     		uxth	r2, r3
 9570 006e 7B68     		ldr	r3, [r7, #4]
 9571 0070 5A85     		strh	r2, [r3, #42]	@ movhi
 9572 0072 7B68     		ldr	r3, [r7, #4]
 9573 0074 5B6C     		ldr	r3, [r3, #68]
 9574 0076 43F00402 		orr	r2, r3, #4
 9575 007a 7B68     		ldr	r3, [r7, #4]
 9576 007c 5A64     		str	r2, [r3, #68]
 9577              	.L645:
 9578 007e 48F20301 		movw	r1, #32771
 9579 0082 7868     		ldr	r0, [r7, #4]
 9580 0084 FFF7FEFF 		bl	I2C_Disable_IRQ
 9581 0088 7B68     		ldr	r3, [r7, #4]
 9582 008a 1B68     		ldr	r3, [r3]
 9583 008c 1022     		movs	r2, #16
 9584 008e DA61     		str	r2, [r3, #28]
 9585 0090 7B68     		ldr	r3, [r7, #4]
 9586 0092 0022     		movs	r2, #0
 9587 0094 83F84020 		strb	r2, [r3, #64]
ARM GAS  /var/folders/k1/1yttftd15rl7jxtpyc5m93n80000gn/T//ccqqVpOc.s 			page 167


 9588 0098 7868     		ldr	r0, [r7, #4]
 9589 009a FFF7FEFF 		bl	HAL_I2C_ListenCpltCallback
 9590 009e 00BF     		nop
 9591 00a0 0837     		adds	r7, r7, #8
 9592 00a2 BD46     		mov	sp, r7
 9593              		@ sp needed
 9594 00a4 80BD     		pop	{r7, pc}
 9595              	.L647:
 9596 00a6 00BF     		.align	2
 9597              	.L646:
 9598 00a8 0000FFFF 		.word	-65536
 9600              		.section	.text.I2C_ITError,"ax",%progbits
 9601              		.align	1
 9602              		.syntax unified
 9603              		.thumb
 9604              		.thumb_func
 9606              	I2C_ITError:
 9607              		@ args = 0, pretend = 0, frame = 16
 9608              		@ frame_needed = 1, uses_anonymous_args = 0
 9609 0000 80B5     		push	{r7, lr}
 9610 0002 84B0     		sub	sp, sp, #16
 9611 0004 00AF     		add	r7, sp, #0
 9612 0006 7860     		str	r0, [r7, #4]
 9613 0008 3960     		str	r1, [r7]
 9614 000a 7B68     		ldr	r3, [r7, #4]
 9615 000c 93F84130 		ldrb	r3, [r3, #65]
 9616 0010 FB73     		strb	r3, [r7, #15]
 9617 0012 7B68     		ldr	r3, [r7, #4]
 9618 0014 0022     		movs	r2, #0
 9619 0016 83F84220 		strb	r2, [r3, #66]
 9620 001a 7B68     		ldr	r3, [r7, #4]
 9621 001c 6D4A     		ldr	r2, .L668
 9622 001e DA62     		str	r2, [r3, #44]
 9623 0020 7B68     		ldr	r3, [r7, #4]
 9624 0022 0022     		movs	r2, #0
 9625 0024 5A85     		strh	r2, [r3, #42]	@ movhi
 9626 0026 7B68     		ldr	r3, [r7, #4]
 9627 0028 5A6C     		ldr	r2, [r3, #68]
 9628 002a 3B68     		ldr	r3, [r7]
 9629 002c 1A43     		orrs	r2, r2, r3
 9630 002e 7B68     		ldr	r3, [r7, #4]
 9631 0030 5A64     		str	r2, [r3, #68]
 9632 0032 FB7B     		ldrb	r3, [r7, #15]	@ zero_extendqisi2
 9633 0034 282B     		cmp	r3, #40
 9634 0036 05D0     		beq	.L649
 9635 0038 FB7B     		ldrb	r3, [r7, #15]	@ zero_extendqisi2
 9636 003a 292B     		cmp	r3, #41
 9637 003c 02D0     		beq	.L649
 9638 003e FB7B     		ldrb	r3, [r7, #15]	@ zero_extendqisi2
 9639 0040 2A2B     		cmp	r3, #42
 9640 0042 0BD1     		bne	.L650
 9641              	.L649:
 9642 0044 0321     		movs	r1, #3
 9643 0046 7868     		ldr	r0, [r7, #4]
 9644 0048 FFF7FEFF 		bl	I2C_Disable_IRQ
 9645 004c 7B68     		ldr	r3, [r7, #4]
 9646 004e 2822     		movs	r2, #40
ARM GAS  /var/folders/k1/1yttftd15rl7jxtpyc5m93n80000gn/T//ccqqVpOc.s 			page 168


 9647 0050 83F84120 		strb	r2, [r3, #65]
 9648 0054 7B68     		ldr	r3, [r7, #4]
 9649 0056 604A     		ldr	r2, .L668+4
 9650 0058 5A63     		str	r2, [r3, #52]
 9651 005a 30E0     		b	.L651
 9652              	.L650:
 9653 005c 48F20301 		movw	r1, #32771
 9654 0060 7868     		ldr	r0, [r7, #4]
 9655 0062 FFF7FEFF 		bl	I2C_Disable_IRQ
 9656 0066 7868     		ldr	r0, [r7, #4]
 9657 0068 FFF7FEFF 		bl	I2C_Flush_TXDR
 9658 006c 7B68     		ldr	r3, [r7, #4]
 9659 006e 93F84130 		ldrb	r3, [r3, #65]
 9660 0072 DBB2     		uxtb	r3, r3
 9661 0074 602B     		cmp	r3, #96
 9662 0076 1FD0     		beq	.L652
 9663 0078 7B68     		ldr	r3, [r7, #4]
 9664 007a 2022     		movs	r2, #32
 9665 007c 83F84120 		strb	r2, [r3, #65]
 9666 0080 7B68     		ldr	r3, [r7, #4]
 9667 0082 1B68     		ldr	r3, [r3]
 9668 0084 9B69     		ldr	r3, [r3, #24]
 9669 0086 03F02003 		and	r3, r3, #32
 9670 008a 202B     		cmp	r3, #32
 9671 008c 14D1     		bne	.L652
 9672 008e 7B68     		ldr	r3, [r7, #4]
 9673 0090 1B68     		ldr	r3, [r3]
 9674 0092 9B69     		ldr	r3, [r3, #24]
 9675 0094 03F01003 		and	r3, r3, #16
 9676 0098 102B     		cmp	r3, #16
 9677 009a 09D1     		bne	.L653
 9678 009c 7B68     		ldr	r3, [r7, #4]
 9679 009e 1B68     		ldr	r3, [r3]
 9680 00a0 1022     		movs	r2, #16
 9681 00a2 DA61     		str	r2, [r3, #28]
 9682 00a4 7B68     		ldr	r3, [r7, #4]
 9683 00a6 5B6C     		ldr	r3, [r3, #68]
 9684 00a8 43F00402 		orr	r2, r3, #4
 9685 00ac 7B68     		ldr	r3, [r7, #4]
 9686 00ae 5A64     		str	r2, [r3, #68]
 9687              	.L653:
 9688 00b0 7B68     		ldr	r3, [r7, #4]
 9689 00b2 1B68     		ldr	r3, [r3]
 9690 00b4 2022     		movs	r2, #32
 9691 00b6 DA61     		str	r2, [r3, #28]
 9692              	.L652:
 9693 00b8 7B68     		ldr	r3, [r7, #4]
 9694 00ba 0022     		movs	r2, #0
 9695 00bc 5A63     		str	r2, [r3, #52]
 9696              	.L651:
 9697 00be 7B68     		ldr	r3, [r7, #4]
 9698 00c0 1B6B     		ldr	r3, [r3, #48]
 9699 00c2 BB60     		str	r3, [r7, #8]
 9700 00c4 7B68     		ldr	r3, [r7, #4]
 9701 00c6 9B6B     		ldr	r3, [r3, #56]
 9702 00c8 002B     		cmp	r3, #0
 9703 00ca 39D0     		beq	.L654
ARM GAS  /var/folders/k1/1yttftd15rl7jxtpyc5m93n80000gn/T//ccqqVpOc.s 			page 169


 9704 00cc BB68     		ldr	r3, [r7, #8]
 9705 00ce 112B     		cmp	r3, #17
 9706 00d0 02D0     		beq	.L655
 9707 00d2 BB68     		ldr	r3, [r7, #8]
 9708 00d4 212B     		cmp	r3, #33
 9709 00d6 33D1     		bne	.L654
 9710              	.L655:
 9711 00d8 7B68     		ldr	r3, [r7, #4]
 9712 00da 1B68     		ldr	r3, [r3]
 9713 00dc 1B68     		ldr	r3, [r3]
 9714 00de 03F48043 		and	r3, r3, #16384
 9715 00e2 B3F5804F 		cmp	r3, #16384
 9716 00e6 07D1     		bne	.L656
 9717 00e8 7B68     		ldr	r3, [r7, #4]
 9718 00ea 1B68     		ldr	r3, [r3]
 9719 00ec 1A68     		ldr	r2, [r3]
 9720 00ee 7B68     		ldr	r3, [r7, #4]
 9721 00f0 1B68     		ldr	r3, [r3]
 9722 00f2 22F48042 		bic	r2, r2, #16384
 9723 00f6 1A60     		str	r2, [r3]
 9724              	.L656:
 9725 00f8 7B68     		ldr	r3, [r7, #4]
 9726 00fa 9B6B     		ldr	r3, [r3, #56]
 9727 00fc 1846     		mov	r0, r3
 9728 00fe FFF7FEFF 		bl	HAL_DMA_GetState
 9729 0102 0346     		mov	r3, r0
 9730 0104 012B     		cmp	r3, #1
 9731 0106 17D0     		beq	.L657
 9732 0108 7B68     		ldr	r3, [r7, #4]
 9733 010a 9B6B     		ldr	r3, [r3, #56]
 9734 010c 334A     		ldr	r2, .L668+8
 9735 010e 9A63     		str	r2, [r3, #56]
 9736 0110 7B68     		ldr	r3, [r7, #4]
 9737 0112 0022     		movs	r2, #0
 9738 0114 83F84020 		strb	r2, [r3, #64]
 9739 0118 7B68     		ldr	r3, [r7, #4]
 9740 011a 9B6B     		ldr	r3, [r3, #56]
 9741 011c 1846     		mov	r0, r3
 9742 011e FFF7FEFF 		bl	HAL_DMA_Abort_IT
 9743 0122 0346     		mov	r3, r0
 9744 0124 002B     		cmp	r3, #0
 9745 0126 4DD0     		beq	.L665
 9746 0128 7B68     		ldr	r3, [r7, #4]
 9747 012a 9B6B     		ldr	r3, [r3, #56]
 9748 012c 9B6B     		ldr	r3, [r3, #56]
 9749 012e 7A68     		ldr	r2, [r7, #4]
 9750 0130 926B     		ldr	r2, [r2, #56]
 9751 0132 1046     		mov	r0, r2
 9752 0134 9847     		blx	r3
 9753 0136 45E0     		b	.L665
 9754              	.L657:
 9755 0138 7868     		ldr	r0, [r7, #4]
 9756 013a FFF7FEFF 		bl	I2C_TreatErrorCallback
 9757 013e 41E0     		b	.L665
 9758              	.L654:
 9759 0140 7B68     		ldr	r3, [r7, #4]
 9760 0142 DB6B     		ldr	r3, [r3, #60]
ARM GAS  /var/folders/k1/1yttftd15rl7jxtpyc5m93n80000gn/T//ccqqVpOc.s 			page 170


 9761 0144 002B     		cmp	r3, #0
 9762 0146 39D0     		beq	.L660
 9763 0148 BB68     		ldr	r3, [r7, #8]
 9764 014a 122B     		cmp	r3, #18
 9765 014c 02D0     		beq	.L661
 9766 014e BB68     		ldr	r3, [r7, #8]
 9767 0150 222B     		cmp	r3, #34
 9768 0152 33D1     		bne	.L660
 9769              	.L661:
 9770 0154 7B68     		ldr	r3, [r7, #4]
 9771 0156 1B68     		ldr	r3, [r3]
 9772 0158 1B68     		ldr	r3, [r3]
 9773 015a 03F40043 		and	r3, r3, #32768
 9774 015e B3F5004F 		cmp	r3, #32768
 9775 0162 07D1     		bne	.L662
 9776 0164 7B68     		ldr	r3, [r7, #4]
 9777 0166 1B68     		ldr	r3, [r3]
 9778 0168 1A68     		ldr	r2, [r3]
 9779 016a 7B68     		ldr	r3, [r7, #4]
 9780 016c 1B68     		ldr	r3, [r3]
 9781 016e 22F40042 		bic	r2, r2, #32768
 9782 0172 1A60     		str	r2, [r3]
 9783              	.L662:
 9784 0174 7B68     		ldr	r3, [r7, #4]
 9785 0176 DB6B     		ldr	r3, [r3, #60]
 9786 0178 1846     		mov	r0, r3
 9787 017a FFF7FEFF 		bl	HAL_DMA_GetState
 9788 017e 0346     		mov	r3, r0
 9789 0180 012B     		cmp	r3, #1
 9790 0182 17D0     		beq	.L663
 9791 0184 7B68     		ldr	r3, [r7, #4]
 9792 0186 DB6B     		ldr	r3, [r3, #60]
 9793 0188 144A     		ldr	r2, .L668+8
 9794 018a 9A63     		str	r2, [r3, #56]
 9795 018c 7B68     		ldr	r3, [r7, #4]
 9796 018e 0022     		movs	r2, #0
 9797 0190 83F84020 		strb	r2, [r3, #64]
 9798 0194 7B68     		ldr	r3, [r7, #4]
 9799 0196 DB6B     		ldr	r3, [r3, #60]
 9800 0198 1846     		mov	r0, r3
 9801 019a FFF7FEFF 		bl	HAL_DMA_Abort_IT
 9802 019e 0346     		mov	r3, r0
 9803 01a0 002B     		cmp	r3, #0
 9804 01a2 11D0     		beq	.L666
 9805 01a4 7B68     		ldr	r3, [r7, #4]
 9806 01a6 DB6B     		ldr	r3, [r3, #60]
 9807 01a8 9B6B     		ldr	r3, [r3, #56]
 9808 01aa 7A68     		ldr	r2, [r7, #4]
 9809 01ac D26B     		ldr	r2, [r2, #60]
 9810 01ae 1046     		mov	r0, r2
 9811 01b0 9847     		blx	r3
 9812 01b2 09E0     		b	.L666
 9813              	.L663:
 9814 01b4 7868     		ldr	r0, [r7, #4]
 9815 01b6 FFF7FEFF 		bl	I2C_TreatErrorCallback
 9816 01ba 05E0     		b	.L666
 9817              	.L660:
ARM GAS  /var/folders/k1/1yttftd15rl7jxtpyc5m93n80000gn/T//ccqqVpOc.s 			page 171


 9818 01bc 7868     		ldr	r0, [r7, #4]
 9819 01be FFF7FEFF 		bl	I2C_TreatErrorCallback
 9820 01c2 02E0     		b	.L667
 9821              	.L665:
 9822 01c4 00BF     		nop
 9823 01c6 00E0     		b	.L667
 9824              	.L666:
 9825 01c8 00BF     		nop
 9826              	.L667:
 9827 01ca 00BF     		nop
 9828 01cc 1037     		adds	r7, r7, #16
 9829 01ce BD46     		mov	sp, r7
 9830              		@ sp needed
 9831 01d0 80BD     		pop	{r7, pc}
 9832              	.L669:
 9833 01d2 00BF     		.align	2
 9834              	.L668:
 9835 01d4 0000FFFF 		.word	-65536
 9836 01d8 00000000 		.word	I2C_Slave_ISR_IT
 9837 01dc 00000000 		.word	I2C_DMAAbort
 9839              		.section	.text.I2C_TreatErrorCallback,"ax",%progbits
 9840              		.align	1
 9841              		.syntax unified
 9842              		.thumb
 9843              		.thumb_func
 9845              	I2C_TreatErrorCallback:
 9846              		@ args = 0, pretend = 0, frame = 8
 9847              		@ frame_needed = 1, uses_anonymous_args = 0
 9848 0000 80B5     		push	{r7, lr}
 9849 0002 82B0     		sub	sp, sp, #8
 9850 0004 00AF     		add	r7, sp, #0
 9851 0006 7860     		str	r0, [r7, #4]
 9852 0008 7B68     		ldr	r3, [r7, #4]
 9853 000a 93F84130 		ldrb	r3, [r3, #65]
 9854 000e DBB2     		uxtb	r3, r3
 9855 0010 602B     		cmp	r3, #96
 9856 0012 0ED1     		bne	.L671
 9857 0014 7B68     		ldr	r3, [r7, #4]
 9858 0016 2022     		movs	r2, #32
 9859 0018 83F84120 		strb	r2, [r3, #65]
 9860 001c 7B68     		ldr	r3, [r7, #4]
 9861 001e 0022     		movs	r2, #0
 9862 0020 1A63     		str	r2, [r3, #48]
 9863 0022 7B68     		ldr	r3, [r7, #4]
 9864 0024 0022     		movs	r2, #0
 9865 0026 83F84020 		strb	r2, [r3, #64]
 9866 002a 7868     		ldr	r0, [r7, #4]
 9867 002c FFF7FEFF 		bl	HAL_I2C_AbortCpltCallback
 9868 0030 09E0     		b	.L673
 9869              	.L671:
 9870 0032 7B68     		ldr	r3, [r7, #4]
 9871 0034 0022     		movs	r2, #0
 9872 0036 1A63     		str	r2, [r3, #48]
 9873 0038 7B68     		ldr	r3, [r7, #4]
 9874 003a 0022     		movs	r2, #0
 9875 003c 83F84020 		strb	r2, [r3, #64]
 9876 0040 7868     		ldr	r0, [r7, #4]
ARM GAS  /var/folders/k1/1yttftd15rl7jxtpyc5m93n80000gn/T//ccqqVpOc.s 			page 172


 9877 0042 FFF7FEFF 		bl	HAL_I2C_ErrorCallback
 9878              	.L673:
 9879 0046 00BF     		nop
 9880 0048 0837     		adds	r7, r7, #8
 9881 004a BD46     		mov	sp, r7
 9882              		@ sp needed
 9883 004c 80BD     		pop	{r7, pc}
 9885              		.section	.text.I2C_Flush_TXDR,"ax",%progbits
 9886              		.align	1
 9887              		.syntax unified
 9888              		.thumb
 9889              		.thumb_func
 9891              	I2C_Flush_TXDR:
 9892              		@ args = 0, pretend = 0, frame = 8
 9893              		@ frame_needed = 1, uses_anonymous_args = 0
 9894              		@ link register save eliminated.
 9895 0000 80B4     		push	{r7}
 9896 0002 83B0     		sub	sp, sp, #12
 9897 0004 00AF     		add	r7, sp, #0
 9898 0006 7860     		str	r0, [r7, #4]
 9899 0008 7B68     		ldr	r3, [r7, #4]
 9900 000a 1B68     		ldr	r3, [r3]
 9901 000c 9B69     		ldr	r3, [r3, #24]
 9902 000e 03F00203 		and	r3, r3, #2
 9903 0012 022B     		cmp	r3, #2
 9904 0014 03D1     		bne	.L675
 9905 0016 7B68     		ldr	r3, [r7, #4]
 9906 0018 1B68     		ldr	r3, [r3]
 9907 001a 0022     		movs	r2, #0
 9908 001c 9A62     		str	r2, [r3, #40]
 9909              	.L675:
 9910 001e 7B68     		ldr	r3, [r7, #4]
 9911 0020 1B68     		ldr	r3, [r3]
 9912 0022 9B69     		ldr	r3, [r3, #24]
 9913 0024 03F00103 		and	r3, r3, #1
 9914 0028 012B     		cmp	r3, #1
 9915 002a 07D0     		beq	.L677
 9916 002c 7B68     		ldr	r3, [r7, #4]
 9917 002e 1B68     		ldr	r3, [r3]
 9918 0030 9A69     		ldr	r2, [r3, #24]
 9919 0032 7B68     		ldr	r3, [r7, #4]
 9920 0034 1B68     		ldr	r3, [r3]
 9921 0036 42F00102 		orr	r2, r2, #1
 9922 003a 9A61     		str	r2, [r3, #24]
 9923              	.L677:
 9924 003c 00BF     		nop
 9925 003e 0C37     		adds	r7, r7, #12
 9926 0040 BD46     		mov	sp, r7
 9927              		@ sp needed
 9928 0042 5DF8047B 		ldr	r7, [sp], #4
 9929 0046 7047     		bx	lr
 9931              		.section	.text.I2C_DMAMasterTransmitCplt,"ax",%progbits
 9932              		.align	1
 9933              		.syntax unified
 9934              		.thumb
 9935              		.thumb_func
 9937              	I2C_DMAMasterTransmitCplt:
ARM GAS  /var/folders/k1/1yttftd15rl7jxtpyc5m93n80000gn/T//ccqqVpOc.s 			page 173


 9938              		@ args = 0, pretend = 0, frame = 16
 9939              		@ frame_needed = 1, uses_anonymous_args = 0
 9940 0000 80B5     		push	{r7, lr}
 9941 0002 84B0     		sub	sp, sp, #16
 9942 0004 00AF     		add	r7, sp, #0
 9943 0006 7860     		str	r0, [r7, #4]
 9944 0008 7B68     		ldr	r3, [r7, #4]
 9945 000a 9B6A     		ldr	r3, [r3, #40]
 9946 000c FB60     		str	r3, [r7, #12]
 9947 000e FB68     		ldr	r3, [r7, #12]
 9948 0010 1B68     		ldr	r3, [r3]
 9949 0012 1A68     		ldr	r2, [r3]
 9950 0014 FB68     		ldr	r3, [r7, #12]
 9951 0016 1B68     		ldr	r3, [r3]
 9952 0018 22F48042 		bic	r2, r2, #16384
 9953 001c 1A60     		str	r2, [r3]
 9954 001e FB68     		ldr	r3, [r7, #12]
 9955 0020 5B8D     		ldrh	r3, [r3, #42]	@ movhi
 9956 0022 9BB2     		uxth	r3, r3
 9957 0024 002B     		cmp	r3, #0
 9958 0026 04D1     		bne	.L679
 9959 0028 2021     		movs	r1, #32
 9960 002a F868     		ldr	r0, [r7, #12]
 9961 002c FFF7FEFF 		bl	I2C_Enable_IRQ
 9962 0030 2DE0     		b	.L684
 9963              	.L679:
 9964 0032 FB68     		ldr	r3, [r7, #12]
 9965 0034 5B6A     		ldr	r3, [r3, #36]
 9966 0036 FA68     		ldr	r2, [r7, #12]
 9967 0038 128D     		ldrh	r2, [r2, #40]
 9968 003a 1A44     		add	r2, r2, r3
 9969 003c FB68     		ldr	r3, [r7, #12]
 9970 003e 5A62     		str	r2, [r3, #36]
 9971 0040 FB68     		ldr	r3, [r7, #12]
 9972 0042 5B8D     		ldrh	r3, [r3, #42]	@ movhi
 9973 0044 9BB2     		uxth	r3, r3
 9974 0046 FF2B     		cmp	r3, #255
 9975 0048 03D9     		bls	.L681
 9976 004a FB68     		ldr	r3, [r7, #12]
 9977 004c FF22     		movs	r2, #255
 9978 004e 1A85     		strh	r2, [r3, #40]	@ movhi
 9979 0050 04E0     		b	.L682
 9980              	.L681:
 9981 0052 FB68     		ldr	r3, [r7, #12]
 9982 0054 5B8D     		ldrh	r3, [r3, #42]	@ movhi
 9983 0056 9AB2     		uxth	r2, r3
 9984 0058 FB68     		ldr	r3, [r7, #12]
 9985 005a 1A85     		strh	r2, [r3, #40]	@ movhi
 9986              	.L682:
 9987 005c FB68     		ldr	r3, [r7, #12]
 9988 005e 986B     		ldr	r0, [r3, #56]
 9989 0060 FB68     		ldr	r3, [r7, #12]
 9990 0062 5B6A     		ldr	r3, [r3, #36]
 9991 0064 1946     		mov	r1, r3
 9992 0066 FB68     		ldr	r3, [r7, #12]
 9993 0068 1B68     		ldr	r3, [r3]
 9994 006a 2833     		adds	r3, r3, #40
ARM GAS  /var/folders/k1/1yttftd15rl7jxtpyc5m93n80000gn/T//ccqqVpOc.s 			page 174


 9995 006c 1A46     		mov	r2, r3
 9996 006e FB68     		ldr	r3, [r7, #12]
 9997 0070 1B8D     		ldrh	r3, [r3, #40]
 9998 0072 FFF7FEFF 		bl	HAL_DMA_Start_IT
 9999 0076 0346     		mov	r3, r0
 10000 0078 002B     		cmp	r3, #0
 10001 007a 04D0     		beq	.L683
 10002 007c 1021     		movs	r1, #16
 10003 007e F868     		ldr	r0, [r7, #12]
 10004 0080 FFF7FEFF 		bl	I2C_ITError
 10005 0084 03E0     		b	.L684
 10006              	.L683:
 10007 0086 4021     		movs	r1, #64
 10008 0088 F868     		ldr	r0, [r7, #12]
 10009 008a FFF7FEFF 		bl	I2C_Enable_IRQ
 10010              	.L684:
 10011 008e 00BF     		nop
 10012 0090 1037     		adds	r7, r7, #16
 10013 0092 BD46     		mov	sp, r7
 10014              		@ sp needed
 10015 0094 80BD     		pop	{r7, pc}
 10017              		.section	.text.I2C_DMASlaveTransmitCplt,"ax",%progbits
 10018              		.align	1
 10019              		.syntax unified
 10020              		.thumb
 10021              		.thumb_func
 10023              	I2C_DMASlaveTransmitCplt:
 10024              		@ args = 0, pretend = 0, frame = 16
 10025              		@ frame_needed = 1, uses_anonymous_args = 0
 10026 0000 80B5     		push	{r7, lr}
 10027 0002 84B0     		sub	sp, sp, #16
 10028 0004 00AF     		add	r7, sp, #0
 10029 0006 7860     		str	r0, [r7, #4]
 10030 0008 7B68     		ldr	r3, [r7, #4]
 10031 000a 9B6A     		ldr	r3, [r3, #40]
 10032 000c FB60     		str	r3, [r7, #12]
 10033 000e FB68     		ldr	r3, [r7, #12]
 10034 0010 DB6A     		ldr	r3, [r3, #44]
 10035 0012 BB60     		str	r3, [r7, #8]
 10036 0014 BB68     		ldr	r3, [r7, #8]
 10037 0016 B3F1807F 		cmp	r3, #16777216
 10038 001a 02D0     		beq	.L686
 10039 001c BB68     		ldr	r3, [r7, #8]
 10040 001e 002B     		cmp	r3, #0
 10041 0020 0AD1     		bne	.L688
 10042              	.L686:
 10043 0022 FB68     		ldr	r3, [r7, #12]
 10044 0024 1B68     		ldr	r3, [r3]
 10045 0026 1A68     		ldr	r2, [r3]
 10046 0028 FB68     		ldr	r3, [r7, #12]
 10047 002a 1B68     		ldr	r3, [r3]
 10048 002c 22F48042 		bic	r2, r2, #16384
 10049 0030 1A60     		str	r2, [r3]
 10050 0032 F868     		ldr	r0, [r7, #12]
 10051 0034 FFF7FEFF 		bl	I2C_ITSlaveSeqCplt
 10052              	.L688:
 10053 0038 00BF     		nop
ARM GAS  /var/folders/k1/1yttftd15rl7jxtpyc5m93n80000gn/T//ccqqVpOc.s 			page 175


 10054 003a 1037     		adds	r7, r7, #16
 10055 003c BD46     		mov	sp, r7
 10056              		@ sp needed
 10057 003e 80BD     		pop	{r7, pc}
 10059              		.section	.text.I2C_DMAMasterReceiveCplt,"ax",%progbits
 10060              		.align	1
 10061              		.syntax unified
 10062              		.thumb
 10063              		.thumb_func
 10065              	I2C_DMAMasterReceiveCplt:
 10066              		@ args = 0, pretend = 0, frame = 16
 10067              		@ frame_needed = 1, uses_anonymous_args = 0
 10068 0000 80B5     		push	{r7, lr}
 10069 0002 84B0     		sub	sp, sp, #16
 10070 0004 00AF     		add	r7, sp, #0
 10071 0006 7860     		str	r0, [r7, #4]
 10072 0008 7B68     		ldr	r3, [r7, #4]
 10073 000a 9B6A     		ldr	r3, [r3, #40]
 10074 000c FB60     		str	r3, [r7, #12]
 10075 000e FB68     		ldr	r3, [r7, #12]
 10076 0010 1B68     		ldr	r3, [r3]
 10077 0012 1A68     		ldr	r2, [r3]
 10078 0014 FB68     		ldr	r3, [r7, #12]
 10079 0016 1B68     		ldr	r3, [r3]
 10080 0018 22F40042 		bic	r2, r2, #32768
 10081 001c 1A60     		str	r2, [r3]
 10082 001e FB68     		ldr	r3, [r7, #12]
 10083 0020 5B8D     		ldrh	r3, [r3, #42]	@ movhi
 10084 0022 9BB2     		uxth	r3, r3
 10085 0024 002B     		cmp	r3, #0
 10086 0026 04D1     		bne	.L690
 10087 0028 2021     		movs	r1, #32
 10088 002a F868     		ldr	r0, [r7, #12]
 10089 002c FFF7FEFF 		bl	I2C_Enable_IRQ
 10090 0030 2DE0     		b	.L695
 10091              	.L690:
 10092 0032 FB68     		ldr	r3, [r7, #12]
 10093 0034 5B6A     		ldr	r3, [r3, #36]
 10094 0036 FA68     		ldr	r2, [r7, #12]
 10095 0038 128D     		ldrh	r2, [r2, #40]
 10096 003a 1A44     		add	r2, r2, r3
 10097 003c FB68     		ldr	r3, [r7, #12]
 10098 003e 5A62     		str	r2, [r3, #36]
 10099 0040 FB68     		ldr	r3, [r7, #12]
 10100 0042 5B8D     		ldrh	r3, [r3, #42]	@ movhi
 10101 0044 9BB2     		uxth	r3, r3
 10102 0046 FF2B     		cmp	r3, #255
 10103 0048 03D9     		bls	.L692
 10104 004a FB68     		ldr	r3, [r7, #12]
 10105 004c FF22     		movs	r2, #255
 10106 004e 1A85     		strh	r2, [r3, #40]	@ movhi
 10107 0050 04E0     		b	.L693
 10108              	.L692:
 10109 0052 FB68     		ldr	r3, [r7, #12]
 10110 0054 5B8D     		ldrh	r3, [r3, #42]	@ movhi
 10111 0056 9AB2     		uxth	r2, r3
 10112 0058 FB68     		ldr	r3, [r7, #12]
ARM GAS  /var/folders/k1/1yttftd15rl7jxtpyc5m93n80000gn/T//ccqqVpOc.s 			page 176


 10113 005a 1A85     		strh	r2, [r3, #40]	@ movhi
 10114              	.L693:
 10115 005c FB68     		ldr	r3, [r7, #12]
 10116 005e D86B     		ldr	r0, [r3, #60]
 10117 0060 FB68     		ldr	r3, [r7, #12]
 10118 0062 1B68     		ldr	r3, [r3]
 10119 0064 2433     		adds	r3, r3, #36
 10120 0066 1946     		mov	r1, r3
 10121 0068 FB68     		ldr	r3, [r7, #12]
 10122 006a 5B6A     		ldr	r3, [r3, #36]
 10123 006c 1A46     		mov	r2, r3
 10124 006e FB68     		ldr	r3, [r7, #12]
 10125 0070 1B8D     		ldrh	r3, [r3, #40]
 10126 0072 FFF7FEFF 		bl	HAL_DMA_Start_IT
 10127 0076 0346     		mov	r3, r0
 10128 0078 002B     		cmp	r3, #0
 10129 007a 04D0     		beq	.L694
 10130 007c 1021     		movs	r1, #16
 10131 007e F868     		ldr	r0, [r7, #12]
 10132 0080 FFF7FEFF 		bl	I2C_ITError
 10133 0084 03E0     		b	.L695
 10134              	.L694:
 10135 0086 4021     		movs	r1, #64
 10136 0088 F868     		ldr	r0, [r7, #12]
 10137 008a FFF7FEFF 		bl	I2C_Enable_IRQ
 10138              	.L695:
 10139 008e 00BF     		nop
 10140 0090 1037     		adds	r7, r7, #16
 10141 0092 BD46     		mov	sp, r7
 10142              		@ sp needed
 10143 0094 80BD     		pop	{r7, pc}
 10145              		.section	.text.I2C_DMASlaveReceiveCplt,"ax",%progbits
 10146              		.align	1
 10147              		.syntax unified
 10148              		.thumb
 10149              		.thumb_func
 10151              	I2C_DMASlaveReceiveCplt:
 10152              		@ args = 0, pretend = 0, frame = 16
 10153              		@ frame_needed = 1, uses_anonymous_args = 0
 10154 0000 80B5     		push	{r7, lr}
 10155 0002 84B0     		sub	sp, sp, #16
 10156 0004 00AF     		add	r7, sp, #0
 10157 0006 7860     		str	r0, [r7, #4]
 10158 0008 7B68     		ldr	r3, [r7, #4]
 10159 000a 9B6A     		ldr	r3, [r3, #40]
 10160 000c FB60     		str	r3, [r7, #12]
 10161 000e FB68     		ldr	r3, [r7, #12]
 10162 0010 DB6A     		ldr	r3, [r3, #44]
 10163 0012 BB60     		str	r3, [r7, #8]
 10164 0014 FB68     		ldr	r3, [r7, #12]
 10165 0016 DB6B     		ldr	r3, [r3, #60]
 10166 0018 1B68     		ldr	r3, [r3]
 10167 001a 5B68     		ldr	r3, [r3, #4]
 10168 001c 002B     		cmp	r3, #0
 10169 001e 0ED1     		bne	.L698
 10170 0020 BB68     		ldr	r3, [r7, #8]
 10171 0022 13F5803F 		cmn	r3, #65536
ARM GAS  /var/folders/k1/1yttftd15rl7jxtpyc5m93n80000gn/T//ccqqVpOc.s 			page 177


 10172 0026 0AD0     		beq	.L698
 10173 0028 FB68     		ldr	r3, [r7, #12]
 10174 002a 1B68     		ldr	r3, [r3]
 10175 002c 1A68     		ldr	r2, [r3]
 10176 002e FB68     		ldr	r3, [r7, #12]
 10177 0030 1B68     		ldr	r3, [r3]
 10178 0032 22F40042 		bic	r2, r2, #32768
 10179 0036 1A60     		str	r2, [r3]
 10180 0038 F868     		ldr	r0, [r7, #12]
 10181 003a FFF7FEFF 		bl	I2C_ITSlaveSeqCplt
 10182              	.L698:
 10183 003e 00BF     		nop
 10184 0040 1037     		adds	r7, r7, #16
 10185 0042 BD46     		mov	sp, r7
 10186              		@ sp needed
 10187 0044 80BD     		pop	{r7, pc}
 10189              		.section	.text.I2C_DMAError,"ax",%progbits
 10190              		.align	1
 10191              		.syntax unified
 10192              		.thumb
 10193              		.thumb_func
 10195              	I2C_DMAError:
 10196              		@ args = 0, pretend = 0, frame = 16
 10197              		@ frame_needed = 1, uses_anonymous_args = 0
 10198 0000 80B5     		push	{r7, lr}
 10199 0002 84B0     		sub	sp, sp, #16
 10200 0004 00AF     		add	r7, sp, #0
 10201 0006 7860     		str	r0, [r7, #4]
 10202 0008 7B68     		ldr	r3, [r7, #4]
 10203 000a 9B6A     		ldr	r3, [r3, #40]
 10204 000c FB60     		str	r3, [r7, #12]
 10205 000e FB68     		ldr	r3, [r7, #12]
 10206 0010 1B68     		ldr	r3, [r3]
 10207 0012 5A68     		ldr	r2, [r3, #4]
 10208 0014 FB68     		ldr	r3, [r7, #12]
 10209 0016 1B68     		ldr	r3, [r3]
 10210 0018 42F40042 		orr	r2, r2, #32768
 10211 001c 5A60     		str	r2, [r3, #4]
 10212 001e 1021     		movs	r1, #16
 10213 0020 F868     		ldr	r0, [r7, #12]
 10214 0022 FFF7FEFF 		bl	I2C_ITError
 10215 0026 00BF     		nop
 10216 0028 1037     		adds	r7, r7, #16
 10217 002a BD46     		mov	sp, r7
 10218              		@ sp needed
 10219 002c 80BD     		pop	{r7, pc}
 10221              		.section	.text.I2C_DMAAbort,"ax",%progbits
 10222              		.align	1
 10223              		.syntax unified
 10224              		.thumb
 10225              		.thumb_func
 10227              	I2C_DMAAbort:
 10228              		@ args = 0, pretend = 0, frame = 16
 10229              		@ frame_needed = 1, uses_anonymous_args = 0
 10230 0000 80B5     		push	{r7, lr}
 10231 0002 84B0     		sub	sp, sp, #16
 10232 0004 00AF     		add	r7, sp, #0
ARM GAS  /var/folders/k1/1yttftd15rl7jxtpyc5m93n80000gn/T//ccqqVpOc.s 			page 178


 10233 0006 7860     		str	r0, [r7, #4]
 10234 0008 7B68     		ldr	r3, [r7, #4]
 10235 000a 9B6A     		ldr	r3, [r3, #40]
 10236 000c FB60     		str	r3, [r7, #12]
 10237 000e FB68     		ldr	r3, [r7, #12]
 10238 0010 9B6B     		ldr	r3, [r3, #56]
 10239 0012 002B     		cmp	r3, #0
 10240 0014 03D0     		beq	.L701
 10241 0016 FB68     		ldr	r3, [r7, #12]
 10242 0018 9B6B     		ldr	r3, [r3, #56]
 10243 001a 0022     		movs	r2, #0
 10244 001c 9A63     		str	r2, [r3, #56]
 10245              	.L701:
 10246 001e FB68     		ldr	r3, [r7, #12]
 10247 0020 DB6B     		ldr	r3, [r3, #60]
 10248 0022 002B     		cmp	r3, #0
 10249 0024 03D0     		beq	.L702
 10250 0026 FB68     		ldr	r3, [r7, #12]
 10251 0028 DB6B     		ldr	r3, [r3, #60]
 10252 002a 0022     		movs	r2, #0
 10253 002c 9A63     		str	r2, [r3, #56]
 10254              	.L702:
 10255 002e F868     		ldr	r0, [r7, #12]
 10256 0030 FFF7FEFF 		bl	I2C_TreatErrorCallback
 10257 0034 00BF     		nop
 10258 0036 1037     		adds	r7, r7, #16
 10259 0038 BD46     		mov	sp, r7
 10260              		@ sp needed
 10261 003a 80BD     		pop	{r7, pc}
 10263              		.section	.text.I2C_WaitOnFlagUntilTimeout,"ax",%progbits
 10264              		.align	1
 10265              		.syntax unified
 10266              		.thumb
 10267              		.thumb_func
 10269              	I2C_WaitOnFlagUntilTimeout:
 10270              		@ args = 4, pretend = 0, frame = 16
 10271              		@ frame_needed = 1, uses_anonymous_args = 0
 10272 0000 80B5     		push	{r7, lr}
 10273 0002 84B0     		sub	sp, sp, #16
 10274 0004 00AF     		add	r7, sp, #0
 10275 0006 F860     		str	r0, [r7, #12]
 10276 0008 B960     		str	r1, [r7, #8]
 10277 000a 3B60     		str	r3, [r7]
 10278 000c 1346     		mov	r3, r2
 10279 000e FB71     		strb	r3, [r7, #7]
 10280 0010 3BE0     		b	.L707
 10281              	.L710:
 10282 0012 BA69     		ldr	r2, [r7, #24]
 10283 0014 3968     		ldr	r1, [r7]
 10284 0016 F868     		ldr	r0, [r7, #12]
 10285 0018 FFF7FEFF 		bl	I2C_IsErrorOccurred
 10286 001c 0346     		mov	r3, r0
 10287 001e 002B     		cmp	r3, #0
 10288 0020 01D0     		beq	.L705
 10289 0022 0123     		movs	r3, #1
 10290 0024 41E0     		b	.L706
 10291              	.L705:
ARM GAS  /var/folders/k1/1yttftd15rl7jxtpyc5m93n80000gn/T//ccqqVpOc.s 			page 179


 10292 0026 3B68     		ldr	r3, [r7]
 10293 0028 B3F1FF3F 		cmp	r3, #-1
 10294 002c 2DD0     		beq	.L707
 10295 002e FFF7FEFF 		bl	HAL_GetTick
 10296 0032 0246     		mov	r2, r0
 10297 0034 BB69     		ldr	r3, [r7, #24]
 10298 0036 D31A     		subs	r3, r2, r3
 10299 0038 3A68     		ldr	r2, [r7]
 10300 003a 9A42     		cmp	r2, r3
 10301 003c 02D3     		bcc	.L708
 10302 003e 3B68     		ldr	r3, [r7]
 10303 0040 002B     		cmp	r3, #0
 10304 0042 22D1     		bne	.L707
 10305              	.L708:
 10306 0044 FB68     		ldr	r3, [r7, #12]
 10307 0046 1B68     		ldr	r3, [r3]
 10308 0048 9A69     		ldr	r2, [r3, #24]
 10309 004a BB68     		ldr	r3, [r7, #8]
 10310 004c 1340     		ands	r3, r3, r2
 10311 004e BA68     		ldr	r2, [r7, #8]
 10312 0050 9A42     		cmp	r2, r3
 10313 0052 0CBF     		ite	eq
 10314 0054 0123     		moveq	r3, #1
 10315 0056 0023     		movne	r3, #0
 10316 0058 DBB2     		uxtb	r3, r3
 10317 005a 1A46     		mov	r2, r3
 10318 005c FB79     		ldrb	r3, [r7, #7]	@ zero_extendqisi2
 10319 005e 9A42     		cmp	r2, r3
 10320 0060 13D1     		bne	.L707
 10321 0062 FB68     		ldr	r3, [r7, #12]
 10322 0064 5B6C     		ldr	r3, [r3, #68]
 10323 0066 43F02002 		orr	r2, r3, #32
 10324 006a FB68     		ldr	r3, [r7, #12]
 10325 006c 5A64     		str	r2, [r3, #68]
 10326 006e FB68     		ldr	r3, [r7, #12]
 10327 0070 2022     		movs	r2, #32
 10328 0072 83F84120 		strb	r2, [r3, #65]
 10329 0076 FB68     		ldr	r3, [r7, #12]
 10330 0078 0022     		movs	r2, #0
 10331 007a 83F84220 		strb	r2, [r3, #66]
 10332 007e FB68     		ldr	r3, [r7, #12]
 10333 0080 0022     		movs	r2, #0
 10334 0082 83F84020 		strb	r2, [r3, #64]
 10335 0086 0123     		movs	r3, #1
 10336 0088 0FE0     		b	.L706
 10337              	.L707:
 10338 008a FB68     		ldr	r3, [r7, #12]
 10339 008c 1B68     		ldr	r3, [r3]
 10340 008e 9A69     		ldr	r2, [r3, #24]
 10341 0090 BB68     		ldr	r3, [r7, #8]
 10342 0092 1340     		ands	r3, r3, r2
 10343 0094 BA68     		ldr	r2, [r7, #8]
 10344 0096 9A42     		cmp	r2, r3
 10345 0098 0CBF     		ite	eq
 10346 009a 0123     		moveq	r3, #1
 10347 009c 0023     		movne	r3, #0
 10348 009e DBB2     		uxtb	r3, r3
ARM GAS  /var/folders/k1/1yttftd15rl7jxtpyc5m93n80000gn/T//ccqqVpOc.s 			page 180


 10349 00a0 1A46     		mov	r2, r3
 10350 00a2 FB79     		ldrb	r3, [r7, #7]	@ zero_extendqisi2
 10351 00a4 9A42     		cmp	r2, r3
 10352 00a6 B4D0     		beq	.L710
 10353 00a8 0023     		movs	r3, #0
 10354              	.L706:
 10355 00aa 1846     		mov	r0, r3
 10356 00ac 1037     		adds	r7, r7, #16
 10357 00ae BD46     		mov	sp, r7
 10358              		@ sp needed
 10359 00b0 80BD     		pop	{r7, pc}
 10361              		.section	.text.I2C_WaitOnTXISFlagUntilTimeout,"ax",%progbits
 10362              		.align	1
 10363              		.syntax unified
 10364              		.thumb
 10365              		.thumb_func
 10367              	I2C_WaitOnTXISFlagUntilTimeout:
 10368              		@ args = 0, pretend = 0, frame = 16
 10369              		@ frame_needed = 1, uses_anonymous_args = 0
 10370 0000 80B5     		push	{r7, lr}
 10371 0002 84B0     		sub	sp, sp, #16
 10372 0004 00AF     		add	r7, sp, #0
 10373 0006 F860     		str	r0, [r7, #12]
 10374 0008 B960     		str	r1, [r7, #8]
 10375 000a 7A60     		str	r2, [r7, #4]
 10376 000c 33E0     		b	.L715
 10377              	.L718:
 10378 000e 7A68     		ldr	r2, [r7, #4]
 10379 0010 B968     		ldr	r1, [r7, #8]
 10380 0012 F868     		ldr	r0, [r7, #12]
 10381 0014 FFF7FEFF 		bl	I2C_IsErrorOccurred
 10382 0018 0346     		mov	r3, r0
 10383 001a 002B     		cmp	r3, #0
 10384 001c 01D0     		beq	.L713
 10385 001e 0123     		movs	r3, #1
 10386 0020 31E0     		b	.L714
 10387              	.L713:
 10388 0022 BB68     		ldr	r3, [r7, #8]
 10389 0024 B3F1FF3F 		cmp	r3, #-1
 10390 0028 25D0     		beq	.L715
 10391 002a FFF7FEFF 		bl	HAL_GetTick
 10392 002e 0246     		mov	r2, r0
 10393 0030 7B68     		ldr	r3, [r7, #4]
 10394 0032 D31A     		subs	r3, r2, r3
 10395 0034 BA68     		ldr	r2, [r7, #8]
 10396 0036 9A42     		cmp	r2, r3
 10397 0038 02D3     		bcc	.L716
 10398 003a BB68     		ldr	r3, [r7, #8]
 10399 003c 002B     		cmp	r3, #0
 10400 003e 1AD1     		bne	.L715
 10401              	.L716:
 10402 0040 FB68     		ldr	r3, [r7, #12]
 10403 0042 1B68     		ldr	r3, [r3]
 10404 0044 9B69     		ldr	r3, [r3, #24]
 10405 0046 03F00203 		and	r3, r3, #2
 10406 004a 022B     		cmp	r3, #2
 10407 004c 13D0     		beq	.L715
ARM GAS  /var/folders/k1/1yttftd15rl7jxtpyc5m93n80000gn/T//ccqqVpOc.s 			page 181


 10408 004e FB68     		ldr	r3, [r7, #12]
 10409 0050 5B6C     		ldr	r3, [r3, #68]
 10410 0052 43F02002 		orr	r2, r3, #32
 10411 0056 FB68     		ldr	r3, [r7, #12]
 10412 0058 5A64     		str	r2, [r3, #68]
 10413 005a FB68     		ldr	r3, [r7, #12]
 10414 005c 2022     		movs	r2, #32
 10415 005e 83F84120 		strb	r2, [r3, #65]
 10416 0062 FB68     		ldr	r3, [r7, #12]
 10417 0064 0022     		movs	r2, #0
 10418 0066 83F84220 		strb	r2, [r3, #66]
 10419 006a FB68     		ldr	r3, [r7, #12]
 10420 006c 0022     		movs	r2, #0
 10421 006e 83F84020 		strb	r2, [r3, #64]
 10422 0072 0123     		movs	r3, #1
 10423 0074 07E0     		b	.L714
 10424              	.L715:
 10425 0076 FB68     		ldr	r3, [r7, #12]
 10426 0078 1B68     		ldr	r3, [r3]
 10427 007a 9B69     		ldr	r3, [r3, #24]
 10428 007c 03F00203 		and	r3, r3, #2
 10429 0080 022B     		cmp	r3, #2
 10430 0082 C4D1     		bne	.L718
 10431 0084 0023     		movs	r3, #0
 10432              	.L714:
 10433 0086 1846     		mov	r0, r3
 10434 0088 1037     		adds	r7, r7, #16
 10435 008a BD46     		mov	sp, r7
 10436              		@ sp needed
 10437 008c 80BD     		pop	{r7, pc}
 10439              		.section	.text.I2C_WaitOnSTOPFlagUntilTimeout,"ax",%progbits
 10440              		.align	1
 10441              		.syntax unified
 10442              		.thumb
 10443              		.thumb_func
 10445              	I2C_WaitOnSTOPFlagUntilTimeout:
 10446              		@ args = 0, pretend = 0, frame = 16
 10447              		@ frame_needed = 1, uses_anonymous_args = 0
 10448 0000 80B5     		push	{r7, lr}
 10449 0002 84B0     		sub	sp, sp, #16
 10450 0004 00AF     		add	r7, sp, #0
 10451 0006 F860     		str	r0, [r7, #12]
 10452 0008 B960     		str	r1, [r7, #8]
 10453 000a 7A60     		str	r2, [r7, #4]
 10454 000c 2FE0     		b	.L720
 10455              	.L725:
 10456 000e 7A68     		ldr	r2, [r7, #4]
 10457 0010 B968     		ldr	r1, [r7, #8]
 10458 0012 F868     		ldr	r0, [r7, #12]
 10459 0014 FFF7FEFF 		bl	I2C_IsErrorOccurred
 10460 0018 0346     		mov	r3, r0
 10461 001a 002B     		cmp	r3, #0
 10462 001c 01D0     		beq	.L721
 10463 001e 0123     		movs	r3, #1
 10464 0020 2DE0     		b	.L722
 10465              	.L721:
 10466 0022 FFF7FEFF 		bl	HAL_GetTick
ARM GAS  /var/folders/k1/1yttftd15rl7jxtpyc5m93n80000gn/T//ccqqVpOc.s 			page 182


 10467 0026 0246     		mov	r2, r0
 10468 0028 7B68     		ldr	r3, [r7, #4]
 10469 002a D31A     		subs	r3, r2, r3
 10470 002c BA68     		ldr	r2, [r7, #8]
 10471 002e 9A42     		cmp	r2, r3
 10472 0030 02D3     		bcc	.L723
 10473 0032 BB68     		ldr	r3, [r7, #8]
 10474 0034 002B     		cmp	r3, #0
 10475 0036 1AD1     		bne	.L720
 10476              	.L723:
 10477 0038 FB68     		ldr	r3, [r7, #12]
 10478 003a 1B68     		ldr	r3, [r3]
 10479 003c 9B69     		ldr	r3, [r3, #24]
 10480 003e 03F02003 		and	r3, r3, #32
 10481 0042 202B     		cmp	r3, #32
 10482 0044 13D0     		beq	.L720
 10483 0046 FB68     		ldr	r3, [r7, #12]
 10484 0048 5B6C     		ldr	r3, [r3, #68]
 10485 004a 43F02002 		orr	r2, r3, #32
 10486 004e FB68     		ldr	r3, [r7, #12]
 10487 0050 5A64     		str	r2, [r3, #68]
 10488 0052 FB68     		ldr	r3, [r7, #12]
 10489 0054 2022     		movs	r2, #32
 10490 0056 83F84120 		strb	r2, [r3, #65]
 10491 005a FB68     		ldr	r3, [r7, #12]
 10492 005c 0022     		movs	r2, #0
 10493 005e 83F84220 		strb	r2, [r3, #66]
 10494 0062 FB68     		ldr	r3, [r7, #12]
 10495 0064 0022     		movs	r2, #0
 10496 0066 83F84020 		strb	r2, [r3, #64]
 10497 006a 0123     		movs	r3, #1
 10498 006c 07E0     		b	.L722
 10499              	.L720:
 10500 006e FB68     		ldr	r3, [r7, #12]
 10501 0070 1B68     		ldr	r3, [r3]
 10502 0072 9B69     		ldr	r3, [r3, #24]
 10503 0074 03F02003 		and	r3, r3, #32
 10504 0078 202B     		cmp	r3, #32
 10505 007a C8D1     		bne	.L725
 10506 007c 0023     		movs	r3, #0
 10507              	.L722:
 10508 007e 1846     		mov	r0, r3
 10509 0080 1037     		adds	r7, r7, #16
 10510 0082 BD46     		mov	sp, r7
 10511              		@ sp needed
 10512 0084 80BD     		pop	{r7, pc}
 10514              		.section	.text.I2C_WaitOnRXNEFlagUntilTimeout,"ax",%progbits
 10515              		.align	1
 10516              		.syntax unified
 10517              		.thumb
 10518              		.thumb_func
 10520              	I2C_WaitOnRXNEFlagUntilTimeout:
 10521              		@ args = 0, pretend = 0, frame = 24
 10522              		@ frame_needed = 1, uses_anonymous_args = 0
 10523 0000 80B5     		push	{r7, lr}
 10524 0002 86B0     		sub	sp, sp, #24
 10525 0004 00AF     		add	r7, sp, #0
ARM GAS  /var/folders/k1/1yttftd15rl7jxtpyc5m93n80000gn/T//ccqqVpOc.s 			page 183


 10526 0006 F860     		str	r0, [r7, #12]
 10527 0008 B960     		str	r1, [r7, #8]
 10528 000a 7A60     		str	r2, [r7, #4]
 10529 000c 0023     		movs	r3, #0
 10530 000e FB75     		strb	r3, [r7, #23]
 10531 0010 71E0     		b	.L727
 10532              	.L735:
 10533 0012 7A68     		ldr	r2, [r7, #4]
 10534 0014 B968     		ldr	r1, [r7, #8]
 10535 0016 F868     		ldr	r0, [r7, #12]
 10536 0018 FFF7FEFF 		bl	I2C_IsErrorOccurred
 10537 001c 0346     		mov	r3, r0
 10538 001e 002B     		cmp	r3, #0
 10539 0020 01D0     		beq	.L728
 10540 0022 0123     		movs	r3, #1
 10541 0024 FB75     		strb	r3, [r7, #23]
 10542              	.L728:
 10543 0026 FB68     		ldr	r3, [r7, #12]
 10544 0028 1B68     		ldr	r3, [r3]
 10545 002a 9B69     		ldr	r3, [r3, #24]
 10546 002c 03F02003 		and	r3, r3, #32
 10547 0030 202B     		cmp	r3, #32
 10548 0032 3BD1     		bne	.L729
 10549 0034 FB7D     		ldrb	r3, [r7, #23]	@ zero_extendqisi2
 10550 0036 002B     		cmp	r3, #0
 10551 0038 38D1     		bne	.L729
 10552 003a FB68     		ldr	r3, [r7, #12]
 10553 003c 1B68     		ldr	r3, [r3]
 10554 003e 9B69     		ldr	r3, [r3, #24]
 10555 0040 03F00403 		and	r3, r3, #4
 10556 0044 042B     		cmp	r3, #4
 10557 0046 05D1     		bne	.L730
 10558 0048 FB68     		ldr	r3, [r7, #12]
 10559 004a 1B8D     		ldrh	r3, [r3, #40]
 10560 004c 002B     		cmp	r3, #0
 10561 004e 01D0     		beq	.L730
 10562 0050 0023     		movs	r3, #0
 10563 0052 FB75     		strb	r3, [r7, #23]
 10564              	.L730:
 10565 0054 FB68     		ldr	r3, [r7, #12]
 10566 0056 1B68     		ldr	r3, [r3]
 10567 0058 9B69     		ldr	r3, [r3, #24]
 10568 005a 03F01003 		and	r3, r3, #16
 10569 005e 102B     		cmp	r3, #16
 10570 0060 21D1     		bne	.L731
 10571 0062 FB68     		ldr	r3, [r7, #12]
 10572 0064 1B68     		ldr	r3, [r3]
 10573 0066 1022     		movs	r2, #16
 10574 0068 DA61     		str	r2, [r3, #28]
 10575 006a FB68     		ldr	r3, [r7, #12]
 10576 006c 0422     		movs	r2, #4
 10577 006e 5A64     		str	r2, [r3, #68]
 10578 0070 FB68     		ldr	r3, [r7, #12]
 10579 0072 1B68     		ldr	r3, [r3]
 10580 0074 2022     		movs	r2, #32
 10581 0076 DA61     		str	r2, [r3, #28]
 10582 0078 FB68     		ldr	r3, [r7, #12]
ARM GAS  /var/folders/k1/1yttftd15rl7jxtpyc5m93n80000gn/T//ccqqVpOc.s 			page 184


 10583 007a 1B68     		ldr	r3, [r3]
 10584 007c 5968     		ldr	r1, [r3, #4]
 10585 007e FB68     		ldr	r3, [r7, #12]
 10586 0080 1A68     		ldr	r2, [r3]
 10587 0082 244B     		ldr	r3, .L737
 10588 0084 0B40     		ands	r3, r3, r1
 10589 0086 5360     		str	r3, [r2, #4]
 10590 0088 FB68     		ldr	r3, [r7, #12]
 10591 008a 2022     		movs	r2, #32
 10592 008c 83F84120 		strb	r2, [r3, #65]
 10593 0090 FB68     		ldr	r3, [r7, #12]
 10594 0092 0022     		movs	r2, #0
 10595 0094 83F84220 		strb	r2, [r3, #66]
 10596 0098 FB68     		ldr	r3, [r7, #12]
 10597 009a 0022     		movs	r2, #0
 10598 009c 83F84020 		strb	r2, [r3, #64]
 10599 00a0 0123     		movs	r3, #1
 10600 00a2 FB75     		strb	r3, [r7, #23]
 10601 00a4 02E0     		b	.L729
 10602              	.L731:
 10603 00a6 FB68     		ldr	r3, [r7, #12]
 10604 00a8 0022     		movs	r2, #0
 10605 00aa 5A64     		str	r2, [r3, #68]
 10606              	.L729:
 10607 00ac FFF7FEFF 		bl	HAL_GetTick
 10608 00b0 0246     		mov	r2, r0
 10609 00b2 7B68     		ldr	r3, [r7, #4]
 10610 00b4 D31A     		subs	r3, r2, r3
 10611 00b6 BA68     		ldr	r2, [r7, #8]
 10612 00b8 9A42     		cmp	r2, r3
 10613 00ba 02D3     		bcc	.L732
 10614 00bc BB68     		ldr	r3, [r7, #8]
 10615 00be 002B     		cmp	r3, #0
 10616 00c0 19D1     		bne	.L727
 10617              	.L732:
 10618 00c2 FB7D     		ldrb	r3, [r7, #23]	@ zero_extendqisi2
 10619 00c4 002B     		cmp	r3, #0
 10620 00c6 16D1     		bne	.L727
 10621 00c8 FB68     		ldr	r3, [r7, #12]
 10622 00ca 1B68     		ldr	r3, [r3]
 10623 00cc 9B69     		ldr	r3, [r3, #24]
 10624 00ce 03F00403 		and	r3, r3, #4
 10625 00d2 042B     		cmp	r3, #4
 10626 00d4 0FD0     		beq	.L727
 10627 00d6 FB68     		ldr	r3, [r7, #12]
 10628 00d8 5B6C     		ldr	r3, [r3, #68]
 10629 00da 43F02002 		orr	r2, r3, #32
 10630 00de FB68     		ldr	r3, [r7, #12]
 10631 00e0 5A64     		str	r2, [r3, #68]
 10632 00e2 FB68     		ldr	r3, [r7, #12]
 10633 00e4 2022     		movs	r2, #32
 10634 00e6 83F84120 		strb	r2, [r3, #65]
 10635 00ea FB68     		ldr	r3, [r7, #12]
 10636 00ec 0022     		movs	r2, #0
 10637 00ee 83F84020 		strb	r2, [r3, #64]
 10638 00f2 0123     		movs	r3, #1
 10639 00f4 FB75     		strb	r3, [r7, #23]
ARM GAS  /var/folders/k1/1yttftd15rl7jxtpyc5m93n80000gn/T//ccqqVpOc.s 			page 185


 10640              	.L727:
 10641 00f6 FB68     		ldr	r3, [r7, #12]
 10642 00f8 1B68     		ldr	r3, [r3]
 10643 00fa 9B69     		ldr	r3, [r3, #24]
 10644 00fc 03F00403 		and	r3, r3, #4
 10645 0100 042B     		cmp	r3, #4
 10646 0102 02D0     		beq	.L734
 10647 0104 FB7D     		ldrb	r3, [r7, #23]	@ zero_extendqisi2
 10648 0106 002B     		cmp	r3, #0
 10649 0108 83D0     		beq	.L735
 10650              	.L734:
 10651 010a FB7D     		ldrb	r3, [r7, #23]	@ zero_extendqisi2
 10652 010c 1846     		mov	r0, r3
 10653 010e 1837     		adds	r7, r7, #24
 10654 0110 BD46     		mov	sp, r7
 10655              		@ sp needed
 10656 0112 80BD     		pop	{r7, pc}
 10657              	.L738:
 10658              		.align	2
 10659              	.L737:
 10660 0114 00E800FE 		.word	-33495040
 10662              		.section	.text.I2C_IsErrorOccurred,"ax",%progbits
 10663              		.align	1
 10664              		.syntax unified
 10665              		.thumb
 10666              		.thumb_func
 10668              	I2C_IsErrorOccurred:
 10669              		@ args = 0, pretend = 0, frame = 40
 10670              		@ frame_needed = 1, uses_anonymous_args = 0
 10671 0000 80B5     		push	{r7, lr}
 10672 0002 8AB0     		sub	sp, sp, #40
 10673 0004 00AF     		add	r7, sp, #0
 10674 0006 F860     		str	r0, [r7, #12]
 10675 0008 B960     		str	r1, [r7, #8]
 10676 000a 7A60     		str	r2, [r7, #4]
 10677 000c 0023     		movs	r3, #0
 10678 000e 87F82730 		strb	r3, [r7, #39]
 10679 0012 FB68     		ldr	r3, [r7, #12]
 10680 0014 1B68     		ldr	r3, [r3]
 10681 0016 9B69     		ldr	r3, [r3, #24]
 10682 0018 BB61     		str	r3, [r7, #24]
 10683 001a 0023     		movs	r3, #0
 10684 001c 3B62     		str	r3, [r7, #32]
 10685 001e 7B68     		ldr	r3, [r7, #4]
 10686 0020 FB61     		str	r3, [r7, #28]
 10687 0022 BB69     		ldr	r3, [r7, #24]
 10688 0024 03F01003 		and	r3, r3, #16
 10689 0028 002B     		cmp	r3, #0
 10690 002a 68D0     		beq	.L740
 10691 002c FB68     		ldr	r3, [r7, #12]
 10692 002e 1B68     		ldr	r3, [r3]
 10693 0030 1022     		movs	r2, #16
 10694 0032 DA61     		str	r2, [r3, #28]
 10695 0034 49E0     		b	.L742
 10696              	.L749:
 10697 0036 BB68     		ldr	r3, [r7, #8]
 10698 0038 B3F1FF3F 		cmp	r3, #-1
ARM GAS  /var/folders/k1/1yttftd15rl7jxtpyc5m93n80000gn/T//ccqqVpOc.s 			page 186


 10699 003c 45D0     		beq	.L742
 10700 003e FFF7FEFF 		bl	HAL_GetTick
 10701 0042 0246     		mov	r2, r0
 10702 0044 FB69     		ldr	r3, [r7, #28]
 10703 0046 D31A     		subs	r3, r2, r3
 10704 0048 BA68     		ldr	r2, [r7, #8]
 10705 004a 9A42     		cmp	r2, r3
 10706 004c 02D3     		bcc	.L743
 10707 004e BB68     		ldr	r3, [r7, #8]
 10708 0050 002B     		cmp	r3, #0
 10709 0052 3AD1     		bne	.L742
 10710              	.L743:
 10711 0054 FB68     		ldr	r3, [r7, #12]
 10712 0056 1B68     		ldr	r3, [r3]
 10713 0058 5B68     		ldr	r3, [r3, #4]
 10714 005a 03F48043 		and	r3, r3, #16384
 10715 005e 7B61     		str	r3, [r7, #20]
 10716 0060 FB68     		ldr	r3, [r7, #12]
 10717 0062 93F84230 		ldrb	r3, [r3, #66]
 10718 0066 FB74     		strb	r3, [r7, #19]
 10719 0068 FB68     		ldr	r3, [r7, #12]
 10720 006a 1B68     		ldr	r3, [r3]
 10721 006c 9B69     		ldr	r3, [r3, #24]
 10722 006e 03F40043 		and	r3, r3, #32768
 10723 0072 B3F5004F 		cmp	r3, #32768
 10724 0076 21D1     		bne	.L746
 10725 0078 7B69     		ldr	r3, [r7, #20]
 10726 007a B3F5804F 		cmp	r3, #16384
 10727 007e 1DD0     		beq	.L746
 10728 0080 FB7C     		ldrb	r3, [r7, #19]	@ zero_extendqisi2
 10729 0082 202B     		cmp	r3, #32
 10730 0084 1AD0     		beq	.L746
 10731 0086 FB68     		ldr	r3, [r7, #12]
 10732 0088 1B68     		ldr	r3, [r3]
 10733 008a 5A68     		ldr	r2, [r3, #4]
 10734 008c FB68     		ldr	r3, [r7, #12]
 10735 008e 1B68     		ldr	r3, [r3]
 10736 0090 42F48042 		orr	r2, r2, #16384
 10737 0094 5A60     		str	r2, [r3, #4]
 10738 0096 FFF7FEFF 		bl	HAL_GetTick
 10739 009a F861     		str	r0, [r7, #28]
 10740 009c 0EE0     		b	.L746
 10741              	.L747:
 10742 009e FFF7FEFF 		bl	HAL_GetTick
 10743 00a2 0246     		mov	r2, r0
 10744 00a4 FB69     		ldr	r3, [r7, #28]
 10745 00a6 D31A     		subs	r3, r2, r3
 10746 00a8 192B     		cmp	r3, #25
 10747 00aa 07D9     		bls	.L746
 10748 00ac 3B6A     		ldr	r3, [r7, #32]
 10749 00ae 43F02003 		orr	r3, r3, #32
 10750 00b2 3B62     		str	r3, [r7, #32]
 10751 00b4 0123     		movs	r3, #1
 10752 00b6 87F82730 		strb	r3, [r7, #39]
 10753 00ba 06E0     		b	.L742
 10754              	.L746:
 10755 00bc FB68     		ldr	r3, [r7, #12]
ARM GAS  /var/folders/k1/1yttftd15rl7jxtpyc5m93n80000gn/T//ccqqVpOc.s 			page 187


 10756 00be 1B68     		ldr	r3, [r3]
 10757 00c0 9B69     		ldr	r3, [r3, #24]
 10758 00c2 03F02003 		and	r3, r3, #32
 10759 00c6 202B     		cmp	r3, #32
 10760 00c8 E9D1     		bne	.L747
 10761              	.L742:
 10762 00ca FB68     		ldr	r3, [r7, #12]
 10763 00cc 1B68     		ldr	r3, [r3]
 10764 00ce 9B69     		ldr	r3, [r3, #24]
 10765 00d0 03F02003 		and	r3, r3, #32
 10766 00d4 202B     		cmp	r3, #32
 10767 00d6 03D0     		beq	.L748
 10768 00d8 97F82730 		ldrb	r3, [r7, #39]	@ zero_extendqisi2
 10769 00dc 002B     		cmp	r3, #0
 10770 00de AAD0     		beq	.L749
 10771              	.L748:
 10772 00e0 97F82730 		ldrb	r3, [r7, #39]	@ zero_extendqisi2
 10773 00e4 002B     		cmp	r3, #0
 10774 00e6 03D1     		bne	.L750
 10775 00e8 FB68     		ldr	r3, [r7, #12]
 10776 00ea 1B68     		ldr	r3, [r3]
 10777 00ec 2022     		movs	r2, #32
 10778 00ee DA61     		str	r2, [r3, #28]
 10779              	.L750:
 10780 00f0 3B6A     		ldr	r3, [r7, #32]
 10781 00f2 43F00403 		orr	r3, r3, #4
 10782 00f6 3B62     		str	r3, [r7, #32]
 10783 00f8 0123     		movs	r3, #1
 10784 00fa 87F82730 		strb	r3, [r7, #39]
 10785              	.L740:
 10786 00fe FB68     		ldr	r3, [r7, #12]
 10787 0100 1B68     		ldr	r3, [r3]
 10788 0102 9B69     		ldr	r3, [r3, #24]
 10789 0104 BB61     		str	r3, [r7, #24]
 10790 0106 BB69     		ldr	r3, [r7, #24]
 10791 0108 03F48073 		and	r3, r3, #256
 10792 010c 002B     		cmp	r3, #0
 10793 010e 0BD0     		beq	.L751
 10794 0110 3B6A     		ldr	r3, [r7, #32]
 10795 0112 43F00103 		orr	r3, r3, #1
 10796 0116 3B62     		str	r3, [r7, #32]
 10797 0118 FB68     		ldr	r3, [r7, #12]
 10798 011a 1B68     		ldr	r3, [r3]
 10799 011c 4FF48072 		mov	r2, #256
 10800 0120 DA61     		str	r2, [r3, #28]
 10801 0122 0123     		movs	r3, #1
 10802 0124 87F82730 		strb	r3, [r7, #39]
 10803              	.L751:
 10804 0128 BB69     		ldr	r3, [r7, #24]
 10805 012a 03F48063 		and	r3, r3, #1024
 10806 012e 002B     		cmp	r3, #0
 10807 0130 0BD0     		beq	.L752
 10808 0132 3B6A     		ldr	r3, [r7, #32]
 10809 0134 43F00803 		orr	r3, r3, #8
 10810 0138 3B62     		str	r3, [r7, #32]
 10811 013a FB68     		ldr	r3, [r7, #12]
 10812 013c 1B68     		ldr	r3, [r3]
ARM GAS  /var/folders/k1/1yttftd15rl7jxtpyc5m93n80000gn/T//ccqqVpOc.s 			page 188


 10813 013e 4FF48062 		mov	r2, #1024
 10814 0142 DA61     		str	r2, [r3, #28]
 10815 0144 0123     		movs	r3, #1
 10816 0146 87F82730 		strb	r3, [r7, #39]
 10817              	.L752:
 10818 014a BB69     		ldr	r3, [r7, #24]
 10819 014c 03F40073 		and	r3, r3, #512
 10820 0150 002B     		cmp	r3, #0
 10821 0152 0BD0     		beq	.L753
 10822 0154 3B6A     		ldr	r3, [r7, #32]
 10823 0156 43F00203 		orr	r3, r3, #2
 10824 015a 3B62     		str	r3, [r7, #32]
 10825 015c FB68     		ldr	r3, [r7, #12]
 10826 015e 1B68     		ldr	r3, [r3]
 10827 0160 4FF40072 		mov	r2, #512
 10828 0164 DA61     		str	r2, [r3, #28]
 10829 0166 0123     		movs	r3, #1
 10830 0168 87F82730 		strb	r3, [r7, #39]
 10831              	.L753:
 10832 016c 97F82730 		ldrb	r3, [r7, #39]	@ zero_extendqisi2
 10833 0170 002B     		cmp	r3, #0
 10834 0172 1CD0     		beq	.L754
 10835 0174 F868     		ldr	r0, [r7, #12]
 10836 0176 FFF7FEFF 		bl	I2C_Flush_TXDR
 10837 017a FB68     		ldr	r3, [r7, #12]
 10838 017c 1B68     		ldr	r3, [r3]
 10839 017e 5968     		ldr	r1, [r3, #4]
 10840 0180 FB68     		ldr	r3, [r7, #12]
 10841 0182 1A68     		ldr	r2, [r3]
 10842 0184 0D4B     		ldr	r3, .L756
 10843 0186 0B40     		ands	r3, r3, r1
 10844 0188 5360     		str	r3, [r2, #4]
 10845 018a FB68     		ldr	r3, [r7, #12]
 10846 018c 5A6C     		ldr	r2, [r3, #68]
 10847 018e 3B6A     		ldr	r3, [r7, #32]
 10848 0190 1A43     		orrs	r2, r2, r3
 10849 0192 FB68     		ldr	r3, [r7, #12]
 10850 0194 5A64     		str	r2, [r3, #68]
 10851 0196 FB68     		ldr	r3, [r7, #12]
 10852 0198 2022     		movs	r2, #32
 10853 019a 83F84120 		strb	r2, [r3, #65]
 10854 019e FB68     		ldr	r3, [r7, #12]
 10855 01a0 0022     		movs	r2, #0
 10856 01a2 83F84220 		strb	r2, [r3, #66]
 10857 01a6 FB68     		ldr	r3, [r7, #12]
 10858 01a8 0022     		movs	r2, #0
 10859 01aa 83F84020 		strb	r2, [r3, #64]
 10860              	.L754:
 10861 01ae 97F82730 		ldrb	r3, [r7, #39]	@ zero_extendqisi2
 10862 01b2 1846     		mov	r0, r3
 10863 01b4 2837     		adds	r7, r7, #40
 10864 01b6 BD46     		mov	sp, r7
 10865              		@ sp needed
 10866 01b8 80BD     		pop	{r7, pc}
 10867              	.L757:
 10868 01ba 00BF     		.align	2
 10869              	.L756:
ARM GAS  /var/folders/k1/1yttftd15rl7jxtpyc5m93n80000gn/T//ccqqVpOc.s 			page 189


 10870 01bc 00E800FE 		.word	-33495040
 10872              		.section	.text.I2C_TransferConfig,"ax",%progbits
 10873              		.align	1
 10874              		.syntax unified
 10875              		.thumb
 10876              		.thumb_func
 10878              	I2C_TransferConfig:
 10879              		@ args = 4, pretend = 0, frame = 24
 10880              		@ frame_needed = 1, uses_anonymous_args = 0
 10881              		@ link register save eliminated.
 10882 0000 80B4     		push	{r7}
 10883 0002 87B0     		sub	sp, sp, #28
 10884 0004 00AF     		add	r7, sp, #0
 10885 0006 F860     		str	r0, [r7, #12]
 10886 0008 7B60     		str	r3, [r7, #4]
 10887 000a 0B46     		mov	r3, r1	@ movhi
 10888 000c 7B81     		strh	r3, [r7, #10]	@ movhi
 10889 000e 1346     		mov	r3, r2
 10890 0010 7B72     		strb	r3, [r7, #9]
 10891 0012 7B89     		ldrh	r3, [r7, #10]
 10892 0014 C3F30902 		ubfx	r2, r3, #0, #10
 10893 0018 7B7A     		ldrb	r3, [r7, #9]	@ zero_extendqisi2
 10894 001a 1B04     		lsls	r3, r3, #16
 10895 001c 03F47F03 		and	r3, r3, #16711680
 10896 0020 1A43     		orrs	r2, r2, r3
 10897 0022 7B68     		ldr	r3, [r7, #4]
 10898 0024 1A43     		orrs	r2, r2, r3
 10899 0026 3B6A     		ldr	r3, [r7, #32]
 10900 0028 1343     		orrs	r3, r3, r2
 10901 002a 23F00043 		bic	r3, r3, #-2147483648
 10902 002e 7B61     		str	r3, [r7, #20]
 10903 0030 FB68     		ldr	r3, [r7, #12]
 10904 0032 1B68     		ldr	r3, [r3]
 10905 0034 5A68     		ldr	r2, [r3, #4]
 10906 0036 3B6A     		ldr	r3, [r7, #32]
 10907 0038 5B0D     		lsrs	r3, r3, #21
 10908 003a 03F48061 		and	r1, r3, #1024
 10909 003e 084B     		ldr	r3, .L759
 10910 0040 0B43     		orrs	r3, r3, r1
 10911 0042 DB43     		mvns	r3, r3
 10912 0044 02EA0301 		and	r1, r2, r3
 10913 0048 FB68     		ldr	r3, [r7, #12]
 10914 004a 1B68     		ldr	r3, [r3]
 10915 004c 7A69     		ldr	r2, [r7, #20]
 10916 004e 0A43     		orrs	r2, r2, r1
 10917 0050 5A60     		str	r2, [r3, #4]
 10918 0052 00BF     		nop
 10919 0054 1C37     		adds	r7, r7, #28
 10920 0056 BD46     		mov	sp, r7
 10921              		@ sp needed
 10922 0058 5DF8047B 		ldr	r7, [sp], #4
 10923 005c 7047     		bx	lr
 10924              	.L760:
 10925 005e 00BF     		.align	2
 10926              	.L759:
 10927 0060 FF63FF03 		.word	67068927
 10929              		.section	.text.I2C_Enable_IRQ,"ax",%progbits
ARM GAS  /var/folders/k1/1yttftd15rl7jxtpyc5m93n80000gn/T//ccqqVpOc.s 			page 190


 10930              		.align	1
 10931              		.syntax unified
 10932              		.thumb
 10933              		.thumb_func
 10935              	I2C_Enable_IRQ:
 10936              		@ args = 0, pretend = 0, frame = 16
 10937              		@ frame_needed = 1, uses_anonymous_args = 0
 10938              		@ link register save eliminated.
 10939 0000 80B4     		push	{r7}
 10940 0002 85B0     		sub	sp, sp, #20
 10941 0004 00AF     		add	r7, sp, #0
 10942 0006 7860     		str	r0, [r7, #4]
 10943 0008 0B46     		mov	r3, r1
 10944 000a 7B80     		strh	r3, [r7, #2]	@ movhi
 10945 000c 0023     		movs	r3, #0
 10946 000e FB60     		str	r3, [r7, #12]
 10947 0010 7B68     		ldr	r3, [r7, #4]
 10948 0012 5B6B     		ldr	r3, [r3, #52]
 10949 0014 394A     		ldr	r2, .L774
 10950 0016 9342     		cmp	r3, r2
 10951 0018 32D0     		beq	.L762
 10952 001a 7B68     		ldr	r3, [r7, #4]
 10953 001c 5B6B     		ldr	r3, [r3, #52]
 10954 001e 384A     		ldr	r2, .L774+4
 10955 0020 9342     		cmp	r3, r2
 10956 0022 2DD0     		beq	.L762
 10957 0024 7B68     		ldr	r3, [r7, #4]
 10958 0026 5B6B     		ldr	r3, [r3, #52]
 10959 0028 364A     		ldr	r2, .L774+8
 10960 002a 9342     		cmp	r3, r2
 10961 002c 28D0     		beq	.L762
 10962 002e B7F90230 		ldrsh	r3, [r7, #2]
 10963 0032 002B     		cmp	r3, #0
 10964 0034 03DA     		bge	.L763
 10965 0036 FB68     		ldr	r3, [r7, #12]
 10966 0038 43F0B803 		orr	r3, r3, #184
 10967 003c FB60     		str	r3, [r7, #12]
 10968              	.L763:
 10969 003e 7B88     		ldrh	r3, [r7, #2]
 10970 0040 03F00103 		and	r3, r3, #1
 10971 0044 002B     		cmp	r3, #0
 10972 0046 03D0     		beq	.L764
 10973 0048 FB68     		ldr	r3, [r7, #12]
 10974 004a 43F0F203 		orr	r3, r3, #242
 10975 004e FB60     		str	r3, [r7, #12]
 10976              	.L764:
 10977 0050 7B88     		ldrh	r3, [r7, #2]
 10978 0052 03F00203 		and	r3, r3, #2
 10979 0056 002B     		cmp	r3, #0
 10980 0058 03D0     		beq	.L765
 10981 005a FB68     		ldr	r3, [r7, #12]
 10982 005c 43F0F403 		orr	r3, r3, #244
 10983 0060 FB60     		str	r3, [r7, #12]
 10984              	.L765:
 10985 0062 7B88     		ldrh	r3, [r7, #2]
 10986 0064 102B     		cmp	r3, #16
 10987 0066 03D1     		bne	.L766
ARM GAS  /var/folders/k1/1yttftd15rl7jxtpyc5m93n80000gn/T//ccqqVpOc.s 			page 191


 10988 0068 FB68     		ldr	r3, [r7, #12]
 10989 006a 43F09003 		orr	r3, r3, #144
 10990 006e FB60     		str	r3, [r7, #12]
 10991              	.L766:
 10992 0070 7B88     		ldrh	r3, [r7, #2]
 10993 0072 202B     		cmp	r3, #32
 10994 0074 33D1     		bne	.L768
 10995 0076 FB68     		ldr	r3, [r7, #12]
 10996 0078 43F02003 		orr	r3, r3, #32
 10997 007c FB60     		str	r3, [r7, #12]
 10998 007e 2EE0     		b	.L768
 10999              	.L762:
 11000 0080 B7F90230 		ldrsh	r3, [r7, #2]
 11001 0084 002B     		cmp	r3, #0
 11002 0086 03DA     		bge	.L769
 11003 0088 FB68     		ldr	r3, [r7, #12]
 11004 008a 43F0B803 		orr	r3, r3, #184
 11005 008e FB60     		str	r3, [r7, #12]
 11006              	.L769:
 11007 0090 7B88     		ldrh	r3, [r7, #2]
 11008 0092 03F00103 		and	r3, r3, #1
 11009 0096 002B     		cmp	r3, #0
 11010 0098 03D0     		beq	.L770
 11011 009a FB68     		ldr	r3, [r7, #12]
 11012 009c 43F0F203 		orr	r3, r3, #242
 11013 00a0 FB60     		str	r3, [r7, #12]
 11014              	.L770:
 11015 00a2 7B88     		ldrh	r3, [r7, #2]
 11016 00a4 03F00203 		and	r3, r3, #2
 11017 00a8 002B     		cmp	r3, #0
 11018 00aa 03D0     		beq	.L771
 11019 00ac FB68     		ldr	r3, [r7, #12]
 11020 00ae 43F0F403 		orr	r3, r3, #244
 11021 00b2 FB60     		str	r3, [r7, #12]
 11022              	.L771:
 11023 00b4 7B88     		ldrh	r3, [r7, #2]
 11024 00b6 102B     		cmp	r3, #16
 11025 00b8 03D1     		bne	.L772
 11026 00ba FB68     		ldr	r3, [r7, #12]
 11027 00bc 43F09003 		orr	r3, r3, #144
 11028 00c0 FB60     		str	r3, [r7, #12]
 11029              	.L772:
 11030 00c2 7B88     		ldrh	r3, [r7, #2]
 11031 00c4 202B     		cmp	r3, #32
 11032 00c6 03D1     		bne	.L773
 11033 00c8 FB68     		ldr	r3, [r7, #12]
 11034 00ca 43F06003 		orr	r3, r3, #96
 11035 00ce FB60     		str	r3, [r7, #12]
 11036              	.L773:
 11037 00d0 7B88     		ldrh	r3, [r7, #2]
 11038 00d2 402B     		cmp	r3, #64
 11039 00d4 03D1     		bne	.L768
 11040 00d6 FB68     		ldr	r3, [r7, #12]
 11041 00d8 43F04003 		orr	r3, r3, #64
 11042 00dc FB60     		str	r3, [r7, #12]
 11043              	.L768:
 11044 00de 7B68     		ldr	r3, [r7, #4]
ARM GAS  /var/folders/k1/1yttftd15rl7jxtpyc5m93n80000gn/T//ccqqVpOc.s 			page 192


 11045 00e0 1B68     		ldr	r3, [r3]
 11046 00e2 1968     		ldr	r1, [r3]
 11047 00e4 7B68     		ldr	r3, [r7, #4]
 11048 00e6 1B68     		ldr	r3, [r3]
 11049 00e8 FA68     		ldr	r2, [r7, #12]
 11050 00ea 0A43     		orrs	r2, r2, r1
 11051 00ec 1A60     		str	r2, [r3]
 11052 00ee 00BF     		nop
 11053 00f0 1437     		adds	r7, r7, #20
 11054 00f2 BD46     		mov	sp, r7
 11055              		@ sp needed
 11056 00f4 5DF8047B 		ldr	r7, [sp], #4
 11057 00f8 7047     		bx	lr
 11058              	.L775:
 11059 00fa 00BF     		.align	2
 11060              	.L774:
 11061 00fc 00000000 		.word	I2C_Master_ISR_DMA
 11062 0100 00000000 		.word	I2C_Slave_ISR_DMA
 11063 0104 00000000 		.word	I2C_Mem_ISR_DMA
 11065              		.section	.text.I2C_Disable_IRQ,"ax",%progbits
 11066              		.align	1
 11067              		.syntax unified
 11068              		.thumb
 11069              		.thumb_func
 11071              	I2C_Disable_IRQ:
 11072              		@ args = 0, pretend = 0, frame = 16
 11073              		@ frame_needed = 1, uses_anonymous_args = 0
 11074              		@ link register save eliminated.
 11075 0000 80B4     		push	{r7}
 11076 0002 85B0     		sub	sp, sp, #20
 11077 0004 00AF     		add	r7, sp, #0
 11078 0006 7860     		str	r0, [r7, #4]
 11079 0008 0B46     		mov	r3, r1
 11080 000a 7B80     		strh	r3, [r7, #2]	@ movhi
 11081 000c 0023     		movs	r3, #0
 11082 000e FB60     		str	r3, [r7, #12]
 11083 0010 7B88     		ldrh	r3, [r7, #2]
 11084 0012 03F00103 		and	r3, r3, #1
 11085 0016 002B     		cmp	r3, #0
 11086 0018 0FD0     		beq	.L777
 11087 001a FB68     		ldr	r3, [r7, #12]
 11088 001c 43F04203 		orr	r3, r3, #66
 11089 0020 FB60     		str	r3, [r7, #12]
 11090 0022 7B68     		ldr	r3, [r7, #4]
 11091 0024 93F84130 		ldrb	r3, [r3, #65]
 11092 0028 DBB2     		uxtb	r3, r3
 11093 002a 03F02803 		and	r3, r3, #40
 11094 002e 282B     		cmp	r3, #40
 11095 0030 03D0     		beq	.L777
 11096 0032 FB68     		ldr	r3, [r7, #12]
 11097 0034 43F0B003 		orr	r3, r3, #176
 11098 0038 FB60     		str	r3, [r7, #12]
 11099              	.L777:
 11100 003a 7B88     		ldrh	r3, [r7, #2]
 11101 003c 03F00203 		and	r3, r3, #2
 11102 0040 002B     		cmp	r3, #0
 11103 0042 0FD0     		beq	.L778
ARM GAS  /var/folders/k1/1yttftd15rl7jxtpyc5m93n80000gn/T//ccqqVpOc.s 			page 193


 11104 0044 FB68     		ldr	r3, [r7, #12]
 11105 0046 43F04403 		orr	r3, r3, #68
 11106 004a FB60     		str	r3, [r7, #12]
 11107 004c 7B68     		ldr	r3, [r7, #4]
 11108 004e 93F84130 		ldrb	r3, [r3, #65]
 11109 0052 DBB2     		uxtb	r3, r3
 11110 0054 03F02803 		and	r3, r3, #40
 11111 0058 282B     		cmp	r3, #40
 11112 005a 03D0     		beq	.L778
 11113 005c FB68     		ldr	r3, [r7, #12]
 11114 005e 43F0B003 		orr	r3, r3, #176
 11115 0062 FB60     		str	r3, [r7, #12]
 11116              	.L778:
 11117 0064 B7F90230 		ldrsh	r3, [r7, #2]
 11118 0068 002B     		cmp	r3, #0
 11119 006a 03DA     		bge	.L779
 11120 006c FB68     		ldr	r3, [r7, #12]
 11121 006e 43F0B803 		orr	r3, r3, #184
 11122 0072 FB60     		str	r3, [r7, #12]
 11123              	.L779:
 11124 0074 7B88     		ldrh	r3, [r7, #2]
 11125 0076 102B     		cmp	r3, #16
 11126 0078 03D1     		bne	.L780
 11127 007a FB68     		ldr	r3, [r7, #12]
 11128 007c 43F09003 		orr	r3, r3, #144
 11129 0080 FB60     		str	r3, [r7, #12]
 11130              	.L780:
 11131 0082 7B88     		ldrh	r3, [r7, #2]
 11132 0084 202B     		cmp	r3, #32
 11133 0086 03D1     		bne	.L781
 11134 0088 FB68     		ldr	r3, [r7, #12]
 11135 008a 43F02003 		orr	r3, r3, #32
 11136 008e FB60     		str	r3, [r7, #12]
 11137              	.L781:
 11138 0090 7B88     		ldrh	r3, [r7, #2]
 11139 0092 402B     		cmp	r3, #64
 11140 0094 03D1     		bne	.L782
 11141 0096 FB68     		ldr	r3, [r7, #12]
 11142 0098 43F04003 		orr	r3, r3, #64
 11143 009c FB60     		str	r3, [r7, #12]
 11144              	.L782:
 11145 009e 7B68     		ldr	r3, [r7, #4]
 11146 00a0 1B68     		ldr	r3, [r3]
 11147 00a2 1968     		ldr	r1, [r3]
 11148 00a4 FB68     		ldr	r3, [r7, #12]
 11149 00a6 DA43     		mvns	r2, r3
 11150 00a8 7B68     		ldr	r3, [r7, #4]
 11151 00aa 1B68     		ldr	r3, [r3]
 11152 00ac 0A40     		ands	r2, r2, r1
 11153 00ae 1A60     		str	r2, [r3]
 11154 00b0 00BF     		nop
 11155 00b2 1437     		adds	r7, r7, #20
 11156 00b4 BD46     		mov	sp, r7
 11157              		@ sp needed
 11158 00b6 5DF8047B 		ldr	r7, [sp], #4
 11159 00ba 7047     		bx	lr
 11161              		.section	.text.I2C_ConvertOtherXferOptions,"ax",%progbits
ARM GAS  /var/folders/k1/1yttftd15rl7jxtpyc5m93n80000gn/T//ccqqVpOc.s 			page 194


 11162              		.align	1
 11163              		.syntax unified
 11164              		.thumb
 11165              		.thumb_func
 11167              	I2C_ConvertOtherXferOptions:
 11168              		@ args = 0, pretend = 0, frame = 8
 11169              		@ frame_needed = 1, uses_anonymous_args = 0
 11170              		@ link register save eliminated.
 11171 0000 80B4     		push	{r7}
 11172 0002 83B0     		sub	sp, sp, #12
 11173 0004 00AF     		add	r7, sp, #0
 11174 0006 7860     		str	r0, [r7, #4]
 11175 0008 7B68     		ldr	r3, [r7, #4]
 11176 000a DB6A     		ldr	r3, [r3, #44]
 11177 000c AA2B     		cmp	r3, #170
 11178 000e 03D1     		bne	.L784
 11179 0010 7B68     		ldr	r3, [r7, #4]
 11180 0012 0022     		movs	r2, #0
 11181 0014 DA62     		str	r2, [r3, #44]
 11182 0016 08E0     		b	.L786
 11183              	.L784:
 11184 0018 7B68     		ldr	r3, [r7, #4]
 11185 001a DB6A     		ldr	r3, [r3, #44]
 11186 001c B3F52A4F 		cmp	r3, #43520
 11187 0020 03D1     		bne	.L786
 11188 0022 7B68     		ldr	r3, [r7, #4]
 11189 0024 4FF00072 		mov	r2, #33554432
 11190 0028 DA62     		str	r2, [r3, #44]
 11191              	.L786:
 11192 002a 00BF     		nop
 11193 002c 0C37     		adds	r7, r7, #12
 11194 002e BD46     		mov	sp, r7
 11195              		@ sp needed
 11196 0030 5DF8047B 		ldr	r7, [sp], #4
 11197 0034 7047     		bx	lr
 11199              		.ident	"GCC: (GNU Tools for STM32 14.3.rel1.20251027-0700) 14.3.1 20250623"
ARM GAS  /var/folders/k1/1yttftd15rl7jxtpyc5m93n80000gn/T//ccqqVpOc.s 			page 195


DEFINED SYMBOLS
                            *ABS*:00000000 stm32g4xx_hal_i2c.c
/var/folders/k1/1yttftd15rl7jxtpyc5m93n80000gn/T//ccqqVpOc.s:18     .text.HAL_I2C_Init:00000000 $t
/var/folders/k1/1yttftd15rl7jxtpyc5m93n80000gn/T//ccqqVpOc.s:24     .text.HAL_I2C_Init:00000000 HAL_I2C_Init
/var/folders/k1/1yttftd15rl7jxtpyc5m93n80000gn/T//ccqqVpOc.s:235    .text.HAL_I2C_MspInit:00000000 HAL_I2C_MspInit
/var/folders/k1/1yttftd15rl7jxtpyc5m93n80000gn/T//ccqqVpOc.s:174    .text.HAL_I2C_DeInit:00000000 $t
/var/folders/k1/1yttftd15rl7jxtpyc5m93n80000gn/T//ccqqVpOc.s:180    .text.HAL_I2C_DeInit:00000000 HAL_I2C_DeInit
/var/folders/k1/1yttftd15rl7jxtpyc5m93n80000gn/T//ccqqVpOc.s:257    .text.HAL_I2C_MspDeInit:00000000 HAL_I2C_MspDeInit
/var/folders/k1/1yttftd15rl7jxtpyc5m93n80000gn/T//ccqqVpOc.s:229    .text.HAL_I2C_MspInit:00000000 $t
/var/folders/k1/1yttftd15rl7jxtpyc5m93n80000gn/T//ccqqVpOc.s:251    .text.HAL_I2C_MspDeInit:00000000 $t
/var/folders/k1/1yttftd15rl7jxtpyc5m93n80000gn/T//ccqqVpOc.s:273    .text.HAL_I2C_Master_Transmit:00000000 $t
/var/folders/k1/1yttftd15rl7jxtpyc5m93n80000gn/T//ccqqVpOc.s:279    .text.HAL_I2C_Master_Transmit:00000000 HAL_I2C_Master_Transmit
/var/folders/k1/1yttftd15rl7jxtpyc5m93n80000gn/T//ccqqVpOc.s:10269  .text.I2C_WaitOnFlagUntilTimeout:00000000 I2C_WaitOnFlagUntilTimeout
/var/folders/k1/1yttftd15rl7jxtpyc5m93n80000gn/T//ccqqVpOc.s:10878  .text.I2C_TransferConfig:00000000 I2C_TransferConfig
/var/folders/k1/1yttftd15rl7jxtpyc5m93n80000gn/T//ccqqVpOc.s:10367  .text.I2C_WaitOnTXISFlagUntilTimeout:00000000 I2C_WaitOnTXISFlagUntilTimeout
/var/folders/k1/1yttftd15rl7jxtpyc5m93n80000gn/T//ccqqVpOc.s:10445  .text.I2C_WaitOnSTOPFlagUntilTimeout:00000000 I2C_WaitOnSTOPFlagUntilTimeout
/var/folders/k1/1yttftd15rl7jxtpyc5m93n80000gn/T//ccqqVpOc.s:551    .text.HAL_I2C_Master_Transmit:00000228 $d
/var/folders/k1/1yttftd15rl7jxtpyc5m93n80000gn/T//ccqqVpOc.s:555    .text.HAL_I2C_Master_Receive:00000000 $t
/var/folders/k1/1yttftd15rl7jxtpyc5m93n80000gn/T//ccqqVpOc.s:561    .text.HAL_I2C_Master_Receive:00000000 HAL_I2C_Master_Receive
/var/folders/k1/1yttftd15rl7jxtpyc5m93n80000gn/T//ccqqVpOc.s:10520  .text.I2C_WaitOnRXNEFlagUntilTimeout:00000000 I2C_WaitOnRXNEFlagUntilTimeout
/var/folders/k1/1yttftd15rl7jxtpyc5m93n80000gn/T//ccqqVpOc.s:797    .text.HAL_I2C_Master_Receive:000001e4 $d
/var/folders/k1/1yttftd15rl7jxtpyc5m93n80000gn/T//ccqqVpOc.s:801    .text.HAL_I2C_Slave_Transmit:00000000 $t
/var/folders/k1/1yttftd15rl7jxtpyc5m93n80000gn/T//ccqqVpOc.s:807    .text.HAL_I2C_Slave_Transmit:00000000 HAL_I2C_Slave_Transmit
/var/folders/k1/1yttftd15rl7jxtpyc5m93n80000gn/T//ccqqVpOc.s:9891   .text.I2C_Flush_TXDR:00000000 I2C_Flush_TXDR
/var/folders/k1/1yttftd15rl7jxtpyc5m93n80000gn/T//ccqqVpOc.s:1129   .text.HAL_I2C_Slave_Receive:00000000 $t
/var/folders/k1/1yttftd15rl7jxtpyc5m93n80000gn/T//ccqqVpOc.s:1135   .text.HAL_I2C_Slave_Receive:00000000 HAL_I2C_Slave_Receive
/var/folders/k1/1yttftd15rl7jxtpyc5m93n80000gn/T//ccqqVpOc.s:1399   .text.HAL_I2C_Master_Transmit_IT:00000000 $t
/var/folders/k1/1yttftd15rl7jxtpyc5m93n80000gn/T//ccqqVpOc.s:1405   .text.HAL_I2C_Master_Transmit_IT:00000000 HAL_I2C_Master_Transmit_IT
/var/folders/k1/1yttftd15rl7jxtpyc5m93n80000gn/T//ccqqVpOc.s:10935  .text.I2C_Enable_IRQ:00000000 I2C_Enable_IRQ
/var/folders/k1/1yttftd15rl7jxtpyc5m93n80000gn/T//ccqqVpOc.s:1553   .text.HAL_I2C_Master_Transmit_IT:00000124 $d
/var/folders/k1/1yttftd15rl7jxtpyc5m93n80000gn/T//ccqqVpOc.s:6883   .text.I2C_Master_ISR_IT:00000000 I2C_Master_ISR_IT
/var/folders/k1/1yttftd15rl7jxtpyc5m93n80000gn/T//ccqqVpOc.s:1558   .text.HAL_I2C_Master_Receive_IT:00000000 $t
/var/folders/k1/1yttftd15rl7jxtpyc5m93n80000gn/T//ccqqVpOc.s:1564   .text.HAL_I2C_Master_Receive_IT:00000000 HAL_I2C_Master_Receive_IT
/var/folders/k1/1yttftd15rl7jxtpyc5m93n80000gn/T//ccqqVpOc.s:1670   .text.HAL_I2C_Master_Receive_IT:000000d4 $d
/var/folders/k1/1yttftd15rl7jxtpyc5m93n80000gn/T//ccqqVpOc.s:1675   .text.HAL_I2C_Slave_Transmit_IT:00000000 $t
/var/folders/k1/1yttftd15rl7jxtpyc5m93n80000gn/T//ccqqVpOc.s:1681   .text.HAL_I2C_Slave_Transmit_IT:00000000 HAL_I2C_Slave_Transmit_IT
/var/folders/k1/1yttftd15rl7jxtpyc5m93n80000gn/T//ccqqVpOc.s:1787   .text.HAL_I2C_Slave_Transmit_IT:000000d4 $d
/var/folders/k1/1yttftd15rl7jxtpyc5m93n80000gn/T//ccqqVpOc.s:7478   .text.I2C_Slave_ISR_IT:00000000 I2C_Slave_ISR_IT
/var/folders/k1/1yttftd15rl7jxtpyc5m93n80000gn/T//ccqqVpOc.s:1791   .text.HAL_I2C_Slave_Receive_IT:00000000 $t
/var/folders/k1/1yttftd15rl7jxtpyc5m93n80000gn/T//ccqqVpOc.s:1797   .text.HAL_I2C_Slave_Receive_IT:00000000 HAL_I2C_Slave_Receive_IT
/var/folders/k1/1yttftd15rl7jxtpyc5m93n80000gn/T//ccqqVpOc.s:1874   .text.HAL_I2C_Slave_Receive_IT:00000098 $d
/var/folders/k1/1yttftd15rl7jxtpyc5m93n80000gn/T//ccqqVpOc.s:1878   .text.HAL_I2C_Master_Transmit_DMA:00000000 $t
/var/folders/k1/1yttftd15rl7jxtpyc5m93n80000gn/T//ccqqVpOc.s:1884   .text.HAL_I2C_Master_Transmit_DMA:00000000 HAL_I2C_Master_Transmit_DMA
/var/folders/k1/1yttftd15rl7jxtpyc5m93n80000gn/T//ccqqVpOc.s:2139   .text.HAL_I2C_Master_Transmit_DMA:00000210 $d
/var/folders/k1/1yttftd15rl7jxtpyc5m93n80000gn/T//ccqqVpOc.s:7736   .text.I2C_Master_ISR_DMA:00000000 I2C_Master_ISR_DMA
/var/folders/k1/1yttftd15rl7jxtpyc5m93n80000gn/T//ccqqVpOc.s:9937   .text.I2C_DMAMasterTransmitCplt:00000000 I2C_DMAMasterTransmitCplt
/var/folders/k1/1yttftd15rl7jxtpyc5m93n80000gn/T//ccqqVpOc.s:10195  .text.I2C_DMAError:00000000 I2C_DMAError
/var/folders/k1/1yttftd15rl7jxtpyc5m93n80000gn/T//ccqqVpOc.s:2147   .text.HAL_I2C_Master_Receive_DMA:00000000 $t
/var/folders/k1/1yttftd15rl7jxtpyc5m93n80000gn/T//ccqqVpOc.s:2153   .text.HAL_I2C_Master_Receive_DMA:00000000 HAL_I2C_Master_Receive_DMA
/var/folders/k1/1yttftd15rl7jxtpyc5m93n80000gn/T//ccqqVpOc.s:2371   .text.HAL_I2C_Master_Receive_DMA:000001c8 $d
/var/folders/k1/1yttftd15rl7jxtpyc5m93n80000gn/T//ccqqVpOc.s:10065  .text.I2C_DMAMasterReceiveCplt:00000000 I2C_DMAMasterReceiveCplt
/var/folders/k1/1yttftd15rl7jxtpyc5m93n80000gn/T//ccqqVpOc.s:2379   .text.HAL_I2C_Slave_Transmit_DMA:00000000 $t
/var/folders/k1/1yttftd15rl7jxtpyc5m93n80000gn/T//ccqqVpOc.s:2385   .text.HAL_I2C_Slave_Transmit_DMA:00000000 HAL_I2C_Slave_Transmit_DMA
/var/folders/k1/1yttftd15rl7jxtpyc5m93n80000gn/T//ccqqVpOc.s:2605   .text.HAL_I2C_Slave_Transmit_DMA:000001c8 $d
/var/folders/k1/1yttftd15rl7jxtpyc5m93n80000gn/T//ccqqVpOc.s:8264   .text.I2C_Slave_ISR_DMA:00000000 I2C_Slave_ISR_DMA
/var/folders/k1/1yttftd15rl7jxtpyc5m93n80000gn/T//ccqqVpOc.s:10023  .text.I2C_DMASlaveTransmitCplt:00000000 I2C_DMASlaveTransmitCplt
/var/folders/k1/1yttftd15rl7jxtpyc5m93n80000gn/T//ccqqVpOc.s:2611   .text.HAL_I2C_Slave_Receive_DMA:00000000 $t
ARM GAS  /var/folders/k1/1yttftd15rl7jxtpyc5m93n80000gn/T//ccqqVpOc.s 			page 196


/var/folders/k1/1yttftd15rl7jxtpyc5m93n80000gn/T//ccqqVpOc.s:2617   .text.HAL_I2C_Slave_Receive_DMA:00000000 HAL_I2C_Slave_Receive_DMA
/var/folders/k1/1yttftd15rl7jxtpyc5m93n80000gn/T//ccqqVpOc.s:2785   .text.HAL_I2C_Slave_Receive_DMA:0000015c $d
/var/folders/k1/1yttftd15rl7jxtpyc5m93n80000gn/T//ccqqVpOc.s:10151  .text.I2C_DMASlaveReceiveCplt:00000000 I2C_DMASlaveReceiveCplt
/var/folders/k1/1yttftd15rl7jxtpyc5m93n80000gn/T//ccqqVpOc.s:2791   .text.HAL_I2C_Mem_Write:00000000 $t
/var/folders/k1/1yttftd15rl7jxtpyc5m93n80000gn/T//ccqqVpOc.s:2797   .text.HAL_I2C_Mem_Write:00000000 HAL_I2C_Mem_Write
/var/folders/k1/1yttftd15rl7jxtpyc5m93n80000gn/T//ccqqVpOc.s:8491   .text.I2C_RequestMemoryWrite:00000000 I2C_RequestMemoryWrite
/var/folders/k1/1yttftd15rl7jxtpyc5m93n80000gn/T//ccqqVpOc.s:3066   .text.HAL_I2C_Mem_Write:00000224 $d
/var/folders/k1/1yttftd15rl7jxtpyc5m93n80000gn/T//ccqqVpOc.s:3069   .text.HAL_I2C_Mem_Read:00000000 $t
/var/folders/k1/1yttftd15rl7jxtpyc5m93n80000gn/T//ccqqVpOc.s:3075   .text.HAL_I2C_Mem_Read:00000000 HAL_I2C_Mem_Read
/var/folders/k1/1yttftd15rl7jxtpyc5m93n80000gn/T//ccqqVpOc.s:8589   .text.I2C_RequestMemoryRead:00000000 I2C_RequestMemoryRead
/var/folders/k1/1yttftd15rl7jxtpyc5m93n80000gn/T//ccqqVpOc.s:3348   .text.HAL_I2C_Mem_Read:0000022c $d
/var/folders/k1/1yttftd15rl7jxtpyc5m93n80000gn/T//ccqqVpOc.s:3352   .text.HAL_I2C_Mem_Write_IT:00000000 $t
/var/folders/k1/1yttftd15rl7jxtpyc5m93n80000gn/T//ccqqVpOc.s:3358   .text.HAL_I2C_Mem_Write_IT:00000000 HAL_I2C_Mem_Write_IT
/var/folders/k1/1yttftd15rl7jxtpyc5m93n80000gn/T//ccqqVpOc.s:3491   .text.HAL_I2C_Mem_Write_IT:00000108 $d
/var/folders/k1/1yttftd15rl7jxtpyc5m93n80000gn/T//ccqqVpOc.s:7179   .text.I2C_Mem_ISR_IT:00000000 I2C_Mem_ISR_IT
/var/folders/k1/1yttftd15rl7jxtpyc5m93n80000gn/T//ccqqVpOc.s:3496   .text.HAL_I2C_Mem_Read_IT:00000000 $t
/var/folders/k1/1yttftd15rl7jxtpyc5m93n80000gn/T//ccqqVpOc.s:3502   .text.HAL_I2C_Mem_Read_IT:00000000 HAL_I2C_Mem_Read_IT
/var/folders/k1/1yttftd15rl7jxtpyc5m93n80000gn/T//ccqqVpOc.s:3632   .text.HAL_I2C_Mem_Read_IT:00000100 $d
/var/folders/k1/1yttftd15rl7jxtpyc5m93n80000gn/T//ccqqVpOc.s:3637   .text.HAL_I2C_Mem_Write_DMA:00000000 $t
/var/folders/k1/1yttftd15rl7jxtpyc5m93n80000gn/T//ccqqVpOc.s:3643   .text.HAL_I2C_Mem_Write_DMA:00000000 HAL_I2C_Mem_Write_DMA
/var/folders/k1/1yttftd15rl7jxtpyc5m93n80000gn/T//ccqqVpOc.s:3860   .text.HAL_I2C_Mem_Write_DMA:000001b8 $d
/var/folders/k1/1yttftd15rl7jxtpyc5m93n80000gn/T//ccqqVpOc.s:7971   .text.I2C_Mem_ISR_DMA:00000000 I2C_Mem_ISR_DMA
/var/folders/k1/1yttftd15rl7jxtpyc5m93n80000gn/T//ccqqVpOc.s:3867   .text.HAL_I2C_Mem_Read_DMA:00000000 $t
/var/folders/k1/1yttftd15rl7jxtpyc5m93n80000gn/T//ccqqVpOc.s:3873   .text.HAL_I2C_Mem_Read_DMA:00000000 HAL_I2C_Mem_Read_DMA
/var/folders/k1/1yttftd15rl7jxtpyc5m93n80000gn/T//ccqqVpOc.s:4090   .text.HAL_I2C_Mem_Read_DMA:000001b8 $d
/var/folders/k1/1yttftd15rl7jxtpyc5m93n80000gn/T//ccqqVpOc.s:4097   .text.HAL_I2C_IsDeviceReady:00000000 $t
/var/folders/k1/1yttftd15rl7jxtpyc5m93n80000gn/T//ccqqVpOc.s:4103   .text.HAL_I2C_IsDeviceReady:00000000 HAL_I2C_IsDeviceReady
/var/folders/k1/1yttftd15rl7jxtpyc5m93n80000gn/T//ccqqVpOc.s:4336   .text.HAL_I2C_Master_Seq_Transmit_IT:00000000 $t
/var/folders/k1/1yttftd15rl7jxtpyc5m93n80000gn/T//ccqqVpOc.s:4342   .text.HAL_I2C_Master_Seq_Transmit_IT:00000000 HAL_I2C_Master_Seq_Transmit_IT
/var/folders/k1/1yttftd15rl7jxtpyc5m93n80000gn/T//ccqqVpOc.s:11167  .text.I2C_ConvertOtherXferOptions:00000000 I2C_ConvertOtherXferOptions
/var/folders/k1/1yttftd15rl7jxtpyc5m93n80000gn/T//ccqqVpOc.s:4534   .text.HAL_I2C_Master_Seq_Transmit_IT:00000174 $d
/var/folders/k1/1yttftd15rl7jxtpyc5m93n80000gn/T//ccqqVpOc.s:4538   .text.HAL_I2C_Master_Seq_Transmit_DMA:00000000 $t
/var/folders/k1/1yttftd15rl7jxtpyc5m93n80000gn/T//ccqqVpOc.s:4544   .text.HAL_I2C_Master_Seq_Transmit_DMA:00000000 HAL_I2C_Master_Seq_Transmit_DMA
/var/folders/k1/1yttftd15rl7jxtpyc5m93n80000gn/T//ccqqVpOc.s:4840   .text.HAL_I2C_Master_Seq_Transmit_DMA:00000258 $d
/var/folders/k1/1yttftd15rl7jxtpyc5m93n80000gn/T//ccqqVpOc.s:4846   .text.HAL_I2C_Master_Seq_Transmit_DMA:0000026c $t
/var/folders/k1/1yttftd15rl7jxtpyc5m93n80000gn/T//ccqqVpOc.s:4875   .text.HAL_I2C_Master_Seq_Receive_IT:00000000 $t
/var/folders/k1/1yttftd15rl7jxtpyc5m93n80000gn/T//ccqqVpOc.s:4881   .text.HAL_I2C_Master_Seq_Receive_IT:00000000 HAL_I2C_Master_Seq_Receive_IT
/var/folders/k1/1yttftd15rl7jxtpyc5m93n80000gn/T//ccqqVpOc.s:5014   .text.HAL_I2C_Master_Seq_Receive_IT:00000100 $d
/var/folders/k1/1yttftd15rl7jxtpyc5m93n80000gn/T//ccqqVpOc.s:5018   .text.HAL_I2C_Master_Seq_Receive_DMA:00000000 $t
/var/folders/k1/1yttftd15rl7jxtpyc5m93n80000gn/T//ccqqVpOc.s:5024   .text.HAL_I2C_Master_Seq_Receive_DMA:00000000 HAL_I2C_Master_Seq_Receive_DMA
/var/folders/k1/1yttftd15rl7jxtpyc5m93n80000gn/T//ccqqVpOc.s:5269   .text.HAL_I2C_Master_Seq_Receive_DMA:000001f4 $d
/var/folders/k1/1yttftd15rl7jxtpyc5m93n80000gn/T//ccqqVpOc.s:5276   .text.HAL_I2C_Slave_Seq_Transmit_IT:00000000 $t
/var/folders/k1/1yttftd15rl7jxtpyc5m93n80000gn/T//ccqqVpOc.s:5282   .text.HAL_I2C_Slave_Seq_Transmit_IT:00000000 HAL_I2C_Slave_Seq_Transmit_IT
/var/folders/k1/1yttftd15rl7jxtpyc5m93n80000gn/T//ccqqVpOc.s:11071  .text.I2C_Disable_IRQ:00000000 I2C_Disable_IRQ
/var/folders/k1/1yttftd15rl7jxtpyc5m93n80000gn/T//ccqqVpOc.s:5448   .text.HAL_I2C_Slave_Seq_Transmit_IT:0000015c $d
/var/folders/k1/1yttftd15rl7jxtpyc5m93n80000gn/T//ccqqVpOc.s:10227  .text.I2C_DMAAbort:00000000 I2C_DMAAbort
/var/folders/k1/1yttftd15rl7jxtpyc5m93n80000gn/T//ccqqVpOc.s:5452   .text.HAL_I2C_Slave_Seq_Transmit_DMA:00000000 $t
/var/folders/k1/1yttftd15rl7jxtpyc5m93n80000gn/T//ccqqVpOc.s:5458   .text.HAL_I2C_Slave_Seq_Transmit_DMA:00000000 HAL_I2C_Slave_Seq_Transmit_DMA
/var/folders/k1/1yttftd15rl7jxtpyc5m93n80000gn/T//ccqqVpOc.s:5758   .text.HAL_I2C_Slave_Seq_Transmit_DMA:0000027c $d
/var/folders/k1/1yttftd15rl7jxtpyc5m93n80000gn/T//ccqqVpOc.s:5764   .text.HAL_I2C_Slave_Seq_Receive_IT:00000000 $t
/var/folders/k1/1yttftd15rl7jxtpyc5m93n80000gn/T//ccqqVpOc.s:5770   .text.HAL_I2C_Slave_Seq_Receive_IT:00000000 HAL_I2C_Slave_Seq_Receive_IT
/var/folders/k1/1yttftd15rl7jxtpyc5m93n80000gn/T//ccqqVpOc.s:5936   .text.HAL_I2C_Slave_Seq_Receive_IT:0000015c $d
/var/folders/k1/1yttftd15rl7jxtpyc5m93n80000gn/T//ccqqVpOc.s:5940   .text.HAL_I2C_Slave_Seq_Receive_DMA:00000000 $t
/var/folders/k1/1yttftd15rl7jxtpyc5m93n80000gn/T//ccqqVpOc.s:5946   .text.HAL_I2C_Slave_Seq_Receive_DMA:00000000 HAL_I2C_Slave_Seq_Receive_DMA
/var/folders/k1/1yttftd15rl7jxtpyc5m93n80000gn/T//ccqqVpOc.s:6246   .text.HAL_I2C_Slave_Seq_Receive_DMA:0000027c $d
/var/folders/k1/1yttftd15rl7jxtpyc5m93n80000gn/T//ccqqVpOc.s:6252   .text.HAL_I2C_EnableListen_IT:00000000 $t
/var/folders/k1/1yttftd15rl7jxtpyc5m93n80000gn/T//ccqqVpOc.s:6258   .text.HAL_I2C_EnableListen_IT:00000000 HAL_I2C_EnableListen_IT
ARM GAS  /var/folders/k1/1yttftd15rl7jxtpyc5m93n80000gn/T//ccqqVpOc.s 			page 197


/var/folders/k1/1yttftd15rl7jxtpyc5m93n80000gn/T//ccqqVpOc.s:6292   .text.HAL_I2C_EnableListen_IT:0000003c $d
/var/folders/k1/1yttftd15rl7jxtpyc5m93n80000gn/T//ccqqVpOc.s:6295   .text.HAL_I2C_DisableListen_IT:00000000 $t
/var/folders/k1/1yttftd15rl7jxtpyc5m93n80000gn/T//ccqqVpOc.s:6301   .text.HAL_I2C_DisableListen_IT:00000000 HAL_I2C_DisableListen_IT
/var/folders/k1/1yttftd15rl7jxtpyc5m93n80000gn/T//ccqqVpOc.s:6350   .text.HAL_I2C_Master_Abort_IT:00000000 $t
/var/folders/k1/1yttftd15rl7jxtpyc5m93n80000gn/T//ccqqVpOc.s:6356   .text.HAL_I2C_Master_Abort_IT:00000000 HAL_I2C_Master_Abort_IT
/var/folders/k1/1yttftd15rl7jxtpyc5m93n80000gn/T//ccqqVpOc.s:6439   .text.HAL_I2C_Master_Abort_IT:000000a4 $d
/var/folders/k1/1yttftd15rl7jxtpyc5m93n80000gn/T//ccqqVpOc.s:6442   .text.HAL_I2C_EV_IRQHandler:00000000 $t
/var/folders/k1/1yttftd15rl7jxtpyc5m93n80000gn/T//ccqqVpOc.s:6448   .text.HAL_I2C_EV_IRQHandler:00000000 HAL_I2C_EV_IRQHandler
/var/folders/k1/1yttftd15rl7jxtpyc5m93n80000gn/T//ccqqVpOc.s:6481   .text.HAL_I2C_ER_IRQHandler:00000000 $t
/var/folders/k1/1yttftd15rl7jxtpyc5m93n80000gn/T//ccqqVpOc.s:6487   .text.HAL_I2C_ER_IRQHandler:00000000 HAL_I2C_ER_IRQHandler
/var/folders/k1/1yttftd15rl7jxtpyc5m93n80000gn/T//ccqqVpOc.s:9606   .text.I2C_ITError:00000000 I2C_ITError
/var/folders/k1/1yttftd15rl7jxtpyc5m93n80000gn/T//ccqqVpOc.s:6580   .text.HAL_I2C_MasterTxCpltCallback:00000000 $t
/var/folders/k1/1yttftd15rl7jxtpyc5m93n80000gn/T//ccqqVpOc.s:6586   .text.HAL_I2C_MasterTxCpltCallback:00000000 HAL_I2C_MasterTxCpltCallback
/var/folders/k1/1yttftd15rl7jxtpyc5m93n80000gn/T//ccqqVpOc.s:6602   .text.HAL_I2C_MasterRxCpltCallback:00000000 $t
/var/folders/k1/1yttftd15rl7jxtpyc5m93n80000gn/T//ccqqVpOc.s:6608   .text.HAL_I2C_MasterRxCpltCallback:00000000 HAL_I2C_MasterRxCpltCallback
/var/folders/k1/1yttftd15rl7jxtpyc5m93n80000gn/T//ccqqVpOc.s:6624   .text.HAL_I2C_SlaveTxCpltCallback:00000000 $t
/var/folders/k1/1yttftd15rl7jxtpyc5m93n80000gn/T//ccqqVpOc.s:6630   .text.HAL_I2C_SlaveTxCpltCallback:00000000 HAL_I2C_SlaveTxCpltCallback
/var/folders/k1/1yttftd15rl7jxtpyc5m93n80000gn/T//ccqqVpOc.s:6646   .text.HAL_I2C_SlaveRxCpltCallback:00000000 $t
/var/folders/k1/1yttftd15rl7jxtpyc5m93n80000gn/T//ccqqVpOc.s:6652   .text.HAL_I2C_SlaveRxCpltCallback:00000000 HAL_I2C_SlaveRxCpltCallback
/var/folders/k1/1yttftd15rl7jxtpyc5m93n80000gn/T//ccqqVpOc.s:6668   .text.HAL_I2C_AddrCallback:00000000 $t
/var/folders/k1/1yttftd15rl7jxtpyc5m93n80000gn/T//ccqqVpOc.s:6674   .text.HAL_I2C_AddrCallback:00000000 HAL_I2C_AddrCallback
/var/folders/k1/1yttftd15rl7jxtpyc5m93n80000gn/T//ccqqVpOc.s:6694   .text.HAL_I2C_ListenCpltCallback:00000000 $t
/var/folders/k1/1yttftd15rl7jxtpyc5m93n80000gn/T//ccqqVpOc.s:6700   .text.HAL_I2C_ListenCpltCallback:00000000 HAL_I2C_ListenCpltCallback
/var/folders/k1/1yttftd15rl7jxtpyc5m93n80000gn/T//ccqqVpOc.s:6716   .text.HAL_I2C_MemTxCpltCallback:00000000 $t
/var/folders/k1/1yttftd15rl7jxtpyc5m93n80000gn/T//ccqqVpOc.s:6722   .text.HAL_I2C_MemTxCpltCallback:00000000 HAL_I2C_MemTxCpltCallback
/var/folders/k1/1yttftd15rl7jxtpyc5m93n80000gn/T//ccqqVpOc.s:6738   .text.HAL_I2C_MemRxCpltCallback:00000000 $t
/var/folders/k1/1yttftd15rl7jxtpyc5m93n80000gn/T//ccqqVpOc.s:6744   .text.HAL_I2C_MemRxCpltCallback:00000000 HAL_I2C_MemRxCpltCallback
/var/folders/k1/1yttftd15rl7jxtpyc5m93n80000gn/T//ccqqVpOc.s:6760   .text.HAL_I2C_ErrorCallback:00000000 $t
/var/folders/k1/1yttftd15rl7jxtpyc5m93n80000gn/T//ccqqVpOc.s:6766   .text.HAL_I2C_ErrorCallback:00000000 HAL_I2C_ErrorCallback
/var/folders/k1/1yttftd15rl7jxtpyc5m93n80000gn/T//ccqqVpOc.s:6782   .text.HAL_I2C_AbortCpltCallback:00000000 $t
/var/folders/k1/1yttftd15rl7jxtpyc5m93n80000gn/T//ccqqVpOc.s:6788   .text.HAL_I2C_AbortCpltCallback:00000000 HAL_I2C_AbortCpltCallback
/var/folders/k1/1yttftd15rl7jxtpyc5m93n80000gn/T//ccqqVpOc.s:6804   .text.HAL_I2C_GetState:00000000 $t
/var/folders/k1/1yttftd15rl7jxtpyc5m93n80000gn/T//ccqqVpOc.s:6810   .text.HAL_I2C_GetState:00000000 HAL_I2C_GetState
/var/folders/k1/1yttftd15rl7jxtpyc5m93n80000gn/T//ccqqVpOc.s:6829   .text.HAL_I2C_GetMode:00000000 $t
/var/folders/k1/1yttftd15rl7jxtpyc5m93n80000gn/T//ccqqVpOc.s:6835   .text.HAL_I2C_GetMode:00000000 HAL_I2C_GetMode
/var/folders/k1/1yttftd15rl7jxtpyc5m93n80000gn/T//ccqqVpOc.s:6854   .text.HAL_I2C_GetError:00000000 $t
/var/folders/k1/1yttftd15rl7jxtpyc5m93n80000gn/T//ccqqVpOc.s:6860   .text.HAL_I2C_GetError:00000000 HAL_I2C_GetError
/var/folders/k1/1yttftd15rl7jxtpyc5m93n80000gn/T//ccqqVpOc.s:6878   .text.I2C_Master_ISR_IT:00000000 $t
/var/folders/k1/1yttftd15rl7jxtpyc5m93n80000gn/T//ccqqVpOc.s:8816   .text.I2C_ITMasterSeqCplt:00000000 I2C_ITMasterSeqCplt
/var/folders/k1/1yttftd15rl7jxtpyc5m93n80000gn/T//ccqqVpOc.s:8974   .text.I2C_ITMasterCplt:00000000 I2C_ITMasterCplt
/var/folders/k1/1yttftd15rl7jxtpyc5m93n80000gn/T//ccqqVpOc.s:7174   .text.I2C_Mem_ISR_IT:00000000 $t
/var/folders/k1/1yttftd15rl7jxtpyc5m93n80000gn/T//ccqqVpOc.s:7469   .text.I2C_Mem_ISR_IT:0000025c $d
/var/folders/k1/1yttftd15rl7jxtpyc5m93n80000gn/T//ccqqVpOc.s:7473   .text.I2C_Slave_ISR_IT:00000000 $t
/var/folders/k1/1yttftd15rl7jxtpyc5m93n80000gn/T//ccqqVpOc.s:9168   .text.I2C_ITSlaveCplt:00000000 I2C_ITSlaveCplt
/var/folders/k1/1yttftd15rl7jxtpyc5m93n80000gn/T//ccqqVpOc.s:9515   .text.I2C_ITListenCplt:00000000 I2C_ITListenCplt
/var/folders/k1/1yttftd15rl7jxtpyc5m93n80000gn/T//ccqqVpOc.s:8880   .text.I2C_ITSlaveSeqCplt:00000000 I2C_ITSlaveSeqCplt
/var/folders/k1/1yttftd15rl7jxtpyc5m93n80000gn/T//ccqqVpOc.s:8687   .text.I2C_ITAddrCplt:00000000 I2C_ITAddrCplt
/var/folders/k1/1yttftd15rl7jxtpyc5m93n80000gn/T//ccqqVpOc.s:7731   .text.I2C_Master_ISR_DMA:00000000 $t
/var/folders/k1/1yttftd15rl7jxtpyc5m93n80000gn/T//ccqqVpOc.s:7966   .text.I2C_Mem_ISR_DMA:00000000 $t
/var/folders/k1/1yttftd15rl7jxtpyc5m93n80000gn/T//ccqqVpOc.s:8255   .text.I2C_Mem_ISR_DMA:00000258 $d
/var/folders/k1/1yttftd15rl7jxtpyc5m93n80000gn/T//ccqqVpOc.s:8259   .text.I2C_Slave_ISR_DMA:00000000 $t
/var/folders/k1/1yttftd15rl7jxtpyc5m93n80000gn/T//ccqqVpOc.s:8486   .text.I2C_RequestMemoryWrite:00000000 $t
/var/folders/k1/1yttftd15rl7jxtpyc5m93n80000gn/T//ccqqVpOc.s:8581   .text.I2C_RequestMemoryWrite:000000a4 $d
/var/folders/k1/1yttftd15rl7jxtpyc5m93n80000gn/T//ccqqVpOc.s:8584   .text.I2C_RequestMemoryRead:00000000 $t
/var/folders/k1/1yttftd15rl7jxtpyc5m93n80000gn/T//ccqqVpOc.s:8679   .text.I2C_RequestMemoryRead:000000a4 $d
/var/folders/k1/1yttftd15rl7jxtpyc5m93n80000gn/T//ccqqVpOc.s:8682   .text.I2C_ITAddrCplt:00000000 $t
/var/folders/k1/1yttftd15rl7jxtpyc5m93n80000gn/T//ccqqVpOc.s:8811   .text.I2C_ITMasterSeqCplt:00000000 $t
ARM GAS  /var/folders/k1/1yttftd15rl7jxtpyc5m93n80000gn/T//ccqqVpOc.s 			page 198


/var/folders/k1/1yttftd15rl7jxtpyc5m93n80000gn/T//ccqqVpOc.s:8875   .text.I2C_ITSlaveSeqCplt:00000000 $t
/var/folders/k1/1yttftd15rl7jxtpyc5m93n80000gn/T//ccqqVpOc.s:8969   .text.I2C_ITMasterCplt:00000000 $t
/var/folders/k1/1yttftd15rl7jxtpyc5m93n80000gn/T//ccqqVpOc.s:9159   .text.I2C_ITMasterCplt:0000018c $d
/var/folders/k1/1yttftd15rl7jxtpyc5m93n80000gn/T//ccqqVpOc.s:9163   .text.I2C_ITSlaveCplt:00000000 $t
/var/folders/k1/1yttftd15rl7jxtpyc5m93n80000gn/T//ccqqVpOc.s:9506   .text.I2C_ITSlaveCplt:000002cc $d
/var/folders/k1/1yttftd15rl7jxtpyc5m93n80000gn/T//ccqqVpOc.s:9510   .text.I2C_ITListenCplt:00000000 $t
/var/folders/k1/1yttftd15rl7jxtpyc5m93n80000gn/T//ccqqVpOc.s:9598   .text.I2C_ITListenCplt:000000a8 $d
/var/folders/k1/1yttftd15rl7jxtpyc5m93n80000gn/T//ccqqVpOc.s:9601   .text.I2C_ITError:00000000 $t
/var/folders/k1/1yttftd15rl7jxtpyc5m93n80000gn/T//ccqqVpOc.s:9845   .text.I2C_TreatErrorCallback:00000000 I2C_TreatErrorCallback
/var/folders/k1/1yttftd15rl7jxtpyc5m93n80000gn/T//ccqqVpOc.s:9835   .text.I2C_ITError:000001d4 $d
/var/folders/k1/1yttftd15rl7jxtpyc5m93n80000gn/T//ccqqVpOc.s:9840   .text.I2C_TreatErrorCallback:00000000 $t
/var/folders/k1/1yttftd15rl7jxtpyc5m93n80000gn/T//ccqqVpOc.s:9886   .text.I2C_Flush_TXDR:00000000 $t
/var/folders/k1/1yttftd15rl7jxtpyc5m93n80000gn/T//ccqqVpOc.s:9932   .text.I2C_DMAMasterTransmitCplt:00000000 $t
/var/folders/k1/1yttftd15rl7jxtpyc5m93n80000gn/T//ccqqVpOc.s:10018  .text.I2C_DMASlaveTransmitCplt:00000000 $t
/var/folders/k1/1yttftd15rl7jxtpyc5m93n80000gn/T//ccqqVpOc.s:10060  .text.I2C_DMAMasterReceiveCplt:00000000 $t
/var/folders/k1/1yttftd15rl7jxtpyc5m93n80000gn/T//ccqqVpOc.s:10146  .text.I2C_DMASlaveReceiveCplt:00000000 $t
/var/folders/k1/1yttftd15rl7jxtpyc5m93n80000gn/T//ccqqVpOc.s:10190  .text.I2C_DMAError:00000000 $t
/var/folders/k1/1yttftd15rl7jxtpyc5m93n80000gn/T//ccqqVpOc.s:10222  .text.I2C_DMAAbort:00000000 $t
/var/folders/k1/1yttftd15rl7jxtpyc5m93n80000gn/T//ccqqVpOc.s:10264  .text.I2C_WaitOnFlagUntilTimeout:00000000 $t
/var/folders/k1/1yttftd15rl7jxtpyc5m93n80000gn/T//ccqqVpOc.s:10668  .text.I2C_IsErrorOccurred:00000000 I2C_IsErrorOccurred
/var/folders/k1/1yttftd15rl7jxtpyc5m93n80000gn/T//ccqqVpOc.s:10362  .text.I2C_WaitOnTXISFlagUntilTimeout:00000000 $t
/var/folders/k1/1yttftd15rl7jxtpyc5m93n80000gn/T//ccqqVpOc.s:10440  .text.I2C_WaitOnSTOPFlagUntilTimeout:00000000 $t
/var/folders/k1/1yttftd15rl7jxtpyc5m93n80000gn/T//ccqqVpOc.s:10515  .text.I2C_WaitOnRXNEFlagUntilTimeout:00000000 $t
/var/folders/k1/1yttftd15rl7jxtpyc5m93n80000gn/T//ccqqVpOc.s:10660  .text.I2C_WaitOnRXNEFlagUntilTimeout:00000114 $d
/var/folders/k1/1yttftd15rl7jxtpyc5m93n80000gn/T//ccqqVpOc.s:10663  .text.I2C_IsErrorOccurred:00000000 $t
/var/folders/k1/1yttftd15rl7jxtpyc5m93n80000gn/T//ccqqVpOc.s:10870  .text.I2C_IsErrorOccurred:000001bc $d
/var/folders/k1/1yttftd15rl7jxtpyc5m93n80000gn/T//ccqqVpOc.s:10873  .text.I2C_TransferConfig:00000000 $t
/var/folders/k1/1yttftd15rl7jxtpyc5m93n80000gn/T//ccqqVpOc.s:10927  .text.I2C_TransferConfig:00000060 $d
/var/folders/k1/1yttftd15rl7jxtpyc5m93n80000gn/T//ccqqVpOc.s:10930  .text.I2C_Enable_IRQ:00000000 $t
/var/folders/k1/1yttftd15rl7jxtpyc5m93n80000gn/T//ccqqVpOc.s:11061  .text.I2C_Enable_IRQ:000000fc $d
/var/folders/k1/1yttftd15rl7jxtpyc5m93n80000gn/T//ccqqVpOc.s:11066  .text.I2C_Disable_IRQ:00000000 $t
/var/folders/k1/1yttftd15rl7jxtpyc5m93n80000gn/T//ccqqVpOc.s:11162  .text.I2C_ConvertOtherXferOptions:00000000 $t

UNDEFINED SYMBOLS
HAL_GetTick
HAL_DMA_Start_IT
HAL_DMA_Abort_IT
HAL_DMA_GetState
