ARM GAS  /var/folders/k1/1yttftd15rl7jxtpyc5m93n80000gn/T//ccruZCkn.s 			page 1


   1              		.cpu cortex-m4
   2              		.arch armv7e-m
   3              		.fpu fpv4-sp-d16
   4              		.eabi_attribute 27, 1
   5              		.eabi_attribute 28, 1
   6              		.eabi_attribute 20, 1
   7              		.eabi_attribute 21, 1
   8              		.eabi_attribute 23, 3
   9              		.eabi_attribute 24, 1
  10              		.eabi_attribute 25, 1
  11              		.eabi_attribute 26, 1
  12              		.eabi_attribute 30, 6
  13              		.eabi_attribute 34, 1
  14              		.eabi_attribute 18, 4
  15              		.file	"stm32g4xx_hal_adc.c"
  16              		.text
  17              		.section	.text.LL_ADC_SetCommonClock,"ax",%progbits
  18              		.align	1
  19              		.syntax unified
  20              		.thumb
  21              		.thumb_func
  23              	LL_ADC_SetCommonClock:
  24              		@ args = 0, pretend = 0, frame = 8
  25              		@ frame_needed = 1, uses_anonymous_args = 0
  26              		@ link register save eliminated.
  27 0000 80B4     		push	{r7}
  28 0002 83B0     		sub	sp, sp, #12
  29 0004 00AF     		add	r7, sp, #0
  30 0006 7860     		str	r0, [r7, #4]
  31 0008 3960     		str	r1, [r7]
  32 000a 7B68     		ldr	r3, [r7, #4]
  33 000c 9B68     		ldr	r3, [r3, #8]
  34 000e 23F47C12 		bic	r2, r3, #4128768
  35 0012 3B68     		ldr	r3, [r7]
  36 0014 1A43     		orrs	r2, r2, r3
  37 0016 7B68     		ldr	r3, [r7, #4]
  38 0018 9A60     		str	r2, [r3, #8]
  39 001a 00BF     		nop
  40 001c 0C37     		adds	r7, r7, #12
  41 001e BD46     		mov	sp, r7
  42              		@ sp needed
  43 0020 5DF8047B 		ldr	r7, [sp], #4
  44 0024 7047     		bx	lr
  46              		.section	.text.LL_ADC_SetCommonPathInternalCh,"ax",%progbits
  47              		.align	1
  48              		.syntax unified
  49              		.thumb
  50              		.thumb_func
  52              	LL_ADC_SetCommonPathInternalCh:
  53              		@ args = 0, pretend = 0, frame = 8
  54              		@ frame_needed = 1, uses_anonymous_args = 0
  55              		@ link register save eliminated.
  56 0000 80B4     		push	{r7}
  57 0002 83B0     		sub	sp, sp, #12
  58 0004 00AF     		add	r7, sp, #0
  59 0006 7860     		str	r0, [r7, #4]
  60 0008 3960     		str	r1, [r7]
ARM GAS  /var/folders/k1/1yttftd15rl7jxtpyc5m93n80000gn/T//ccruZCkn.s 			page 2


  61 000a 7B68     		ldr	r3, [r7, #4]
  62 000c 9B68     		ldr	r3, [r3, #8]
  63 000e 23F0E072 		bic	r2, r3, #29360128
  64 0012 3B68     		ldr	r3, [r7]
  65 0014 1A43     		orrs	r2, r2, r3
  66 0016 7B68     		ldr	r3, [r7, #4]
  67 0018 9A60     		str	r2, [r3, #8]
  68 001a 00BF     		nop
  69 001c 0C37     		adds	r7, r7, #12
  70 001e BD46     		mov	sp, r7
  71              		@ sp needed
  72 0020 5DF8047B 		ldr	r7, [sp], #4
  73 0024 7047     		bx	lr
  75              		.section	.text.LL_ADC_GetCommonPathInternalCh,"ax",%progbits
  76              		.align	1
  77              		.syntax unified
  78              		.thumb
  79              		.thumb_func
  81              	LL_ADC_GetCommonPathInternalCh:
  82              		@ args = 0, pretend = 0, frame = 8
  83              		@ frame_needed = 1, uses_anonymous_args = 0
  84              		@ link register save eliminated.
  85 0000 80B4     		push	{r7}
  86 0002 83B0     		sub	sp, sp, #12
  87 0004 00AF     		add	r7, sp, #0
  88 0006 7860     		str	r0, [r7, #4]
  89 0008 7B68     		ldr	r3, [r7, #4]
  90 000a 9B68     		ldr	r3, [r3, #8]
  91 000c 03F0E073 		and	r3, r3, #29360128
  92 0010 1846     		mov	r0, r3
  93 0012 0C37     		adds	r7, r7, #12
  94 0014 BD46     		mov	sp, r7
  95              		@ sp needed
  96 0016 5DF8047B 		ldr	r7, [sp], #4
  97 001a 7047     		bx	lr
  99              		.section	.text.LL_ADC_SetOffset,"ax",%progbits
 100              		.align	1
 101              		.syntax unified
 102              		.thumb
 103              		.thumb_func
 105              	LL_ADC_SetOffset:
 106              		@ args = 0, pretend = 0, frame = 24
 107              		@ frame_needed = 1, uses_anonymous_args = 0
 108              		@ link register save eliminated.
 109 0000 80B4     		push	{r7}
 110 0002 87B0     		sub	sp, sp, #28
 111 0004 00AF     		add	r7, sp, #0
 112 0006 F860     		str	r0, [r7, #12]
 113 0008 B960     		str	r1, [r7, #8]
 114 000a 7A60     		str	r2, [r7, #4]
 115 000c 3B60     		str	r3, [r7]
 116 000e FB68     		ldr	r3, [r7, #12]
 117 0010 6033     		adds	r3, r3, #96
 118 0012 1A46     		mov	r2, r3
 119 0014 BB68     		ldr	r3, [r7, #8]
 120 0016 9B00     		lsls	r3, r3, #2
 121 0018 1344     		add	r3, r3, r2
ARM GAS  /var/folders/k1/1yttftd15rl7jxtpyc5m93n80000gn/T//ccruZCkn.s 			page 3


 122 001a 7B61     		str	r3, [r7, #20]
 123 001c 7B69     		ldr	r3, [r7, #20]
 124 001e 1A68     		ldr	r2, [r3]
 125 0020 084B     		ldr	r3, .L6
 126 0022 1340     		ands	r3, r3, r2
 127 0024 7A68     		ldr	r2, [r7, #4]
 128 0026 02F0F841 		and	r1, r2, #2080374784
 129 002a 3A68     		ldr	r2, [r7]
 130 002c 0A43     		orrs	r2, r2, r1
 131 002e 1343     		orrs	r3, r3, r2
 132 0030 43F00042 		orr	r2, r3, #-2147483648
 133 0034 7B69     		ldr	r3, [r7, #20]
 134 0036 1A60     		str	r2, [r3]
 135 0038 00BF     		nop
 136 003a 1C37     		adds	r7, r7, #28
 137 003c BD46     		mov	sp, r7
 138              		@ sp needed
 139 003e 5DF8047B 		ldr	r7, [sp], #4
 140 0042 7047     		bx	lr
 141              	.L7:
 142              		.align	2
 143              	.L6:
 144 0044 00F0FF03 		.word	67104768
 146              		.section	.text.LL_ADC_GetOffsetChannel,"ax",%progbits
 147              		.align	1
 148              		.syntax unified
 149              		.thumb
 150              		.thumb_func
 152              	LL_ADC_GetOffsetChannel:
 153              		@ args = 0, pretend = 0, frame = 16
 154              		@ frame_needed = 1, uses_anonymous_args = 0
 155              		@ link register save eliminated.
 156 0000 80B4     		push	{r7}
 157 0002 85B0     		sub	sp, sp, #20
 158 0004 00AF     		add	r7, sp, #0
 159 0006 7860     		str	r0, [r7, #4]
 160 0008 3960     		str	r1, [r7]
 161 000a 7B68     		ldr	r3, [r7, #4]
 162 000c 6033     		adds	r3, r3, #96
 163 000e 1A46     		mov	r2, r3
 164 0010 3B68     		ldr	r3, [r7]
 165 0012 9B00     		lsls	r3, r3, #2
 166 0014 1344     		add	r3, r3, r2
 167 0016 FB60     		str	r3, [r7, #12]
 168 0018 FB68     		ldr	r3, [r7, #12]
 169 001a 1B68     		ldr	r3, [r3]
 170 001c 03F0F843 		and	r3, r3, #2080374784
 171 0020 1846     		mov	r0, r3
 172 0022 1437     		adds	r7, r7, #20
 173 0024 BD46     		mov	sp, r7
 174              		@ sp needed
 175 0026 5DF8047B 		ldr	r7, [sp], #4
 176 002a 7047     		bx	lr
 178              		.section	.text.LL_ADC_SetOffsetState,"ax",%progbits
 179              		.align	1
 180              		.syntax unified
 181              		.thumb
ARM GAS  /var/folders/k1/1yttftd15rl7jxtpyc5m93n80000gn/T//ccruZCkn.s 			page 4


 182              		.thumb_func
 184              	LL_ADC_SetOffsetState:
 185              		@ args = 0, pretend = 0, frame = 24
 186              		@ frame_needed = 1, uses_anonymous_args = 0
 187              		@ link register save eliminated.
 188 0000 80B4     		push	{r7}
 189 0002 87B0     		sub	sp, sp, #28
 190 0004 00AF     		add	r7, sp, #0
 191 0006 F860     		str	r0, [r7, #12]
 192 0008 B960     		str	r1, [r7, #8]
 193 000a 7A60     		str	r2, [r7, #4]
 194 000c FB68     		ldr	r3, [r7, #12]
 195 000e 6033     		adds	r3, r3, #96
 196 0010 1A46     		mov	r2, r3
 197 0012 BB68     		ldr	r3, [r7, #8]
 198 0014 9B00     		lsls	r3, r3, #2
 199 0016 1344     		add	r3, r3, r2
 200 0018 7B61     		str	r3, [r7, #20]
 201 001a 7B69     		ldr	r3, [r7, #20]
 202 001c 1B68     		ldr	r3, [r3]
 203 001e 23F00042 		bic	r2, r3, #-2147483648
 204 0022 7B68     		ldr	r3, [r7, #4]
 205 0024 1A43     		orrs	r2, r2, r3
 206 0026 7B69     		ldr	r3, [r7, #20]
 207 0028 1A60     		str	r2, [r3]
 208 002a 00BF     		nop
 209 002c 1C37     		adds	r7, r7, #28
 210 002e BD46     		mov	sp, r7
 211              		@ sp needed
 212 0030 5DF8047B 		ldr	r7, [sp], #4
 213 0034 7047     		bx	lr
 215              		.section	.text.LL_ADC_SetOffsetSign,"ax",%progbits
 216              		.align	1
 217              		.syntax unified
 218              		.thumb
 219              		.thumb_func
 221              	LL_ADC_SetOffsetSign:
 222              		@ args = 0, pretend = 0, frame = 24
 223              		@ frame_needed = 1, uses_anonymous_args = 0
 224              		@ link register save eliminated.
 225 0000 80B4     		push	{r7}
 226 0002 87B0     		sub	sp, sp, #28
 227 0004 00AF     		add	r7, sp, #0
 228 0006 F860     		str	r0, [r7, #12]
 229 0008 B960     		str	r1, [r7, #8]
 230 000a 7A60     		str	r2, [r7, #4]
 231 000c FB68     		ldr	r3, [r7, #12]
 232 000e 6033     		adds	r3, r3, #96
 233 0010 1A46     		mov	r2, r3
 234 0012 BB68     		ldr	r3, [r7, #8]
 235 0014 9B00     		lsls	r3, r3, #2
 236 0016 1344     		add	r3, r3, r2
 237 0018 7B61     		str	r3, [r7, #20]
 238 001a 7B69     		ldr	r3, [r7, #20]
 239 001c 1B68     		ldr	r3, [r3]
 240 001e 23F08072 		bic	r2, r3, #16777216
 241 0022 7B68     		ldr	r3, [r7, #4]
ARM GAS  /var/folders/k1/1yttftd15rl7jxtpyc5m93n80000gn/T//ccruZCkn.s 			page 5


 242 0024 1A43     		orrs	r2, r2, r3
 243 0026 7B69     		ldr	r3, [r7, #20]
 244 0028 1A60     		str	r2, [r3]
 245 002a 00BF     		nop
 246 002c 1C37     		adds	r7, r7, #28
 247 002e BD46     		mov	sp, r7
 248              		@ sp needed
 249 0030 5DF8047B 		ldr	r7, [sp], #4
 250 0034 7047     		bx	lr
 252              		.section	.text.LL_ADC_SetOffsetSaturation,"ax",%progbits
 253              		.align	1
 254              		.syntax unified
 255              		.thumb
 256              		.thumb_func
 258              	LL_ADC_SetOffsetSaturation:
 259              		@ args = 0, pretend = 0, frame = 24
 260              		@ frame_needed = 1, uses_anonymous_args = 0
 261              		@ link register save eliminated.
 262 0000 80B4     		push	{r7}
 263 0002 87B0     		sub	sp, sp, #28
 264 0004 00AF     		add	r7, sp, #0
 265 0006 F860     		str	r0, [r7, #12]
 266 0008 B960     		str	r1, [r7, #8]
 267 000a 7A60     		str	r2, [r7, #4]
 268 000c FB68     		ldr	r3, [r7, #12]
 269 000e 6033     		adds	r3, r3, #96
 270 0010 1A46     		mov	r2, r3
 271 0012 BB68     		ldr	r3, [r7, #8]
 272 0014 9B00     		lsls	r3, r3, #2
 273 0016 1344     		add	r3, r3, r2
 274 0018 7B61     		str	r3, [r7, #20]
 275 001a 7B69     		ldr	r3, [r7, #20]
 276 001c 1B68     		ldr	r3, [r3]
 277 001e 23F00072 		bic	r2, r3, #33554432
 278 0022 7B68     		ldr	r3, [r7, #4]
 279 0024 1A43     		orrs	r2, r2, r3
 280 0026 7B69     		ldr	r3, [r7, #20]
 281 0028 1A60     		str	r2, [r3]
 282 002a 00BF     		nop
 283 002c 1C37     		adds	r7, r7, #28
 284 002e BD46     		mov	sp, r7
 285              		@ sp needed
 286 0030 5DF8047B 		ldr	r7, [sp], #4
 287 0034 7047     		bx	lr
 289              		.section	.text.LL_ADC_SetSamplingTimeCommonConfig,"ax",%progbits
 290              		.align	1
 291              		.syntax unified
 292              		.thumb
 293              		.thumb_func
 295              	LL_ADC_SetSamplingTimeCommonConfig:
 296              		@ args = 0, pretend = 0, frame = 8
 297              		@ frame_needed = 1, uses_anonymous_args = 0
 298              		@ link register save eliminated.
 299 0000 80B4     		push	{r7}
 300 0002 83B0     		sub	sp, sp, #12
 301 0004 00AF     		add	r7, sp, #0
 302 0006 7860     		str	r0, [r7, #4]
ARM GAS  /var/folders/k1/1yttftd15rl7jxtpyc5m93n80000gn/T//ccruZCkn.s 			page 6


 303 0008 3960     		str	r1, [r7]
 304 000a 7B68     		ldr	r3, [r7, #4]
 305 000c 5B69     		ldr	r3, [r3, #20]
 306 000e 23F00042 		bic	r2, r3, #-2147483648
 307 0012 3B68     		ldr	r3, [r7]
 308 0014 1A43     		orrs	r2, r2, r3
 309 0016 7B68     		ldr	r3, [r7, #4]
 310 0018 5A61     		str	r2, [r3, #20]
 311 001a 00BF     		nop
 312 001c 0C37     		adds	r7, r7, #12
 313 001e BD46     		mov	sp, r7
 314              		@ sp needed
 315 0020 5DF8047B 		ldr	r7, [sp], #4
 316 0024 7047     		bx	lr
 318              		.section	.text.LL_ADC_REG_IsTriggerSourceSWStart,"ax",%progbits
 319              		.align	1
 320              		.syntax unified
 321              		.thumb
 322              		.thumb_func
 324              	LL_ADC_REG_IsTriggerSourceSWStart:
 325              		@ args = 0, pretend = 0, frame = 8
 326              		@ frame_needed = 1, uses_anonymous_args = 0
 327              		@ link register save eliminated.
 328 0000 80B4     		push	{r7}
 329 0002 83B0     		sub	sp, sp, #12
 330 0004 00AF     		add	r7, sp, #0
 331 0006 7860     		str	r0, [r7, #4]
 332 0008 7B68     		ldr	r3, [r7, #4]
 333 000a DB68     		ldr	r3, [r3, #12]
 334 000c 03F44063 		and	r3, r3, #3072
 335 0010 002B     		cmp	r3, #0
 336 0012 01D1     		bne	.L15
 337 0014 0123     		movs	r3, #1
 338 0016 00E0     		b	.L17
 339              	.L15:
 340 0018 0023     		movs	r3, #0
 341              	.L17:
 342 001a 1846     		mov	r0, r3
 343 001c 0C37     		adds	r7, r7, #12
 344 001e BD46     		mov	sp, r7
 345              		@ sp needed
 346 0020 5DF8047B 		ldr	r7, [sp], #4
 347 0024 7047     		bx	lr
 349              		.section	.text.LL_ADC_REG_SetSequencerRanks,"ax",%progbits
 350              		.align	1
 351              		.syntax unified
 352              		.thumb
 353              		.thumb_func
 355              	LL_ADC_REG_SetSequencerRanks:
 356              		@ args = 0, pretend = 0, frame = 24
 357              		@ frame_needed = 1, uses_anonymous_args = 0
 358              		@ link register save eliminated.
 359 0000 80B4     		push	{r7}
 360 0002 87B0     		sub	sp, sp, #28
 361 0004 00AF     		add	r7, sp, #0
 362 0006 F860     		str	r0, [r7, #12]
 363 0008 B960     		str	r1, [r7, #8]
ARM GAS  /var/folders/k1/1yttftd15rl7jxtpyc5m93n80000gn/T//ccruZCkn.s 			page 7


 364 000a 7A60     		str	r2, [r7, #4]
 365 000c FB68     		ldr	r3, [r7, #12]
 366 000e 3033     		adds	r3, r3, #48
 367 0010 1A46     		mov	r2, r3
 368 0012 BB68     		ldr	r3, [r7, #8]
 369 0014 1B0A     		lsrs	r3, r3, #8
 370 0016 9B00     		lsls	r3, r3, #2
 371 0018 03F00C03 		and	r3, r3, #12
 372 001c 1344     		add	r3, r3, r2
 373 001e 7B61     		str	r3, [r7, #20]
 374 0020 7B69     		ldr	r3, [r7, #20]
 375 0022 1A68     		ldr	r2, [r3]
 376 0024 BB68     		ldr	r3, [r7, #8]
 377 0026 03F01F03 		and	r3, r3, #31
 378 002a 1F21     		movs	r1, #31
 379 002c 01FA03F3 		lsl	r3, r1, r3
 380 0030 DB43     		mvns	r3, r3
 381 0032 1A40     		ands	r2, r2, r3
 382 0034 7B68     		ldr	r3, [r7, #4]
 383 0036 9B0E     		lsrs	r3, r3, #26
 384 0038 03F01F01 		and	r1, r3, #31
 385 003c BB68     		ldr	r3, [r7, #8]
 386 003e 03F01F03 		and	r3, r3, #31
 387 0042 01FA03F3 		lsl	r3, r1, r3
 388 0046 1A43     		orrs	r2, r2, r3
 389 0048 7B69     		ldr	r3, [r7, #20]
 390 004a 1A60     		str	r2, [r3]
 391 004c 00BF     		nop
 392 004e 1C37     		adds	r7, r7, #28
 393 0050 BD46     		mov	sp, r7
 394              		@ sp needed
 395 0052 5DF8047B 		ldr	r7, [sp], #4
 396 0056 7047     		bx	lr
 398              		.section	.text.LL_ADC_INJ_IsTriggerSourceSWStart,"ax",%progbits
 399              		.align	1
 400              		.syntax unified
 401              		.thumb
 402              		.thumb_func
 404              	LL_ADC_INJ_IsTriggerSourceSWStart:
 405              		@ args = 0, pretend = 0, frame = 8
 406              		@ frame_needed = 1, uses_anonymous_args = 0
 407              		@ link register save eliminated.
 408 0000 80B4     		push	{r7}
 409 0002 83B0     		sub	sp, sp, #12
 410 0004 00AF     		add	r7, sp, #0
 411 0006 7860     		str	r0, [r7, #4]
 412 0008 7B68     		ldr	r3, [r7, #4]
 413 000a DB6C     		ldr	r3, [r3, #76]
 414 000c 03F4C073 		and	r3, r3, #384
 415 0010 002B     		cmp	r3, #0
 416 0012 01D1     		bne	.L20
 417 0014 0123     		movs	r3, #1
 418 0016 00E0     		b	.L22
 419              	.L20:
 420 0018 0023     		movs	r3, #0
 421              	.L22:
 422 001a 1846     		mov	r0, r3
ARM GAS  /var/folders/k1/1yttftd15rl7jxtpyc5m93n80000gn/T//ccruZCkn.s 			page 8


 423 001c 0C37     		adds	r7, r7, #12
 424 001e BD46     		mov	sp, r7
 425              		@ sp needed
 426 0020 5DF8047B 		ldr	r7, [sp], #4
 427 0024 7047     		bx	lr
 429              		.section	.text.LL_ADC_SetChannelSamplingTime,"ax",%progbits
 430              		.align	1
 431              		.syntax unified
 432              		.thumb
 433              		.thumb_func
 435              	LL_ADC_SetChannelSamplingTime:
 436              		@ args = 0, pretend = 0, frame = 24
 437              		@ frame_needed = 1, uses_anonymous_args = 0
 438              		@ link register save eliminated.
 439 0000 80B4     		push	{r7}
 440 0002 87B0     		sub	sp, sp, #28
 441 0004 00AF     		add	r7, sp, #0
 442 0006 F860     		str	r0, [r7, #12]
 443 0008 B960     		str	r1, [r7, #8]
 444 000a 7A60     		str	r2, [r7, #4]
 445 000c FB68     		ldr	r3, [r7, #12]
 446 000e 1433     		adds	r3, r3, #20
 447 0010 1A46     		mov	r2, r3
 448 0012 BB68     		ldr	r3, [r7, #8]
 449 0014 5B0E     		lsrs	r3, r3, #25
 450 0016 9B00     		lsls	r3, r3, #2
 451 0018 03F00403 		and	r3, r3, #4
 452 001c 1344     		add	r3, r3, r2
 453 001e 7B61     		str	r3, [r7, #20]
 454 0020 7B69     		ldr	r3, [r7, #20]
 455 0022 1A68     		ldr	r2, [r3]
 456 0024 BB68     		ldr	r3, [r7, #8]
 457 0026 1B0D     		lsrs	r3, r3, #20
 458 0028 03F01F03 		and	r3, r3, #31
 459 002c 0721     		movs	r1, #7
 460 002e 01FA03F3 		lsl	r3, r1, r3
 461 0032 DB43     		mvns	r3, r3
 462 0034 1A40     		ands	r2, r2, r3
 463 0036 BB68     		ldr	r3, [r7, #8]
 464 0038 1B0D     		lsrs	r3, r3, #20
 465 003a 03F01F03 		and	r3, r3, #31
 466 003e 7968     		ldr	r1, [r7, #4]
 467 0040 01FA03F3 		lsl	r3, r1, r3
 468 0044 1A43     		orrs	r2, r2, r3
 469 0046 7B69     		ldr	r3, [r7, #20]
 470 0048 1A60     		str	r2, [r3]
 471 004a 00BF     		nop
 472 004c 1C37     		adds	r7, r7, #28
 473 004e BD46     		mov	sp, r7
 474              		@ sp needed
 475 0050 5DF8047B 		ldr	r7, [sp], #4
 476 0054 7047     		bx	lr
 478              		.section	.text.LL_ADC_SetChannelSingleDiff,"ax",%progbits
 479              		.align	1
 480              		.syntax unified
 481              		.thumb
 482              		.thumb_func
ARM GAS  /var/folders/k1/1yttftd15rl7jxtpyc5m93n80000gn/T//ccruZCkn.s 			page 9


 484              	LL_ADC_SetChannelSingleDiff:
 485              		@ args = 0, pretend = 0, frame = 16
 486              		@ frame_needed = 1, uses_anonymous_args = 0
 487              		@ link register save eliminated.
 488 0000 80B4     		push	{r7}
 489 0002 85B0     		sub	sp, sp, #20
 490 0004 00AF     		add	r7, sp, #0
 491 0006 F860     		str	r0, [r7, #12]
 492 0008 B960     		str	r1, [r7, #8]
 493 000a 7A60     		str	r2, [r7, #4]
 494 000c FB68     		ldr	r3, [r7, #12]
 495 000e D3F8B020 		ldr	r2, [r3, #176]
 496 0012 BB68     		ldr	r3, [r7, #8]
 497 0014 C3F31203 		ubfx	r3, r3, #0, #19
 498 0018 DB43     		mvns	r3, r3
 499 001a 1A40     		ands	r2, r2, r3
 500 001c 7B68     		ldr	r3, [r7, #4]
 501 001e 03F01803 		and	r3, r3, #24
 502 0022 0849     		ldr	r1, .L25
 503 0024 D940     		lsrs	r1, r1, r3
 504 0026 BB68     		ldr	r3, [r7, #8]
 505 0028 0B40     		ands	r3, r3, r1
 506 002a C3F31203 		ubfx	r3, r3, #0, #19
 507 002e 1A43     		orrs	r2, r2, r3
 508 0030 FB68     		ldr	r3, [r7, #12]
 509 0032 C3F8B020 		str	r2, [r3, #176]
 510 0036 00BF     		nop
 511 0038 1437     		adds	r7, r7, #20
 512 003a BD46     		mov	sp, r7
 513              		@ sp needed
 514 003c 5DF8047B 		ldr	r7, [sp], #4
 515 0040 7047     		bx	lr
 516              	.L26:
 517 0042 00BF     		.align	2
 518              	.L25:
 519 0044 FFFF0700 		.word	524287
 521              		.section	.text.LL_ADC_SetAnalogWDMonitChannels,"ax",%progbits
 522              		.align	1
 523              		.syntax unified
 524              		.thumb
 525              		.thumb_func
 527              	LL_ADC_SetAnalogWDMonitChannels:
 528              		@ args = 0, pretend = 0, frame = 24
 529              		@ frame_needed = 1, uses_anonymous_args = 0
 530              		@ link register save eliminated.
 531 0000 80B4     		push	{r7}
 532 0002 87B0     		sub	sp, sp, #28
 533 0004 00AF     		add	r7, sp, #0
 534 0006 F860     		str	r0, [r7, #12]
 535 0008 B960     		str	r1, [r7, #8]
 536 000a 7A60     		str	r2, [r7, #4]
 537 000c FB68     		ldr	r3, [r7, #12]
 538 000e 0C33     		adds	r3, r3, #12
 539 0010 1946     		mov	r1, r3
 540 0012 BB68     		ldr	r3, [r7, #8]
 541 0014 1B0D     		lsrs	r3, r3, #20
 542 0016 03F00302 		and	r2, r3, #3
ARM GAS  /var/folders/k1/1yttftd15rl7jxtpyc5m93n80000gn/T//ccruZCkn.s 			page 10


 543 001a BB68     		ldr	r3, [r7, #8]
 544 001c 03F00103 		and	r3, r3, #1
 545 0020 5B42     		rsbs	r3, r3, #0
 546 0022 03F02403 		and	r3, r3, #36
 547 0026 1344     		add	r3, r3, r2
 548 0028 9B00     		lsls	r3, r3, #2
 549 002a 0B44     		add	r3, r3, r1
 550 002c 7B61     		str	r3, [r7, #20]
 551 002e 7B69     		ldr	r3, [r7, #20]
 552 0030 1A68     		ldr	r2, [r3]
 553 0032 BB68     		ldr	r3, [r7, #8]
 554 0034 23F00243 		bic	r3, r3, #-2113929216
 555 0038 23F46013 		bic	r3, r3, #3670016
 556 003c DB43     		mvns	r3, r3
 557 003e 1A40     		ands	r2, r2, r3
 558 0040 7968     		ldr	r1, [r7, #4]
 559 0042 BB68     		ldr	r3, [r7, #8]
 560 0044 0B40     		ands	r3, r3, r1
 561 0046 1A43     		orrs	r2, r2, r3
 562 0048 7B69     		ldr	r3, [r7, #20]
 563 004a 1A60     		str	r2, [r3]
 564 004c 00BF     		nop
 565 004e 1C37     		adds	r7, r7, #28
 566 0050 BD46     		mov	sp, r7
 567              		@ sp needed
 568 0052 5DF8047B 		ldr	r7, [sp], #4
 569 0056 7047     		bx	lr
 571              		.section	.text.LL_ADC_ConfigAnalogWDThresholds,"ax",%progbits
 572              		.align	1
 573              		.syntax unified
 574              		.thumb
 575              		.thumb_func
 577              	LL_ADC_ConfigAnalogWDThresholds:
 578              		@ args = 0, pretend = 0, frame = 24
 579              		@ frame_needed = 1, uses_anonymous_args = 0
 580              		@ link register save eliminated.
 581 0000 80B4     		push	{r7}
 582 0002 87B0     		sub	sp, sp, #28
 583 0004 00AF     		add	r7, sp, #0
 584 0006 F860     		str	r0, [r7, #12]
 585 0008 B960     		str	r1, [r7, #8]
 586 000a 7A60     		str	r2, [r7, #4]
 587 000c 3B60     		str	r3, [r7]
 588 000e FB68     		ldr	r3, [r7, #12]
 589 0010 2033     		adds	r3, r3, #32
 590 0012 1A46     		mov	r2, r3
 591 0014 BB68     		ldr	r3, [r7, #8]
 592 0016 1B0D     		lsrs	r3, r3, #20
 593 0018 9B00     		lsls	r3, r3, #2
 594 001a 03F00C03 		and	r3, r3, #12
 595 001e 1344     		add	r3, r3, r2
 596 0020 7B61     		str	r3, [r7, #20]
 597 0022 7B69     		ldr	r3, [r7, #20]
 598 0024 1B68     		ldr	r3, [r3]
 599 0026 03F0F022 		and	r2, r3, #-268374016
 600 002a 7B68     		ldr	r3, [r7, #4]
 601 002c 1904     		lsls	r1, r3, #16
ARM GAS  /var/folders/k1/1yttftd15rl7jxtpyc5m93n80000gn/T//ccruZCkn.s 			page 11


 602 002e 3B68     		ldr	r3, [r7]
 603 0030 0B43     		orrs	r3, r3, r1
 604 0032 1A43     		orrs	r2, r2, r3
 605 0034 7B69     		ldr	r3, [r7, #20]
 606 0036 1A60     		str	r2, [r3]
 607 0038 00BF     		nop
 608 003a 1C37     		adds	r7, r7, #28
 609 003c BD46     		mov	sp, r7
 610              		@ sp needed
 611 003e 5DF8047B 		ldr	r7, [sp], #4
 612 0042 7047     		bx	lr
 614              		.section	.text.LL_ADC_GetMultimode,"ax",%progbits
 615              		.align	1
 616              		.syntax unified
 617              		.thumb
 618              		.thumb_func
 620              	LL_ADC_GetMultimode:
 621              		@ args = 0, pretend = 0, frame = 8
 622              		@ frame_needed = 1, uses_anonymous_args = 0
 623              		@ link register save eliminated.
 624 0000 80B4     		push	{r7}
 625 0002 83B0     		sub	sp, sp, #12
 626 0004 00AF     		add	r7, sp, #0
 627 0006 7860     		str	r0, [r7, #4]
 628 0008 7B68     		ldr	r3, [r7, #4]
 629 000a 9B68     		ldr	r3, [r3, #8]
 630 000c 03F01F03 		and	r3, r3, #31
 631 0010 1846     		mov	r0, r3
 632 0012 0C37     		adds	r7, r7, #12
 633 0014 BD46     		mov	sp, r7
 634              		@ sp needed
 635 0016 5DF8047B 		ldr	r7, [sp], #4
 636 001a 7047     		bx	lr
 638              		.section	.text.LL_ADC_GetMultiDMATransfer,"ax",%progbits
 639              		.align	1
 640              		.syntax unified
 641              		.thumb
 642              		.thumb_func
 644              	LL_ADC_GetMultiDMATransfer:
 645              		@ args = 0, pretend = 0, frame = 8
 646              		@ frame_needed = 1, uses_anonymous_args = 0
 647              		@ link register save eliminated.
 648 0000 80B4     		push	{r7}
 649 0002 83B0     		sub	sp, sp, #12
 650 0004 00AF     		add	r7, sp, #0
 651 0006 7860     		str	r0, [r7, #4]
 652 0008 7B68     		ldr	r3, [r7, #4]
 653 000a 9B68     		ldr	r3, [r3, #8]
 654 000c 03F46043 		and	r3, r3, #57344
 655 0010 1846     		mov	r0, r3
 656 0012 0C37     		adds	r7, r7, #12
 657 0014 BD46     		mov	sp, r7
 658              		@ sp needed
 659 0016 5DF8047B 		ldr	r7, [sp], #4
 660 001a 7047     		bx	lr
 662              		.section	.text.LL_ADC_DisableDeepPowerDown,"ax",%progbits
 663              		.align	1
ARM GAS  /var/folders/k1/1yttftd15rl7jxtpyc5m93n80000gn/T//ccruZCkn.s 			page 12


 664              		.syntax unified
 665              		.thumb
 666              		.thumb_func
 668              	LL_ADC_DisableDeepPowerDown:
 669              		@ args = 0, pretend = 0, frame = 8
 670              		@ frame_needed = 1, uses_anonymous_args = 0
 671              		@ link register save eliminated.
 672 0000 80B4     		push	{r7}
 673 0002 83B0     		sub	sp, sp, #12
 674 0004 00AF     		add	r7, sp, #0
 675 0006 7860     		str	r0, [r7, #4]
 676 0008 7B68     		ldr	r3, [r7, #4]
 677 000a 9B68     		ldr	r3, [r3, #8]
 678 000c 23F02043 		bic	r3, r3, #-1610612736
 679 0010 23F03F03 		bic	r3, r3, #63
 680 0014 7A68     		ldr	r2, [r7, #4]
 681 0016 9360     		str	r3, [r2, #8]
 682 0018 00BF     		nop
 683 001a 0C37     		adds	r7, r7, #12
 684 001c BD46     		mov	sp, r7
 685              		@ sp needed
 686 001e 5DF8047B 		ldr	r7, [sp], #4
 687 0022 7047     		bx	lr
 689              		.section	.text.LL_ADC_IsDeepPowerDownEnabled,"ax",%progbits
 690              		.align	1
 691              		.syntax unified
 692              		.thumb
 693              		.thumb_func
 695              	LL_ADC_IsDeepPowerDownEnabled:
 696              		@ args = 0, pretend = 0, frame = 8
 697              		@ frame_needed = 1, uses_anonymous_args = 0
 698              		@ link register save eliminated.
 699 0000 80B4     		push	{r7}
 700 0002 83B0     		sub	sp, sp, #12
 701 0004 00AF     		add	r7, sp, #0
 702 0006 7860     		str	r0, [r7, #4]
 703 0008 7B68     		ldr	r3, [r7, #4]
 704 000a 9B68     		ldr	r3, [r3, #8]
 705 000c 03F00053 		and	r3, r3, #536870912
 706 0010 B3F1005F 		cmp	r3, #536870912
 707 0014 01D1     		bne	.L35
 708 0016 0123     		movs	r3, #1
 709 0018 00E0     		b	.L37
 710              	.L35:
 711 001a 0023     		movs	r3, #0
 712              	.L37:
 713 001c 1846     		mov	r0, r3
 714 001e 0C37     		adds	r7, r7, #12
 715 0020 BD46     		mov	sp, r7
 716              		@ sp needed
 717 0022 5DF8047B 		ldr	r7, [sp], #4
 718 0026 7047     		bx	lr
 720              		.section	.text.LL_ADC_EnableInternalRegulator,"ax",%progbits
 721              		.align	1
 722              		.syntax unified
 723              		.thumb
 724              		.thumb_func
ARM GAS  /var/folders/k1/1yttftd15rl7jxtpyc5m93n80000gn/T//ccruZCkn.s 			page 13


 726              	LL_ADC_EnableInternalRegulator:
 727              		@ args = 0, pretend = 0, frame = 8
 728              		@ frame_needed = 1, uses_anonymous_args = 0
 729              		@ link register save eliminated.
 730 0000 80B4     		push	{r7}
 731 0002 83B0     		sub	sp, sp, #12
 732 0004 00AF     		add	r7, sp, #0
 733 0006 7860     		str	r0, [r7, #4]
 734 0008 7B68     		ldr	r3, [r7, #4]
 735 000a 9B68     		ldr	r3, [r3, #8]
 736 000c 23F01043 		bic	r3, r3, #-1879048192
 737 0010 23F03F03 		bic	r3, r3, #63
 738 0014 43F08052 		orr	r2, r3, #268435456
 739 0018 7B68     		ldr	r3, [r7, #4]
 740 001a 9A60     		str	r2, [r3, #8]
 741 001c 00BF     		nop
 742 001e 0C37     		adds	r7, r7, #12
 743 0020 BD46     		mov	sp, r7
 744              		@ sp needed
 745 0022 5DF8047B 		ldr	r7, [sp], #4
 746 0026 7047     		bx	lr
 748              		.section	.text.LL_ADC_IsInternalRegulatorEnabled,"ax",%progbits
 749              		.align	1
 750              		.syntax unified
 751              		.thumb
 752              		.thumb_func
 754              	LL_ADC_IsInternalRegulatorEnabled:
 755              		@ args = 0, pretend = 0, frame = 8
 756              		@ frame_needed = 1, uses_anonymous_args = 0
 757              		@ link register save eliminated.
 758 0000 80B4     		push	{r7}
 759 0002 83B0     		sub	sp, sp, #12
 760 0004 00AF     		add	r7, sp, #0
 761 0006 7860     		str	r0, [r7, #4]
 762 0008 7B68     		ldr	r3, [r7, #4]
 763 000a 9B68     		ldr	r3, [r3, #8]
 764 000c 03F08053 		and	r3, r3, #268435456
 765 0010 B3F1805F 		cmp	r3, #268435456
 766 0014 01D1     		bne	.L40
 767 0016 0123     		movs	r3, #1
 768 0018 00E0     		b	.L42
 769              	.L40:
 770 001a 0023     		movs	r3, #0
 771              	.L42:
 772 001c 1846     		mov	r0, r3
 773 001e 0C37     		adds	r7, r7, #12
 774 0020 BD46     		mov	sp, r7
 775              		@ sp needed
 776 0022 5DF8047B 		ldr	r7, [sp], #4
 777 0026 7047     		bx	lr
 779              		.section	.text.LL_ADC_Enable,"ax",%progbits
 780              		.align	1
 781              		.syntax unified
 782              		.thumb
 783              		.thumb_func
 785              	LL_ADC_Enable:
 786              		@ args = 0, pretend = 0, frame = 8
ARM GAS  /var/folders/k1/1yttftd15rl7jxtpyc5m93n80000gn/T//ccruZCkn.s 			page 14


 787              		@ frame_needed = 1, uses_anonymous_args = 0
 788              		@ link register save eliminated.
 789 0000 80B4     		push	{r7}
 790 0002 83B0     		sub	sp, sp, #12
 791 0004 00AF     		add	r7, sp, #0
 792 0006 7860     		str	r0, [r7, #4]
 793 0008 7B68     		ldr	r3, [r7, #4]
 794 000a 9B68     		ldr	r3, [r3, #8]
 795 000c 23F00043 		bic	r3, r3, #-2147483648
 796 0010 23F03F03 		bic	r3, r3, #63
 797 0014 43F00102 		orr	r2, r3, #1
 798 0018 7B68     		ldr	r3, [r7, #4]
 799 001a 9A60     		str	r2, [r3, #8]
 800 001c 00BF     		nop
 801 001e 0C37     		adds	r7, r7, #12
 802 0020 BD46     		mov	sp, r7
 803              		@ sp needed
 804 0022 5DF8047B 		ldr	r7, [sp], #4
 805 0026 7047     		bx	lr
 807              		.section	.text.LL_ADC_Disable,"ax",%progbits
 808              		.align	1
 809              		.syntax unified
 810              		.thumb
 811              		.thumb_func
 813              	LL_ADC_Disable:
 814              		@ args = 0, pretend = 0, frame = 8
 815              		@ frame_needed = 1, uses_anonymous_args = 0
 816              		@ link register save eliminated.
 817 0000 80B4     		push	{r7}
 818 0002 83B0     		sub	sp, sp, #12
 819 0004 00AF     		add	r7, sp, #0
 820 0006 7860     		str	r0, [r7, #4]
 821 0008 7B68     		ldr	r3, [r7, #4]
 822 000a 9B68     		ldr	r3, [r3, #8]
 823 000c 23F00043 		bic	r3, r3, #-2147483648
 824 0010 23F03F03 		bic	r3, r3, #63
 825 0014 43F00202 		orr	r2, r3, #2
 826 0018 7B68     		ldr	r3, [r7, #4]
 827 001a 9A60     		str	r2, [r3, #8]
 828 001c 00BF     		nop
 829 001e 0C37     		adds	r7, r7, #12
 830 0020 BD46     		mov	sp, r7
 831              		@ sp needed
 832 0022 5DF8047B 		ldr	r7, [sp], #4
 833 0026 7047     		bx	lr
 835              		.section	.text.LL_ADC_IsEnabled,"ax",%progbits
 836              		.align	1
 837              		.syntax unified
 838              		.thumb
 839              		.thumb_func
 841              	LL_ADC_IsEnabled:
 842              		@ args = 0, pretend = 0, frame = 8
 843              		@ frame_needed = 1, uses_anonymous_args = 0
 844              		@ link register save eliminated.
 845 0000 80B4     		push	{r7}
 846 0002 83B0     		sub	sp, sp, #12
 847 0004 00AF     		add	r7, sp, #0
ARM GAS  /var/folders/k1/1yttftd15rl7jxtpyc5m93n80000gn/T//ccruZCkn.s 			page 15


 848 0006 7860     		str	r0, [r7, #4]
 849 0008 7B68     		ldr	r3, [r7, #4]
 850 000a 9B68     		ldr	r3, [r3, #8]
 851 000c 03F00103 		and	r3, r3, #1
 852 0010 012B     		cmp	r3, #1
 853 0012 01D1     		bne	.L46
 854 0014 0123     		movs	r3, #1
 855 0016 00E0     		b	.L48
 856              	.L46:
 857 0018 0023     		movs	r3, #0
 858              	.L48:
 859 001a 1846     		mov	r0, r3
 860 001c 0C37     		adds	r7, r7, #12
 861 001e BD46     		mov	sp, r7
 862              		@ sp needed
 863 0020 5DF8047B 		ldr	r7, [sp], #4
 864 0024 7047     		bx	lr
 866              		.section	.text.LL_ADC_IsDisableOngoing,"ax",%progbits
 867              		.align	1
 868              		.syntax unified
 869              		.thumb
 870              		.thumb_func
 872              	LL_ADC_IsDisableOngoing:
 873              		@ args = 0, pretend = 0, frame = 8
 874              		@ frame_needed = 1, uses_anonymous_args = 0
 875              		@ link register save eliminated.
 876 0000 80B4     		push	{r7}
 877 0002 83B0     		sub	sp, sp, #12
 878 0004 00AF     		add	r7, sp, #0
 879 0006 7860     		str	r0, [r7, #4]
 880 0008 7B68     		ldr	r3, [r7, #4]
 881 000a 9B68     		ldr	r3, [r3, #8]
 882 000c 03F00203 		and	r3, r3, #2
 883 0010 022B     		cmp	r3, #2
 884 0012 01D1     		bne	.L50
 885 0014 0123     		movs	r3, #1
 886 0016 00E0     		b	.L52
 887              	.L50:
 888 0018 0023     		movs	r3, #0
 889              	.L52:
 890 001a 1846     		mov	r0, r3
 891 001c 0C37     		adds	r7, r7, #12
 892 001e BD46     		mov	sp, r7
 893              		@ sp needed
 894 0020 5DF8047B 		ldr	r7, [sp], #4
 895 0024 7047     		bx	lr
 897              		.section	.text.LL_ADC_REG_StartConversion,"ax",%progbits
 898              		.align	1
 899              		.syntax unified
 900              		.thumb
 901              		.thumb_func
 903              	LL_ADC_REG_StartConversion:
 904              		@ args = 0, pretend = 0, frame = 8
 905              		@ frame_needed = 1, uses_anonymous_args = 0
 906              		@ link register save eliminated.
 907 0000 80B4     		push	{r7}
 908 0002 83B0     		sub	sp, sp, #12
ARM GAS  /var/folders/k1/1yttftd15rl7jxtpyc5m93n80000gn/T//ccruZCkn.s 			page 16


 909 0004 00AF     		add	r7, sp, #0
 910 0006 7860     		str	r0, [r7, #4]
 911 0008 7B68     		ldr	r3, [r7, #4]
 912 000a 9B68     		ldr	r3, [r3, #8]
 913 000c 23F00043 		bic	r3, r3, #-2147483648
 914 0010 23F03F03 		bic	r3, r3, #63
 915 0014 43F00402 		orr	r2, r3, #4
 916 0018 7B68     		ldr	r3, [r7, #4]
 917 001a 9A60     		str	r2, [r3, #8]
 918 001c 00BF     		nop
 919 001e 0C37     		adds	r7, r7, #12
 920 0020 BD46     		mov	sp, r7
 921              		@ sp needed
 922 0022 5DF8047B 		ldr	r7, [sp], #4
 923 0026 7047     		bx	lr
 925              		.section	.text.LL_ADC_REG_StopConversion,"ax",%progbits
 926              		.align	1
 927              		.syntax unified
 928              		.thumb
 929              		.thumb_func
 931              	LL_ADC_REG_StopConversion:
 932              		@ args = 0, pretend = 0, frame = 8
 933              		@ frame_needed = 1, uses_anonymous_args = 0
 934              		@ link register save eliminated.
 935 0000 80B4     		push	{r7}
 936 0002 83B0     		sub	sp, sp, #12
 937 0004 00AF     		add	r7, sp, #0
 938 0006 7860     		str	r0, [r7, #4]
 939 0008 7B68     		ldr	r3, [r7, #4]
 940 000a 9B68     		ldr	r3, [r3, #8]
 941 000c 23F00043 		bic	r3, r3, #-2147483648
 942 0010 23F03F03 		bic	r3, r3, #63
 943 0014 43F01002 		orr	r2, r3, #16
 944 0018 7B68     		ldr	r3, [r7, #4]
 945 001a 9A60     		str	r2, [r3, #8]
 946 001c 00BF     		nop
 947 001e 0C37     		adds	r7, r7, #12
 948 0020 BD46     		mov	sp, r7
 949              		@ sp needed
 950 0022 5DF8047B 		ldr	r7, [sp], #4
 951 0026 7047     		bx	lr
 953              		.section	.text.LL_ADC_REG_IsConversionOngoing,"ax",%progbits
 954              		.align	1
 955              		.syntax unified
 956              		.thumb
 957              		.thumb_func
 959              	LL_ADC_REG_IsConversionOngoing:
 960              		@ args = 0, pretend = 0, frame = 8
 961              		@ frame_needed = 1, uses_anonymous_args = 0
 962              		@ link register save eliminated.
 963 0000 80B4     		push	{r7}
 964 0002 83B0     		sub	sp, sp, #12
 965 0004 00AF     		add	r7, sp, #0
 966 0006 7860     		str	r0, [r7, #4]
 967 0008 7B68     		ldr	r3, [r7, #4]
 968 000a 9B68     		ldr	r3, [r3, #8]
 969 000c 03F00403 		and	r3, r3, #4
ARM GAS  /var/folders/k1/1yttftd15rl7jxtpyc5m93n80000gn/T//ccruZCkn.s 			page 17


 970 0010 042B     		cmp	r3, #4
 971 0012 01D1     		bne	.L56
 972 0014 0123     		movs	r3, #1
 973 0016 00E0     		b	.L58
 974              	.L56:
 975 0018 0023     		movs	r3, #0
 976              	.L58:
 977 001a 1846     		mov	r0, r3
 978 001c 0C37     		adds	r7, r7, #12
 979 001e BD46     		mov	sp, r7
 980              		@ sp needed
 981 0020 5DF8047B 		ldr	r7, [sp], #4
 982 0024 7047     		bx	lr
 984              		.section	.text.LL_ADC_INJ_StopConversion,"ax",%progbits
 985              		.align	1
 986              		.syntax unified
 987              		.thumb
 988              		.thumb_func
 990              	LL_ADC_INJ_StopConversion:
 991              		@ args = 0, pretend = 0, frame = 8
 992              		@ frame_needed = 1, uses_anonymous_args = 0
 993              		@ link register save eliminated.
 994 0000 80B4     		push	{r7}
 995 0002 83B0     		sub	sp, sp, #12
 996 0004 00AF     		add	r7, sp, #0
 997 0006 7860     		str	r0, [r7, #4]
 998 0008 7B68     		ldr	r3, [r7, #4]
 999 000a 9B68     		ldr	r3, [r3, #8]
 1000 000c 23F00043 		bic	r3, r3, #-2147483648
 1001 0010 23F03F03 		bic	r3, r3, #63
 1002 0014 43F02002 		orr	r2, r3, #32
 1003 0018 7B68     		ldr	r3, [r7, #4]
 1004 001a 9A60     		str	r2, [r3, #8]
 1005 001c 00BF     		nop
 1006 001e 0C37     		adds	r7, r7, #12
 1007 0020 BD46     		mov	sp, r7
 1008              		@ sp needed
 1009 0022 5DF8047B 		ldr	r7, [sp], #4
 1010 0026 7047     		bx	lr
 1012              		.section	.text.LL_ADC_INJ_IsConversionOngoing,"ax",%progbits
 1013              		.align	1
 1014              		.syntax unified
 1015              		.thumb
 1016              		.thumb_func
 1018              	LL_ADC_INJ_IsConversionOngoing:
 1019              		@ args = 0, pretend = 0, frame = 8
 1020              		@ frame_needed = 1, uses_anonymous_args = 0
 1021              		@ link register save eliminated.
 1022 0000 80B4     		push	{r7}
 1023 0002 83B0     		sub	sp, sp, #12
 1024 0004 00AF     		add	r7, sp, #0
 1025 0006 7860     		str	r0, [r7, #4]
 1026 0008 7B68     		ldr	r3, [r7, #4]
 1027 000a 9B68     		ldr	r3, [r3, #8]
 1028 000c 03F00803 		and	r3, r3, #8
 1029 0010 082B     		cmp	r3, #8
 1030 0012 01D1     		bne	.L61
ARM GAS  /var/folders/k1/1yttftd15rl7jxtpyc5m93n80000gn/T//ccruZCkn.s 			page 18


 1031 0014 0123     		movs	r3, #1
 1032 0016 00E0     		b	.L63
 1033              	.L61:
 1034 0018 0023     		movs	r3, #0
 1035              	.L63:
 1036 001a 1846     		mov	r0, r3
 1037 001c 0C37     		adds	r7, r7, #12
 1038 001e BD46     		mov	sp, r7
 1039              		@ sp needed
 1040 0020 5DF8047B 		ldr	r7, [sp], #4
 1041 0024 7047     		bx	lr
 1043              		.section	.text.LL_ADC_ClearFlag_AWD1,"ax",%progbits
 1044              		.align	1
 1045              		.syntax unified
 1046              		.thumb
 1047              		.thumb_func
 1049              	LL_ADC_ClearFlag_AWD1:
 1050              		@ args = 0, pretend = 0, frame = 8
 1051              		@ frame_needed = 1, uses_anonymous_args = 0
 1052              		@ link register save eliminated.
 1053 0000 80B4     		push	{r7}
 1054 0002 83B0     		sub	sp, sp, #12
 1055 0004 00AF     		add	r7, sp, #0
 1056 0006 7860     		str	r0, [r7, #4]
 1057 0008 7B68     		ldr	r3, [r7, #4]
 1058 000a 8022     		movs	r2, #128
 1059 000c 1A60     		str	r2, [r3]
 1060 000e 00BF     		nop
 1061 0010 0C37     		adds	r7, r7, #12
 1062 0012 BD46     		mov	sp, r7
 1063              		@ sp needed
 1064 0014 5DF8047B 		ldr	r7, [sp], #4
 1065 0018 7047     		bx	lr
 1067              		.section	.text.LL_ADC_ClearFlag_AWD2,"ax",%progbits
 1068              		.align	1
 1069              		.syntax unified
 1070              		.thumb
 1071              		.thumb_func
 1073              	LL_ADC_ClearFlag_AWD2:
 1074              		@ args = 0, pretend = 0, frame = 8
 1075              		@ frame_needed = 1, uses_anonymous_args = 0
 1076              		@ link register save eliminated.
 1077 0000 80B4     		push	{r7}
 1078 0002 83B0     		sub	sp, sp, #12
 1079 0004 00AF     		add	r7, sp, #0
 1080 0006 7860     		str	r0, [r7, #4]
 1081 0008 7B68     		ldr	r3, [r7, #4]
 1082 000a 4FF48072 		mov	r2, #256
 1083 000e 1A60     		str	r2, [r3]
 1084 0010 00BF     		nop
 1085 0012 0C37     		adds	r7, r7, #12
 1086 0014 BD46     		mov	sp, r7
 1087              		@ sp needed
 1088 0016 5DF8047B 		ldr	r7, [sp], #4
 1089 001a 7047     		bx	lr
 1091              		.section	.text.LL_ADC_ClearFlag_AWD3,"ax",%progbits
 1092              		.align	1
ARM GAS  /var/folders/k1/1yttftd15rl7jxtpyc5m93n80000gn/T//ccruZCkn.s 			page 19


 1093              		.syntax unified
 1094              		.thumb
 1095              		.thumb_func
 1097              	LL_ADC_ClearFlag_AWD3:
 1098              		@ args = 0, pretend = 0, frame = 8
 1099              		@ frame_needed = 1, uses_anonymous_args = 0
 1100              		@ link register save eliminated.
 1101 0000 80B4     		push	{r7}
 1102 0002 83B0     		sub	sp, sp, #12
 1103 0004 00AF     		add	r7, sp, #0
 1104 0006 7860     		str	r0, [r7, #4]
 1105 0008 7B68     		ldr	r3, [r7, #4]
 1106 000a 4FF40072 		mov	r2, #512
 1107 000e 1A60     		str	r2, [r3]
 1108 0010 00BF     		nop
 1109 0012 0C37     		adds	r7, r7, #12
 1110 0014 BD46     		mov	sp, r7
 1111              		@ sp needed
 1112 0016 5DF8047B 		ldr	r7, [sp], #4
 1113 001a 7047     		bx	lr
 1115              		.section	.text.LL_ADC_EnableIT_AWD1,"ax",%progbits
 1116              		.align	1
 1117              		.syntax unified
 1118              		.thumb
 1119              		.thumb_func
 1121              	LL_ADC_EnableIT_AWD1:
 1122              		@ args = 0, pretend = 0, frame = 8
 1123              		@ frame_needed = 1, uses_anonymous_args = 0
 1124              		@ link register save eliminated.
 1125 0000 80B4     		push	{r7}
 1126 0002 83B0     		sub	sp, sp, #12
 1127 0004 00AF     		add	r7, sp, #0
 1128 0006 7860     		str	r0, [r7, #4]
 1129 0008 7B68     		ldr	r3, [r7, #4]
 1130 000a 5B68     		ldr	r3, [r3, #4]
 1131 000c 43F08002 		orr	r2, r3, #128
 1132 0010 7B68     		ldr	r3, [r7, #4]
 1133 0012 5A60     		str	r2, [r3, #4]
 1134 0014 00BF     		nop
 1135 0016 0C37     		adds	r7, r7, #12
 1136 0018 BD46     		mov	sp, r7
 1137              		@ sp needed
 1138 001a 5DF8047B 		ldr	r7, [sp], #4
 1139 001e 7047     		bx	lr
 1141              		.section	.text.LL_ADC_EnableIT_AWD2,"ax",%progbits
 1142              		.align	1
 1143              		.syntax unified
 1144              		.thumb
 1145              		.thumb_func
 1147              	LL_ADC_EnableIT_AWD2:
 1148              		@ args = 0, pretend = 0, frame = 8
 1149              		@ frame_needed = 1, uses_anonymous_args = 0
 1150              		@ link register save eliminated.
 1151 0000 80B4     		push	{r7}
 1152 0002 83B0     		sub	sp, sp, #12
 1153 0004 00AF     		add	r7, sp, #0
 1154 0006 7860     		str	r0, [r7, #4]
ARM GAS  /var/folders/k1/1yttftd15rl7jxtpyc5m93n80000gn/T//ccruZCkn.s 			page 20


 1155 0008 7B68     		ldr	r3, [r7, #4]
 1156 000a 5B68     		ldr	r3, [r3, #4]
 1157 000c 43F48072 		orr	r2, r3, #256
 1158 0010 7B68     		ldr	r3, [r7, #4]
 1159 0012 5A60     		str	r2, [r3, #4]
 1160 0014 00BF     		nop
 1161 0016 0C37     		adds	r7, r7, #12
 1162 0018 BD46     		mov	sp, r7
 1163              		@ sp needed
 1164 001a 5DF8047B 		ldr	r7, [sp], #4
 1165 001e 7047     		bx	lr
 1167              		.section	.text.LL_ADC_EnableIT_AWD3,"ax",%progbits
 1168              		.align	1
 1169              		.syntax unified
 1170              		.thumb
 1171              		.thumb_func
 1173              	LL_ADC_EnableIT_AWD3:
 1174              		@ args = 0, pretend = 0, frame = 8
 1175              		@ frame_needed = 1, uses_anonymous_args = 0
 1176              		@ link register save eliminated.
 1177 0000 80B4     		push	{r7}
 1178 0002 83B0     		sub	sp, sp, #12
 1179 0004 00AF     		add	r7, sp, #0
 1180 0006 7860     		str	r0, [r7, #4]
 1181 0008 7B68     		ldr	r3, [r7, #4]
 1182 000a 5B68     		ldr	r3, [r3, #4]
 1183 000c 43F40072 		orr	r2, r3, #512
 1184 0010 7B68     		ldr	r3, [r7, #4]
 1185 0012 5A60     		str	r2, [r3, #4]
 1186 0014 00BF     		nop
 1187 0016 0C37     		adds	r7, r7, #12
 1188 0018 BD46     		mov	sp, r7
 1189              		@ sp needed
 1190 001a 5DF8047B 		ldr	r7, [sp], #4
 1191 001e 7047     		bx	lr
 1193              		.section	.text.LL_ADC_DisableIT_AWD1,"ax",%progbits
 1194              		.align	1
 1195              		.syntax unified
 1196              		.thumb
 1197              		.thumb_func
 1199              	LL_ADC_DisableIT_AWD1:
 1200              		@ args = 0, pretend = 0, frame = 8
 1201              		@ frame_needed = 1, uses_anonymous_args = 0
 1202              		@ link register save eliminated.
 1203 0000 80B4     		push	{r7}
 1204 0002 83B0     		sub	sp, sp, #12
 1205 0004 00AF     		add	r7, sp, #0
 1206 0006 7860     		str	r0, [r7, #4]
 1207 0008 7B68     		ldr	r3, [r7, #4]
 1208 000a 5B68     		ldr	r3, [r3, #4]
 1209 000c 23F08002 		bic	r2, r3, #128
 1210 0010 7B68     		ldr	r3, [r7, #4]
 1211 0012 5A60     		str	r2, [r3, #4]
 1212 0014 00BF     		nop
 1213 0016 0C37     		adds	r7, r7, #12
 1214 0018 BD46     		mov	sp, r7
 1215              		@ sp needed
ARM GAS  /var/folders/k1/1yttftd15rl7jxtpyc5m93n80000gn/T//ccruZCkn.s 			page 21


 1216 001a 5DF8047B 		ldr	r7, [sp], #4
 1217 001e 7047     		bx	lr
 1219              		.section	.text.LL_ADC_DisableIT_AWD2,"ax",%progbits
 1220              		.align	1
 1221              		.syntax unified
 1222              		.thumb
 1223              		.thumb_func
 1225              	LL_ADC_DisableIT_AWD2:
 1226              		@ args = 0, pretend = 0, frame = 8
 1227              		@ frame_needed = 1, uses_anonymous_args = 0
 1228              		@ link register save eliminated.
 1229 0000 80B4     		push	{r7}
 1230 0002 83B0     		sub	sp, sp, #12
 1231 0004 00AF     		add	r7, sp, #0
 1232 0006 7860     		str	r0, [r7, #4]
 1233 0008 7B68     		ldr	r3, [r7, #4]
 1234 000a 5B68     		ldr	r3, [r3, #4]
 1235 000c 23F48072 		bic	r2, r3, #256
 1236 0010 7B68     		ldr	r3, [r7, #4]
 1237 0012 5A60     		str	r2, [r3, #4]
 1238 0014 00BF     		nop
 1239 0016 0C37     		adds	r7, r7, #12
 1240 0018 BD46     		mov	sp, r7
 1241              		@ sp needed
 1242 001a 5DF8047B 		ldr	r7, [sp], #4
 1243 001e 7047     		bx	lr
 1245              		.section	.text.LL_ADC_DisableIT_AWD3,"ax",%progbits
 1246              		.align	1
 1247              		.syntax unified
 1248              		.thumb
 1249              		.thumb_func
 1251              	LL_ADC_DisableIT_AWD3:
 1252              		@ args = 0, pretend = 0, frame = 8
 1253              		@ frame_needed = 1, uses_anonymous_args = 0
 1254              		@ link register save eliminated.
 1255 0000 80B4     		push	{r7}
 1256 0002 83B0     		sub	sp, sp, #12
 1257 0004 00AF     		add	r7, sp, #0
 1258 0006 7860     		str	r0, [r7, #4]
 1259 0008 7B68     		ldr	r3, [r7, #4]
 1260 000a 5B68     		ldr	r3, [r3, #4]
 1261 000c 23F40072 		bic	r2, r3, #512
 1262 0010 7B68     		ldr	r3, [r7, #4]
 1263 0012 5A60     		str	r2, [r3, #4]
 1264 0014 00BF     		nop
 1265 0016 0C37     		adds	r7, r7, #12
 1266 0018 BD46     		mov	sp, r7
 1267              		@ sp needed
 1268 001a 5DF8047B 		ldr	r7, [sp], #4
 1269 001e 7047     		bx	lr
 1271              		.section	.text.HAL_ADC_Init,"ax",%progbits
 1272              		.align	1
 1273              		.global	HAL_ADC_Init
 1274              		.syntax unified
 1275              		.thumb
 1276              		.thumb_func
 1278              	HAL_ADC_Init:
ARM GAS  /var/folders/k1/1yttftd15rl7jxtpyc5m93n80000gn/T//ccruZCkn.s 			page 22


 1279              		@ args = 0, pretend = 0, frame = 32
 1280              		@ frame_needed = 1, uses_anonymous_args = 0
 1281 0000 90B5     		push	{r4, r7, lr}
 1282 0002 89B0     		sub	sp, sp, #36
 1283 0004 00AF     		add	r7, sp, #0
 1284 0006 7860     		str	r0, [r7, #4]
 1285 0008 0023     		movs	r3, #0
 1286 000a FB77     		strb	r3, [r7, #31]
 1287 000c 0023     		movs	r3, #0
 1288 000e FB60     		str	r3, [r7, #12]
 1289 0010 7B68     		ldr	r3, [r7, #4]
 1290 0012 002B     		cmp	r3, #0
 1291 0014 01D1     		bne	.L74
 1292 0016 0123     		movs	r3, #1
 1293 0018 A9E1     		b	.L75
 1294              	.L74:
 1295 001a 7B68     		ldr	r3, [r7, #4]
 1296 001c 5B69     		ldr	r3, [r3, #20]
 1297 001e 002B     		cmp	r3, #0
 1298 0020 7B68     		ldr	r3, [r7, #4]
 1299 0022 DB6D     		ldr	r3, [r3, #92]
 1300 0024 002B     		cmp	r3, #0
 1301 0026 09D1     		bne	.L77
 1302 0028 7868     		ldr	r0, [r7, #4]
 1303 002a FFF7FEFF 		bl	HAL_ADC_MspInit
 1304 002e 7B68     		ldr	r3, [r7, #4]
 1305 0030 0022     		movs	r2, #0
 1306 0032 1A66     		str	r2, [r3, #96]
 1307 0034 7B68     		ldr	r3, [r7, #4]
 1308 0036 0022     		movs	r2, #0
 1309 0038 83F85820 		strb	r2, [r3, #88]
 1310              	.L77:
 1311 003c 7B68     		ldr	r3, [r7, #4]
 1312 003e 1B68     		ldr	r3, [r3]
 1313 0040 1846     		mov	r0, r3
 1314 0042 FFF7FEFF 		bl	LL_ADC_IsDeepPowerDownEnabled
 1315 0046 0346     		mov	r3, r0
 1316 0048 002B     		cmp	r3, #0
 1317 004a 04D0     		beq	.L78
 1318 004c 7B68     		ldr	r3, [r7, #4]
 1319 004e 1B68     		ldr	r3, [r3]
 1320 0050 1846     		mov	r0, r3
 1321 0052 FFF7FEFF 		bl	LL_ADC_DisableDeepPowerDown
 1322              	.L78:
 1323 0056 7B68     		ldr	r3, [r7, #4]
 1324 0058 1B68     		ldr	r3, [r3]
 1325 005a 1846     		mov	r0, r3
 1326 005c FFF7FEFF 		bl	LL_ADC_IsInternalRegulatorEnabled
 1327 0060 0346     		mov	r3, r0
 1328 0062 002B     		cmp	r3, #0
 1329 0064 15D1     		bne	.L79
 1330 0066 7B68     		ldr	r3, [r7, #4]
 1331 0068 1B68     		ldr	r3, [r3]
 1332 006a 1846     		mov	r0, r3
 1333 006c FFF7FEFF 		bl	LL_ADC_EnableInternalRegulator
 1334 0070 9C4B     		ldr	r3, .L100
 1335 0072 1B68     		ldr	r3, [r3]
ARM GAS  /var/folders/k1/1yttftd15rl7jxtpyc5m93n80000gn/T//ccruZCkn.s 			page 23


 1336 0074 9B09     		lsrs	r3, r3, #6
 1337 0076 9C4A     		ldr	r2, .L100+4
 1338 0078 A2FB0323 		umull	r2, r3, r2, r3
 1339 007c 9B09     		lsrs	r3, r3, #6
 1340 007e 0133     		adds	r3, r3, #1
 1341 0080 5B00     		lsls	r3, r3, #1
 1342 0082 FB60     		str	r3, [r7, #12]
 1343 0084 02E0     		b	.L80
 1344              	.L81:
 1345 0086 FB68     		ldr	r3, [r7, #12]
 1346 0088 013B     		subs	r3, r3, #1
 1347 008a FB60     		str	r3, [r7, #12]
 1348              	.L80:
 1349 008c FB68     		ldr	r3, [r7, #12]
 1350 008e 002B     		cmp	r3, #0
 1351 0090 F9D1     		bne	.L81
 1352              	.L79:
 1353 0092 7B68     		ldr	r3, [r7, #4]
 1354 0094 1B68     		ldr	r3, [r3]
 1355 0096 1846     		mov	r0, r3
 1356 0098 FFF7FEFF 		bl	LL_ADC_IsInternalRegulatorEnabled
 1357 009c 0346     		mov	r3, r0
 1358 009e 002B     		cmp	r3, #0
 1359 00a0 0DD1     		bne	.L82
 1360 00a2 7B68     		ldr	r3, [r7, #4]
 1361 00a4 DB6D     		ldr	r3, [r3, #92]
 1362 00a6 43F01002 		orr	r2, r3, #16
 1363 00aa 7B68     		ldr	r3, [r7, #4]
 1364 00ac DA65     		str	r2, [r3, #92]
 1365 00ae 7B68     		ldr	r3, [r7, #4]
 1366 00b0 1B6E     		ldr	r3, [r3, #96]
 1367 00b2 43F00102 		orr	r2, r3, #1
 1368 00b6 7B68     		ldr	r3, [r7, #4]
 1369 00b8 1A66     		str	r2, [r3, #96]
 1370 00ba 0123     		movs	r3, #1
 1371 00bc FB77     		strb	r3, [r7, #31]
 1372              	.L82:
 1373 00be 7B68     		ldr	r3, [r7, #4]
 1374 00c0 1B68     		ldr	r3, [r3]
 1375 00c2 1846     		mov	r0, r3
 1376 00c4 FFF7FEFF 		bl	LL_ADC_REG_IsConversionOngoing
 1377 00c8 7861     		str	r0, [r7, #20]
 1378 00ca 7B68     		ldr	r3, [r7, #4]
 1379 00cc DB6D     		ldr	r3, [r3, #92]
 1380 00ce 03F01003 		and	r3, r3, #16
 1381 00d2 002B     		cmp	r3, #0
 1382 00d4 40F04281 		bne	.L83
 1383 00d8 7B69     		ldr	r3, [r7, #20]
 1384 00da 002B     		cmp	r3, #0
 1385 00dc 40F03E81 		bne	.L83
 1386 00e0 7B68     		ldr	r3, [r7, #4]
 1387 00e2 DB6D     		ldr	r3, [r3, #92]
 1388 00e4 23F48173 		bic	r3, r3, #258
 1389 00e8 43F00202 		orr	r2, r3, #2
 1390 00ec 7B68     		ldr	r3, [r7, #4]
 1391 00ee DA65     		str	r2, [r3, #92]
 1392 00f0 7B68     		ldr	r3, [r7, #4]
ARM GAS  /var/folders/k1/1yttftd15rl7jxtpyc5m93n80000gn/T//ccruZCkn.s 			page 24


 1393 00f2 1B68     		ldr	r3, [r3]
 1394 00f4 1846     		mov	r0, r3
 1395 00f6 FFF7FEFF 		bl	LL_ADC_IsEnabled
 1396 00fa 0346     		mov	r3, r0
 1397 00fc 002B     		cmp	r3, #0
 1398 00fe 41D1     		bne	.L84
 1399 0100 7B68     		ldr	r3, [r7, #4]
 1400 0102 1B68     		ldr	r3, [r3]
 1401 0104 B3F1A04F 		cmp	r3, #1342177280
 1402 0108 04D0     		beq	.L85
 1403 010a 7B68     		ldr	r3, [r7, #4]
 1404 010c 1B68     		ldr	r3, [r3]
 1405 010e 774A     		ldr	r2, .L100+8
 1406 0110 9342     		cmp	r3, r2
 1407 0112 0FD1     		bne	.L86
 1408              	.L85:
 1409 0114 4FF0A040 		mov	r0, #1342177280
 1410 0118 FFF7FEFF 		bl	LL_ADC_IsEnabled
 1411 011c 0446     		mov	r4, r0
 1412 011e 7348     		ldr	r0, .L100+8
 1413 0120 FFF7FEFF 		bl	LL_ADC_IsEnabled
 1414 0124 0346     		mov	r3, r0
 1415 0126 2343     		orrs	r3, r3, r4
 1416 0128 002B     		cmp	r3, #0
 1417 012a 0CBF     		ite	eq
 1418 012c 0123     		moveq	r3, #1
 1419 012e 0023     		movne	r3, #0
 1420 0130 DBB2     		uxtb	r3, r3
 1421 0132 12E0     		b	.L87
 1422              	.L86:
 1423 0134 6E48     		ldr	r0, .L100+12
 1424 0136 FFF7FEFF 		bl	LL_ADC_IsEnabled
 1425 013a 0446     		mov	r4, r0
 1426 013c 6D48     		ldr	r0, .L100+16
 1427 013e FFF7FEFF 		bl	LL_ADC_IsEnabled
 1428 0142 0346     		mov	r3, r0
 1429 0144 1C43     		orrs	r4, r4, r3
 1430 0146 6C48     		ldr	r0, .L100+20
 1431 0148 FFF7FEFF 		bl	LL_ADC_IsEnabled
 1432 014c 0346     		mov	r3, r0
 1433 014e 2343     		orrs	r3, r3, r4
 1434 0150 002B     		cmp	r3, #0
 1435 0152 0CBF     		ite	eq
 1436 0154 0123     		moveq	r3, #1
 1437 0156 0023     		movne	r3, #0
 1438 0158 DBB2     		uxtb	r3, r3
 1439              	.L87:
 1440 015a 002B     		cmp	r3, #0
 1441 015c 12D0     		beq	.L84
 1442 015e 7B68     		ldr	r3, [r7, #4]
 1443 0160 1B68     		ldr	r3, [r3]
 1444 0162 B3F1A04F 		cmp	r3, #1342177280
 1445 0166 04D0     		beq	.L88
 1446 0168 7B68     		ldr	r3, [r7, #4]
 1447 016a 1B68     		ldr	r3, [r3]
 1448 016c 5F4A     		ldr	r2, .L100+8
 1449 016e 9342     		cmp	r3, r2
ARM GAS  /var/folders/k1/1yttftd15rl7jxtpyc5m93n80000gn/T//ccruZCkn.s 			page 25


 1450 0170 01D1     		bne	.L89
 1451              	.L88:
 1452 0172 624A     		ldr	r2, .L100+24
 1453 0174 00E0     		b	.L90
 1454              	.L89:
 1455 0176 624A     		ldr	r2, .L100+28
 1456              	.L90:
 1457 0178 7B68     		ldr	r3, [r7, #4]
 1458 017a 5B68     		ldr	r3, [r3, #4]
 1459 017c 1946     		mov	r1, r3
 1460 017e 1046     		mov	r0, r2
 1461 0180 FFF7FEFF 		bl	LL_ADC_SetCommonClock
 1462              	.L84:
 1463 0184 7B68     		ldr	r3, [r7, #4]
 1464 0186 5B7F     		ldrb	r3, [r3, #29]	@ zero_extendqisi2
 1465 0188 5A03     		lsls	r2, r3, #13
 1466 018a 7B68     		ldr	r3, [r7, #4]
 1467 018c DB6B     		ldr	r3, [r3, #60]
 1468 018e 1A43     		orrs	r2, r2, r3
 1469 0190 7B68     		ldr	r3, [r7, #4]
 1470 0192 DB68     		ldr	r3, [r3, #12]
 1471 0194 1A43     		orrs	r2, r2, r3
 1472 0196 7B68     		ldr	r3, [r7, #4]
 1473 0198 9B68     		ldr	r3, [r3, #8]
 1474 019a 1A43     		orrs	r2, r2, r3
 1475 019c 7B68     		ldr	r3, [r7, #4]
 1476 019e 93F82430 		ldrb	r3, [r3, #36]	@ zero_extendqisi2
 1477 01a2 1B04     		lsls	r3, r3, #16
 1478 01a4 1343     		orrs	r3, r3, r2
 1479 01a6 BB61     		str	r3, [r7, #24]
 1480 01a8 7B68     		ldr	r3, [r7, #4]
 1481 01aa 93F82430 		ldrb	r3, [r3, #36]	@ zero_extendqisi2
 1482 01ae 012B     		cmp	r3, #1
 1483 01b0 06D1     		bne	.L91
 1484 01b2 7B68     		ldr	r3, [r7, #4]
 1485 01b4 9B6A     		ldr	r3, [r3, #40]
 1486 01b6 013B     		subs	r3, r3, #1
 1487 01b8 5B04     		lsls	r3, r3, #17
 1488 01ba BA69     		ldr	r2, [r7, #24]
 1489 01bc 1343     		orrs	r3, r3, r2
 1490 01be BB61     		str	r3, [r7, #24]
 1491              	.L91:
 1492 01c0 7B68     		ldr	r3, [r7, #4]
 1493 01c2 DB6A     		ldr	r3, [r3, #44]
 1494 01c4 002B     		cmp	r3, #0
 1495 01c6 09D0     		beq	.L92
 1496 01c8 7B68     		ldr	r3, [r7, #4]
 1497 01ca DB6A     		ldr	r3, [r3, #44]
 1498 01cc 03F47872 		and	r2, r3, #992
 1499 01d0 7B68     		ldr	r3, [r7, #4]
 1500 01d2 1B6B     		ldr	r3, [r3, #48]
 1501 01d4 1343     		orrs	r3, r3, r2
 1502 01d6 BA69     		ldr	r2, [r7, #24]
 1503 01d8 1343     		orrs	r3, r3, r2
 1504 01da BB61     		str	r3, [r7, #24]
 1505              	.L92:
 1506 01dc 7B68     		ldr	r3, [r7, #4]
ARM GAS  /var/folders/k1/1yttftd15rl7jxtpyc5m93n80000gn/T//ccruZCkn.s 			page 26


 1507 01de 1B68     		ldr	r3, [r3]
 1508 01e0 DA68     		ldr	r2, [r3, #12]
 1509 01e2 484B     		ldr	r3, .L100+32
 1510 01e4 1340     		ands	r3, r3, r2
 1511 01e6 7A68     		ldr	r2, [r7, #4]
 1512 01e8 1268     		ldr	r2, [r2]
 1513 01ea B969     		ldr	r1, [r7, #24]
 1514 01ec 0B43     		orrs	r3, r3, r1
 1515 01ee D360     		str	r3, [r2, #12]
 1516 01f0 7B68     		ldr	r3, [r7, #4]
 1517 01f2 1B68     		ldr	r3, [r3]
 1518 01f4 1B69     		ldr	r3, [r3, #16]
 1519 01f6 23F04061 		bic	r1, r3, #201326592
 1520 01fa 7B68     		ldr	r3, [r7, #4]
 1521 01fc 5A6B     		ldr	r2, [r3, #52]
 1522 01fe 7B68     		ldr	r3, [r7, #4]
 1523 0200 1B68     		ldr	r3, [r3]
 1524 0202 0A43     		orrs	r2, r2, r1
 1525 0204 1A61     		str	r2, [r3, #16]
 1526 0206 7B68     		ldr	r3, [r7, #4]
 1527 0208 1B68     		ldr	r3, [r3]
 1528 020a 1846     		mov	r0, r3
 1529 020c FFF7FEFF 		bl	LL_ADC_INJ_IsConversionOngoing
 1530 0210 3861     		str	r0, [r7, #16]
 1531 0212 7B69     		ldr	r3, [r7, #20]
 1532 0214 002B     		cmp	r3, #0
 1533 0216 7FD1     		bne	.L93
 1534 0218 3B69     		ldr	r3, [r7, #16]
 1535 021a 002B     		cmp	r3, #0
 1536 021c 7CD1     		bne	.L93
 1537 021e 7B68     		ldr	r3, [r7, #4]
 1538 0220 1B7F     		ldrb	r3, [r3, #28]	@ zero_extendqisi2
 1539 0222 9A03     		lsls	r2, r3, #14
 1540 0224 7B68     		ldr	r3, [r7, #4]
 1541 0226 93F83830 		ldrb	r3, [r3, #56]	@ zero_extendqisi2
 1542 022a 5B00     		lsls	r3, r3, #1
 1543 022c 1343     		orrs	r3, r3, r2
 1544 022e BB61     		str	r3, [r7, #24]
 1545 0230 7B68     		ldr	r3, [r7, #4]
 1546 0232 1B68     		ldr	r3, [r3]
 1547 0234 DB68     		ldr	r3, [r3, #12]
 1548 0236 23F48043 		bic	r3, r3, #16384
 1549 023a 23F00203 		bic	r3, r3, #2
 1550 023e 7A68     		ldr	r2, [r7, #4]
 1551 0240 1268     		ldr	r2, [r2]
 1552 0242 B969     		ldr	r1, [r7, #24]
 1553 0244 0B43     		orrs	r3, r3, r1
 1554 0246 D360     		str	r3, [r2, #12]
 1555 0248 7B68     		ldr	r3, [r7, #4]
 1556 024a 1B69     		ldr	r3, [r3, #16]
 1557 024c 002B     		cmp	r3, #0
 1558 024e 17D0     		beq	.L94
 1559 0250 7B68     		ldr	r3, [r7, #4]
 1560 0252 1B68     		ldr	r3, [r3]
 1561 0254 1A69     		ldr	r2, [r3, #16]
 1562 0256 7B68     		ldr	r3, [r7, #4]
 1563 0258 1B68     		ldr	r3, [r3]
ARM GAS  /var/folders/k1/1yttftd15rl7jxtpyc5m93n80000gn/T//ccruZCkn.s 			page 27


 1564 025a 42F48032 		orr	r2, r2, #65536
 1565 025e 1A61     		str	r2, [r3, #16]
 1566 0260 7B68     		ldr	r3, [r7, #4]
 1567 0262 1B68     		ldr	r3, [r3]
 1568 0264 D3F8C030 		ldr	r3, [r3, #192]
 1569 0268 23F47F53 		bic	r3, r3, #16320
 1570 026c 23F03F03 		bic	r3, r3, #63
 1571 0270 7A68     		ldr	r2, [r7, #4]
 1572 0272 1169     		ldr	r1, [r2, #16]
 1573 0274 7A68     		ldr	r2, [r7, #4]
 1574 0276 1268     		ldr	r2, [r2]
 1575 0278 0B43     		orrs	r3, r3, r1
 1576 027a C2F8C030 		str	r3, [r2, #192]
 1577 027e 13E0     		b	.L95
 1578              	.L94:
 1579 0280 7B68     		ldr	r3, [r7, #4]
 1580 0282 1B68     		ldr	r3, [r3]
 1581 0284 1A69     		ldr	r2, [r3, #16]
 1582 0286 7B68     		ldr	r3, [r7, #4]
 1583 0288 1B68     		ldr	r3, [r3]
 1584 028a 22F48032 		bic	r2, r2, #65536
 1585 028e 1A61     		str	r2, [r3, #16]
 1586 0290 7B68     		ldr	r3, [r7, #4]
 1587 0292 1B68     		ldr	r3, [r3]
 1588 0294 D3F8C030 		ldr	r3, [r3, #192]
 1589 0298 7A68     		ldr	r2, [r7, #4]
 1590 029a 1268     		ldr	r2, [r2]
 1591 029c 23F47F53 		bic	r3, r3, #16320
 1592 02a0 23F03F03 		bic	r3, r3, #63
 1593 02a4 C2F8C030 		str	r3, [r2, #192]
 1594              	.L95:
 1595 02a8 7B68     		ldr	r3, [r7, #4]
 1596 02aa 93F84030 		ldrb	r3, [r3, #64]	@ zero_extendqisi2
 1597 02ae 012B     		cmp	r3, #1
 1598 02b0 2AD1     		bne	.L96
 1599 02b2 7B68     		ldr	r3, [r7, #4]
 1600 02b4 1B68     		ldr	r3, [r3]
 1601 02b6 1B69     		ldr	r3, [r3, #16]
 1602 02b8 23F4FF63 		bic	r3, r3, #2040
 1603 02bc 23F00403 		bic	r3, r3, #4
 1604 02c0 7A68     		ldr	r2, [r7, #4]
 1605 02c2 516C     		ldr	r1, [r2, #68]
 1606 02c4 7A68     		ldr	r2, [r7, #4]
 1607 02c6 926C     		ldr	r2, [r2, #72]
 1608 02c8 1143     		orrs	r1, r1, r2
 1609 02ca 7A68     		ldr	r2, [r7, #4]
 1610 02cc D26C     		ldr	r2, [r2, #76]
 1611 02ce 1143     		orrs	r1, r1, r2
 1612 02d0 7A68     		ldr	r2, [r7, #4]
 1613 02d2 126D     		ldr	r2, [r2, #80]
 1614 02d4 0A43     		orrs	r2, r2, r1
 1615 02d6 1A43     		orrs	r2, r2, r3
 1616 02d8 7B68     		ldr	r3, [r7, #4]
 1617 02da 1B68     		ldr	r3, [r3]
 1618 02dc 42F00102 		orr	r2, r2, #1
 1619 02e0 1A61     		str	r2, [r3, #16]
 1620 02e2 19E0     		b	.L93
ARM GAS  /var/folders/k1/1yttftd15rl7jxtpyc5m93n80000gn/T//ccruZCkn.s 			page 28


 1621              	.L101:
 1622              		.align	2
 1623              	.L100:
 1624 02e4 00000000 		.word	SystemCoreClock
 1625 02e8 632D3E05 		.word	87960931
 1626 02ec 00010050 		.word	1342177536
 1627 02f0 00040050 		.word	1342178304
 1628 02f4 00050050 		.word	1342178560
 1629 02f8 00060050 		.word	1342178816
 1630 02fc 00030050 		.word	1342178048
 1631 0300 00070050 		.word	1342179072
 1632 0304 0740F0FF 		.word	-1032185
 1633              	.L96:
 1634 0308 7B68     		ldr	r3, [r7, #4]
 1635 030a 1B68     		ldr	r3, [r3]
 1636 030c 1A69     		ldr	r2, [r3, #16]
 1637 030e 7B68     		ldr	r3, [r7, #4]
 1638 0310 1B68     		ldr	r3, [r3]
 1639 0312 22F00102 		bic	r2, r2, #1
 1640 0316 1A61     		str	r2, [r3, #16]
 1641              	.L93:
 1642 0318 7B68     		ldr	r3, [r7, #4]
 1643 031a 5B69     		ldr	r3, [r3, #20]
 1644 031c 012B     		cmp	r3, #1
 1645 031e 0CD1     		bne	.L97
 1646 0320 7B68     		ldr	r3, [r7, #4]
 1647 0322 1B68     		ldr	r3, [r3]
 1648 0324 1B6B     		ldr	r3, [r3, #48]
 1649 0326 23F00F01 		bic	r1, r3, #15
 1650 032a 7B68     		ldr	r3, [r7, #4]
 1651 032c 1B6A     		ldr	r3, [r3, #32]
 1652 032e 5A1E     		subs	r2, r3, #1
 1653 0330 7B68     		ldr	r3, [r7, #4]
 1654 0332 1B68     		ldr	r3, [r3]
 1655 0334 0A43     		orrs	r2, r2, r1
 1656 0336 1A63     		str	r2, [r3, #48]
 1657 0338 07E0     		b	.L98
 1658              	.L97:
 1659 033a 7B68     		ldr	r3, [r7, #4]
 1660 033c 1B68     		ldr	r3, [r3]
 1661 033e 1A6B     		ldr	r2, [r3, #48]
 1662 0340 7B68     		ldr	r3, [r7, #4]
 1663 0342 1B68     		ldr	r3, [r3]
 1664 0344 22F00F02 		bic	r2, r2, #15
 1665 0348 1A63     		str	r2, [r3, #48]
 1666              	.L98:
 1667 034a 7B68     		ldr	r3, [r7, #4]
 1668 034c DB6D     		ldr	r3, [r3, #92]
 1669 034e 23F00303 		bic	r3, r3, #3
 1670 0352 43F00102 		orr	r2, r3, #1
 1671 0356 7B68     		ldr	r3, [r7, #4]
 1672 0358 DA65     		str	r2, [r3, #92]
 1673 035a 07E0     		b	.L99
 1674              	.L83:
 1675 035c 7B68     		ldr	r3, [r7, #4]
 1676 035e DB6D     		ldr	r3, [r3, #92]
 1677 0360 43F01002 		orr	r2, r3, #16
ARM GAS  /var/folders/k1/1yttftd15rl7jxtpyc5m93n80000gn/T//ccruZCkn.s 			page 29


 1678 0364 7B68     		ldr	r3, [r7, #4]
 1679 0366 DA65     		str	r2, [r3, #92]
 1680 0368 0123     		movs	r3, #1
 1681 036a FB77     		strb	r3, [r7, #31]
 1682              	.L99:
 1683 036c FB7F     		ldrb	r3, [r7, #31]	@ zero_extendqisi2
 1684              	.L75:
 1685 036e 1846     		mov	r0, r3
 1686 0370 2437     		adds	r7, r7, #36
 1687 0372 BD46     		mov	sp, r7
 1688              		@ sp needed
 1689 0374 90BD     		pop	{r4, r7, pc}
 1691 0376 00BF     		.section	.text.HAL_ADC_DeInit,"ax",%progbits
 1692              		.align	1
 1693              		.global	HAL_ADC_DeInit
 1694              		.syntax unified
 1695              		.thumb
 1696              		.thumb_func
 1698              	HAL_ADC_DeInit:
 1699              		@ args = 0, pretend = 0, frame = 16
 1700              		@ frame_needed = 1, uses_anonymous_args = 0
 1701 0000 90B5     		push	{r4, r7, lr}
 1702 0002 85B0     		sub	sp, sp, #20
 1703 0004 00AF     		add	r7, sp, #0
 1704 0006 7860     		str	r0, [r7, #4]
 1705 0008 7B68     		ldr	r3, [r7, #4]
 1706 000a 002B     		cmp	r3, #0
 1707 000c 01D1     		bne	.L103
 1708 000e 0123     		movs	r3, #1
 1709 0010 4DE1     		b	.L104
 1710              	.L103:
 1711 0012 7B68     		ldr	r3, [r7, #4]
 1712 0014 DB6D     		ldr	r3, [r3, #92]
 1713 0016 43F00202 		orr	r2, r3, #2
 1714 001a 7B68     		ldr	r3, [r7, #4]
 1715 001c DA65     		str	r2, [r3, #92]
 1716 001e 0321     		movs	r1, #3
 1717 0020 7868     		ldr	r0, [r7, #4]
 1718 0022 FFF7FEFF 		bl	ADC_ConversionStop
 1719 0026 0346     		mov	r3, r0
 1720 0028 FB73     		strb	r3, [r7, #15]
 1721 002a 7B68     		ldr	r3, [r7, #4]
 1722 002c 1B68     		ldr	r3, [r3]
 1723 002e DA68     		ldr	r2, [r3, #12]
 1724 0030 7B68     		ldr	r3, [r7, #4]
 1725 0032 1B68     		ldr	r3, [r3]
 1726 0034 42F40012 		orr	r2, r2, #2097152
 1727 0038 DA60     		str	r2, [r3, #12]
 1728 003a FB7B     		ldrb	r3, [r7, #15]	@ zero_extendqisi2
 1729 003c 002B     		cmp	r3, #0
 1730 003e 0AD1     		bne	.L105
 1731 0040 7868     		ldr	r0, [r7, #4]
 1732 0042 FFF7FEFF 		bl	ADC_Disable
 1733 0046 0346     		mov	r3, r0
 1734 0048 FB73     		strb	r3, [r7, #15]
 1735 004a FB7B     		ldrb	r3, [r7, #15]	@ zero_extendqisi2
 1736 004c 002B     		cmp	r3, #0
ARM GAS  /var/folders/k1/1yttftd15rl7jxtpyc5m93n80000gn/T//ccruZCkn.s 			page 30


 1737 004e 02D1     		bne	.L105
 1738 0050 7B68     		ldr	r3, [r7, #4]
 1739 0052 0122     		movs	r2, #1
 1740 0054 DA65     		str	r2, [r3, #92]
 1741              	.L105:
 1742 0056 7B68     		ldr	r3, [r7, #4]
 1743 0058 1B68     		ldr	r3, [r3]
 1744 005a 5B68     		ldr	r3, [r3, #4]
 1745 005c 7A68     		ldr	r2, [r7, #4]
 1746 005e 1268     		ldr	r2, [r2]
 1747 0060 23F4FF63 		bic	r3, r3, #2040
 1748 0064 23F00703 		bic	r3, r3, #7
 1749 0068 5360     		str	r3, [r2, #4]
 1750 006a 7B68     		ldr	r3, [r7, #4]
 1751 006c 1B68     		ldr	r3, [r3]
 1752 006e 40F2FF72 		movw	r2, #2047
 1753 0072 1A60     		str	r2, [r3]
 1754 0074 7B68     		ldr	r3, [r7, #4]
 1755 0076 1B68     		ldr	r3, [r3]
 1756 0078 9A68     		ldr	r2, [r3, #8]
 1757 007a 7B68     		ldr	r3, [r7, #4]
 1758 007c 1B68     		ldr	r3, [r3]
 1759 007e 22F0A042 		bic	r2, r2, #1342177280
 1760 0082 9A60     		str	r2, [r3, #8]
 1761 0084 7B68     		ldr	r3, [r7, #4]
 1762 0086 1B68     		ldr	r3, [r3]
 1763 0088 9A68     		ldr	r2, [r3, #8]
 1764 008a 7B68     		ldr	r3, [r7, #4]
 1765 008c 1B68     		ldr	r3, [r3]
 1766 008e 42F00052 		orr	r2, r2, #536870912
 1767 0092 9A60     		str	r2, [r3, #8]
 1768 0094 7B68     		ldr	r3, [r7, #4]
 1769 0096 1B68     		ldr	r3, [r3]
 1770 0098 D968     		ldr	r1, [r3, #12]
 1771 009a 7B68     		ldr	r3, [r7, #4]
 1772 009c 1A68     		ldr	r2, [r3]
 1773 009e 864B     		ldr	r3, .L116
 1774 00a0 0B40     		ands	r3, r3, r1
 1775 00a2 D360     		str	r3, [r2, #12]
 1776 00a4 7B68     		ldr	r3, [r7, #4]
 1777 00a6 1B68     		ldr	r3, [r3]
 1778 00a8 DA68     		ldr	r2, [r3, #12]
 1779 00aa 7B68     		ldr	r3, [r7, #4]
 1780 00ac 1B68     		ldr	r3, [r3]
 1781 00ae 42F00042 		orr	r2, r2, #-2147483648
 1782 00b2 DA60     		str	r2, [r3, #12]
 1783 00b4 7B68     		ldr	r3, [r7, #4]
 1784 00b6 1B68     		ldr	r3, [r3]
 1785 00b8 1B69     		ldr	r3, [r3, #16]
 1786 00ba 7A68     		ldr	r2, [r7, #4]
 1787 00bc 1268     		ldr	r2, [r2]
 1788 00be 23F4FF63 		bic	r3, r3, #2040
 1789 00c2 23F00703 		bic	r3, r3, #7
 1790 00c6 1361     		str	r3, [r2, #16]
 1791 00c8 7B68     		ldr	r3, [r7, #4]
 1792 00ca 1B68     		ldr	r3, [r3]
 1793 00cc 5A69     		ldr	r2, [r3, #20]
ARM GAS  /var/folders/k1/1yttftd15rl7jxtpyc5m93n80000gn/T//ccruZCkn.s 			page 31


 1794 00ce 7B68     		ldr	r3, [r7, #4]
 1795 00d0 1B68     		ldr	r3, [r3]
 1796 00d2 02F08042 		and	r2, r2, #1073741824
 1797 00d6 5A61     		str	r2, [r3, #20]
 1798 00d8 7B68     		ldr	r3, [r7, #4]
 1799 00da 1B68     		ldr	r3, [r3]
 1800 00dc 9A69     		ldr	r2, [r3, #24]
 1801 00de 7B68     		ldr	r3, [r7, #4]
 1802 00e0 1B68     		ldr	r3, [r3]
 1803 00e2 02F07842 		and	r2, r2, #-134217728
 1804 00e6 9A61     		str	r2, [r3, #24]
 1805 00e8 7B68     		ldr	r3, [r7, #4]
 1806 00ea 1B68     		ldr	r3, [r3]
 1807 00ec 1A6A     		ldr	r2, [r3, #32]
 1808 00ee 7B68     		ldr	r3, [r7, #4]
 1809 00f0 1B68     		ldr	r3, [r3]
 1810 00f2 02F0F022 		and	r2, r2, #-268374016
 1811 00f6 1A62     		str	r2, [r3, #32]
 1812 00f8 7B68     		ldr	r3, [r7, #4]
 1813 00fa 1B68     		ldr	r3, [r3]
 1814 00fc 5A6A     		ldr	r2, [r3, #36]
 1815 00fe 7B68     		ldr	r3, [r7, #4]
 1816 0100 1B68     		ldr	r3, [r3]
 1817 0102 02F0FF22 		and	r2, r2, #-16711936
 1818 0106 5A62     		str	r2, [r3, #36]
 1819 0108 7B68     		ldr	r3, [r7, #4]
 1820 010a 1B68     		ldr	r3, [r3]
 1821 010c 9A6A     		ldr	r2, [r3, #40]
 1822 010e 7B68     		ldr	r3, [r7, #4]
 1823 0110 1B68     		ldr	r3, [r3]
 1824 0112 02F0FF22 		and	r2, r2, #-16711936
 1825 0116 9A62     		str	r2, [r3, #40]
 1826 0118 7B68     		ldr	r3, [r7, #4]
 1827 011a 1B68     		ldr	r3, [r3]
 1828 011c 196B     		ldr	r1, [r3, #48]
 1829 011e 7B68     		ldr	r3, [r7, #4]
 1830 0120 1A68     		ldr	r2, [r3]
 1831 0122 664B     		ldr	r3, .L116+4
 1832 0124 0B40     		ands	r3, r3, r1
 1833 0126 1363     		str	r3, [r2, #48]
 1834 0128 7B68     		ldr	r3, [r7, #4]
 1835 012a 1B68     		ldr	r3, [r3]
 1836 012c 596B     		ldr	r1, [r3, #52]
 1837 012e 7B68     		ldr	r3, [r7, #4]
 1838 0130 1A68     		ldr	r2, [r3]
 1839 0132 634B     		ldr	r3, .L116+8
 1840 0134 0B40     		ands	r3, r3, r1
 1841 0136 5363     		str	r3, [r2, #52]
 1842 0138 7B68     		ldr	r3, [r7, #4]
 1843 013a 1B68     		ldr	r3, [r3]
 1844 013c 996B     		ldr	r1, [r3, #56]
 1845 013e 7B68     		ldr	r3, [r7, #4]
 1846 0140 1A68     		ldr	r2, [r3]
 1847 0142 5F4B     		ldr	r3, .L116+8
 1848 0144 0B40     		ands	r3, r3, r1
 1849 0146 9363     		str	r3, [r2, #56]
 1850 0148 7B68     		ldr	r3, [r7, #4]
ARM GAS  /var/folders/k1/1yttftd15rl7jxtpyc5m93n80000gn/T//ccruZCkn.s 			page 32


 1851 014a 1B68     		ldr	r3, [r3]
 1852 014c DB6B     		ldr	r3, [r3, #60]
 1853 014e 7A68     		ldr	r2, [r7, #4]
 1854 0150 1268     		ldr	r2, [r2]
 1855 0152 23F4FB63 		bic	r3, r3, #2008
 1856 0156 23F00703 		bic	r3, r3, #7
 1857 015a D363     		str	r3, [r2, #60]
 1858 015c 7B68     		ldr	r3, [r7, #4]
 1859 015e 1B68     		ldr	r3, [r3]
 1860 0160 196E     		ldr	r1, [r3, #96]
 1861 0162 7B68     		ldr	r3, [r7, #4]
 1862 0164 1A68     		ldr	r2, [r3]
 1863 0166 574B     		ldr	r3, .L116+12
 1864 0168 0B40     		ands	r3, r3, r1
 1865 016a 1366     		str	r3, [r2, #96]
 1866 016c 7B68     		ldr	r3, [r7, #4]
 1867 016e 1B68     		ldr	r3, [r3]
 1868 0170 596E     		ldr	r1, [r3, #100]
 1869 0172 7B68     		ldr	r3, [r7, #4]
 1870 0174 1A68     		ldr	r2, [r3]
 1871 0176 534B     		ldr	r3, .L116+12
 1872 0178 0B40     		ands	r3, r3, r1
 1873 017a 5366     		str	r3, [r2, #100]
 1874 017c 7B68     		ldr	r3, [r7, #4]
 1875 017e 1B68     		ldr	r3, [r3]
 1876 0180 996E     		ldr	r1, [r3, #104]
 1877 0182 7B68     		ldr	r3, [r7, #4]
 1878 0184 1A68     		ldr	r2, [r3]
 1879 0186 4F4B     		ldr	r3, .L116+12
 1880 0188 0B40     		ands	r3, r3, r1
 1881 018a 9366     		str	r3, [r2, #104]
 1882 018c 7B68     		ldr	r3, [r7, #4]
 1883 018e 1B68     		ldr	r3, [r3]
 1884 0190 D96E     		ldr	r1, [r3, #108]
 1885 0192 7B68     		ldr	r3, [r7, #4]
 1886 0194 1A68     		ldr	r2, [r3]
 1887 0196 4B4B     		ldr	r3, .L116+12
 1888 0198 0B40     		ands	r3, r3, r1
 1889 019a D366     		str	r3, [r2, #108]
 1890 019c 7B68     		ldr	r3, [r7, #4]
 1891 019e 1B68     		ldr	r3, [r3]
 1892 01a0 D3F8A030 		ldr	r3, [r3, #160]
 1893 01a4 7A68     		ldr	r2, [r7, #4]
 1894 01a6 1268     		ldr	r2, [r2]
 1895 01a8 DB0C     		lsrs	r3, r3, #19
 1896 01aa DB04     		lsls	r3, r3, #19
 1897 01ac C2F8A030 		str	r3, [r2, #160]
 1898 01b0 7B68     		ldr	r3, [r7, #4]
 1899 01b2 1B68     		ldr	r3, [r3]
 1900 01b4 D3F8A430 		ldr	r3, [r3, #164]
 1901 01b8 7A68     		ldr	r2, [r7, #4]
 1902 01ba 1268     		ldr	r2, [r2]
 1903 01bc DB0C     		lsrs	r3, r3, #19
 1904 01be DB04     		lsls	r3, r3, #19
 1905 01c0 C2F8A430 		str	r3, [r2, #164]
 1906 01c4 7B68     		ldr	r3, [r7, #4]
 1907 01c6 1B68     		ldr	r3, [r3]
ARM GAS  /var/folders/k1/1yttftd15rl7jxtpyc5m93n80000gn/T//ccruZCkn.s 			page 33


 1908 01c8 D3F8B030 		ldr	r3, [r3, #176]
 1909 01cc 7A68     		ldr	r2, [r7, #4]
 1910 01ce 1268     		ldr	r2, [r2]
 1911 01d0 DB0C     		lsrs	r3, r3, #19
 1912 01d2 DB04     		lsls	r3, r3, #19
 1913 01d4 C2F8B030 		str	r3, [r2, #176]
 1914 01d8 7B68     		ldr	r3, [r7, #4]
 1915 01da 1B68     		ldr	r3, [r3]
 1916 01dc D3F8B420 		ldr	r2, [r3, #180]
 1917 01e0 7B68     		ldr	r3, [r7, #4]
 1918 01e2 1B68     		ldr	r3, [r3]
 1919 01e4 22F07F12 		bic	r2, r2, #8323199
 1920 01e8 C3F8B420 		str	r2, [r3, #180]
 1921 01ec 7B68     		ldr	r3, [r7, #4]
 1922 01ee 1B68     		ldr	r3, [r3]
 1923 01f0 B3F1A04F 		cmp	r3, #1342177280
 1924 01f4 04D0     		beq	.L106
 1925 01f6 7B68     		ldr	r3, [r7, #4]
 1926 01f8 1B68     		ldr	r3, [r3]
 1927 01fa 334A     		ldr	r2, .L116+16
 1928 01fc 9342     		cmp	r3, r2
 1929 01fe 0FD1     		bne	.L107
 1930              	.L106:
 1931 0200 4FF0A040 		mov	r0, #1342177280
 1932 0204 FFF7FEFF 		bl	LL_ADC_IsEnabled
 1933 0208 0446     		mov	r4, r0
 1934 020a 2F48     		ldr	r0, .L116+16
 1935 020c FFF7FEFF 		bl	LL_ADC_IsEnabled
 1936 0210 0346     		mov	r3, r0
 1937 0212 2343     		orrs	r3, r3, r4
 1938 0214 002B     		cmp	r3, #0
 1939 0216 0CBF     		ite	eq
 1940 0218 0123     		moveq	r3, #1
 1941 021a 0023     		movne	r3, #0
 1942 021c DBB2     		uxtb	r3, r3
 1943 021e 12E0     		b	.L108
 1944              	.L107:
 1945 0220 2A48     		ldr	r0, .L116+20
 1946 0222 FFF7FEFF 		bl	LL_ADC_IsEnabled
 1947 0226 0446     		mov	r4, r0
 1948 0228 2948     		ldr	r0, .L116+24
 1949 022a FFF7FEFF 		bl	LL_ADC_IsEnabled
 1950 022e 0346     		mov	r3, r0
 1951 0230 1C43     		orrs	r4, r4, r3
 1952 0232 2848     		ldr	r0, .L116+28
 1953 0234 FFF7FEFF 		bl	LL_ADC_IsEnabled
 1954 0238 0346     		mov	r3, r0
 1955 023a 2343     		orrs	r3, r3, r4
 1956 023c 002B     		cmp	r3, #0
 1957 023e 0CBF     		ite	eq
 1958 0240 0123     		moveq	r3, #1
 1959 0242 0023     		movne	r3, #0
 1960 0244 DBB2     		uxtb	r3, r3
 1961              	.L108:
 1962 0246 002B     		cmp	r3, #0
 1963 0248 20D0     		beq	.L109
 1964 024a 7B68     		ldr	r3, [r7, #4]
ARM GAS  /var/folders/k1/1yttftd15rl7jxtpyc5m93n80000gn/T//ccruZCkn.s 			page 34


 1965 024c 1B68     		ldr	r3, [r3]
 1966 024e B3F1A04F 		cmp	r3, #1342177280
 1967 0252 04D0     		beq	.L110
 1968 0254 7B68     		ldr	r3, [r7, #4]
 1969 0256 1B68     		ldr	r3, [r3]
 1970 0258 1B4A     		ldr	r2, .L116+16
 1971 025a 9342     		cmp	r3, r2
 1972 025c 01D1     		bne	.L111
 1973              	.L110:
 1974 025e 1E4B     		ldr	r3, .L116+32
 1975 0260 00E0     		b	.L112
 1976              	.L111:
 1977 0262 1E4B     		ldr	r3, .L116+36
 1978              	.L112:
 1979 0264 9968     		ldr	r1, [r3, #8]
 1980 0266 7B68     		ldr	r3, [r7, #4]
 1981 0268 1B68     		ldr	r3, [r3]
 1982 026a B3F1A04F 		cmp	r3, #1342177280
 1983 026e 04D0     		beq	.L113
 1984 0270 7B68     		ldr	r3, [r7, #4]
 1985 0272 1B68     		ldr	r3, [r3]
 1986 0274 144A     		ldr	r2, .L116+16
 1987 0276 9342     		cmp	r3, r2
 1988 0278 01D1     		bne	.L114
 1989              	.L113:
 1990 027a 174A     		ldr	r2, .L116+32
 1991 027c 00E0     		b	.L115
 1992              	.L114:
 1993 027e 174A     		ldr	r2, .L116+36
 1994              	.L115:
 1995 0280 174B     		ldr	r3, .L116+40
 1996 0282 0B40     		ands	r3, r3, r1
 1997 0284 9360     		str	r3, [r2, #8]
 1998 0286 7868     		ldr	r0, [r7, #4]
 1999 0288 FFF7FEFF 		bl	HAL_ADC_MspDeInit
 2000              	.L109:
 2001 028c 7B68     		ldr	r3, [r7, #4]
 2002 028e 0022     		movs	r2, #0
 2003 0290 1A66     		str	r2, [r3, #96]
 2004 0292 7B68     		ldr	r3, [r7, #4]
 2005 0294 0022     		movs	r2, #0
 2006 0296 5A66     		str	r2, [r3, #100]
 2007 0298 7B68     		ldr	r3, [r7, #4]
 2008 029a 0022     		movs	r2, #0
 2009 029c 9A66     		str	r2, [r3, #104]
 2010 029e 7B68     		ldr	r3, [r7, #4]
 2011 02a0 0022     		movs	r2, #0
 2012 02a2 DA65     		str	r2, [r3, #92]
 2013 02a4 7B68     		ldr	r3, [r7, #4]
 2014 02a6 0022     		movs	r2, #0
 2015 02a8 83F85820 		strb	r2, [r3, #88]
 2016 02ac FB7B     		ldrb	r3, [r7, #15]	@ zero_extendqisi2
 2017              	.L104:
 2018 02ae 1846     		mov	r0, r3
 2019 02b0 1437     		adds	r7, r7, #20
 2020 02b2 BD46     		mov	sp, r7
 2021              		@ sp needed
ARM GAS  /var/folders/k1/1yttftd15rl7jxtpyc5m93n80000gn/T//ccruZCkn.s 			page 35


 2022 02b4 90BD     		pop	{r4, r7, pc}
 2023              	.L117:
 2024 02b6 00BF     		.align	2
 2025              	.L116:
 2026 02b8 04000080 		.word	-2147483644
 2027 02bc 300882E0 		.word	-528349136
 2028 02c0 200882E0 		.word	-528349152
 2029 02c4 00F0FF03 		.word	67104768
 2030 02c8 00010050 		.word	1342177536
 2031 02cc 00040050 		.word	1342178304
 2032 02d0 00050050 		.word	1342178560
 2033 02d4 00060050 		.word	1342178816
 2034 02d8 00030050 		.word	1342178048
 2035 02dc 00070050 		.word	1342179072
 2036 02e0 E01000FE 		.word	-33550112
 2038              		.section	.text.HAL_ADC_MspInit,"ax",%progbits
 2039              		.align	1
 2040              		.weak	HAL_ADC_MspInit
 2041              		.syntax unified
 2042              		.thumb
 2043              		.thumb_func
 2045              	HAL_ADC_MspInit:
 2046              		@ args = 0, pretend = 0, frame = 8
 2047              		@ frame_needed = 1, uses_anonymous_args = 0
 2048              		@ link register save eliminated.
 2049 0000 80B4     		push	{r7}
 2050 0002 83B0     		sub	sp, sp, #12
 2051 0004 00AF     		add	r7, sp, #0
 2052 0006 7860     		str	r0, [r7, #4]
 2053 0008 00BF     		nop
 2054 000a 0C37     		adds	r7, r7, #12
 2055 000c BD46     		mov	sp, r7
 2056              		@ sp needed
 2057 000e 5DF8047B 		ldr	r7, [sp], #4
 2058 0012 7047     		bx	lr
 2060              		.section	.text.HAL_ADC_MspDeInit,"ax",%progbits
 2061              		.align	1
 2062              		.weak	HAL_ADC_MspDeInit
 2063              		.syntax unified
 2064              		.thumb
 2065              		.thumb_func
 2067              	HAL_ADC_MspDeInit:
 2068              		@ args = 0, pretend = 0, frame = 8
 2069              		@ frame_needed = 1, uses_anonymous_args = 0
 2070              		@ link register save eliminated.
 2071 0000 80B4     		push	{r7}
 2072 0002 83B0     		sub	sp, sp, #12
 2073 0004 00AF     		add	r7, sp, #0
 2074 0006 7860     		str	r0, [r7, #4]
 2075 0008 00BF     		nop
 2076 000a 0C37     		adds	r7, r7, #12
 2077 000c BD46     		mov	sp, r7
 2078              		@ sp needed
 2079 000e 5DF8047B 		ldr	r7, [sp], #4
 2080 0012 7047     		bx	lr
 2082              		.section	.text.HAL_ADC_Start,"ax",%progbits
 2083              		.align	1
ARM GAS  /var/folders/k1/1yttftd15rl7jxtpyc5m93n80000gn/T//ccruZCkn.s 			page 36


 2084              		.global	HAL_ADC_Start
 2085              		.syntax unified
 2086              		.thumb
 2087              		.thumb_func
 2089              	HAL_ADC_Start:
 2090              		@ args = 0, pretend = 0, frame = 24
 2091              		@ frame_needed = 1, uses_anonymous_args = 0
 2092 0000 80B5     		push	{r7, lr}
 2093 0002 86B0     		sub	sp, sp, #24
 2094 0004 00AF     		add	r7, sp, #0
 2095 0006 7860     		str	r0, [r7, #4]
 2096 0008 7B68     		ldr	r3, [r7, #4]
 2097 000a 1B68     		ldr	r3, [r3]
 2098 000c B3F1A04F 		cmp	r3, #1342177280
 2099 0010 04D0     		beq	.L121
 2100 0012 7B68     		ldr	r3, [r7, #4]
 2101 0014 1B68     		ldr	r3, [r3]
 2102 0016 674A     		ldr	r2, .L149
 2103 0018 9342     		cmp	r3, r2
 2104 001a 01D1     		bne	.L122
 2105              	.L121:
 2106 001c 664B     		ldr	r3, .L149+4
 2107 001e 00E0     		b	.L123
 2108              	.L122:
 2109 0020 664B     		ldr	r3, .L149+8
 2110              	.L123:
 2111 0022 1846     		mov	r0, r3
 2112 0024 FFF7FEFF 		bl	LL_ADC_GetMultimode
 2113 0028 3861     		str	r0, [r7, #16]
 2114 002a 7B68     		ldr	r3, [r7, #4]
 2115 002c 1B68     		ldr	r3, [r3]
 2116 002e 1846     		mov	r0, r3
 2117 0030 FFF7FEFF 		bl	LL_ADC_REG_IsConversionOngoing
 2118 0034 0346     		mov	r3, r0
 2119 0036 002B     		cmp	r3, #0
 2120 0038 40F0B480 		bne	.L124
 2121 003c 7B68     		ldr	r3, [r7, #4]
 2122 003e 93F85830 		ldrb	r3, [r3, #88]	@ zero_extendqisi2
 2123 0042 012B     		cmp	r3, #1
 2124 0044 01D1     		bne	.L125
 2125 0046 0223     		movs	r3, #2
 2126 0048 AFE0     		b	.L126
 2127              	.L125:
 2128 004a 7B68     		ldr	r3, [r7, #4]
 2129 004c 0122     		movs	r2, #1
 2130 004e 83F85820 		strb	r2, [r3, #88]
 2131 0052 7868     		ldr	r0, [r7, #4]
 2132 0054 FFF7FEFF 		bl	ADC_Enable
 2133 0058 0346     		mov	r3, r0
 2134 005a FB75     		strb	r3, [r7, #23]
 2135 005c FB7D     		ldrb	r3, [r7, #23]	@ zero_extendqisi2
 2136 005e 002B     		cmp	r3, #0
 2137 0060 40F09B80 		bne	.L127
 2138 0064 7B68     		ldr	r3, [r7, #4]
 2139 0066 DB6D     		ldr	r3, [r3, #92]
 2140 0068 23F47063 		bic	r3, r3, #3840
 2141 006c 23F00103 		bic	r3, r3, #1
ARM GAS  /var/folders/k1/1yttftd15rl7jxtpyc5m93n80000gn/T//ccruZCkn.s 			page 37


 2142 0070 43F48072 		orr	r2, r3, #256
 2143 0074 7B68     		ldr	r3, [r7, #4]
 2144 0076 DA65     		str	r2, [r3, #92]
 2145 0078 7B68     		ldr	r3, [r7, #4]
 2146 007a 1B68     		ldr	r3, [r3]
 2147 007c 4D4A     		ldr	r2, .L149
 2148 007e 9342     		cmp	r3, r2
 2149 0080 09D0     		beq	.L128
 2150 0082 7B68     		ldr	r3, [r7, #4]
 2151 0084 1B68     		ldr	r3, [r3]
 2152 0086 4E4A     		ldr	r2, .L149+12
 2153 0088 9342     		cmp	r3, r2
 2154 008a 02D0     		beq	.L129
 2155 008c 7B68     		ldr	r3, [r7, #4]
 2156 008e 1B68     		ldr	r3, [r3]
 2157 0090 03E0     		b	.L131
 2158              	.L129:
 2159 0092 4C4B     		ldr	r3, .L149+16
 2160 0094 01E0     		b	.L131
 2161              	.L128:
 2162 0096 4FF0A043 		mov	r3, #1342177280
 2163              	.L131:
 2164 009a 7A68     		ldr	r2, [r7, #4]
 2165 009c 1268     		ldr	r2, [r2]
 2166 009e 9342     		cmp	r3, r2
 2167 00a0 02D0     		beq	.L132
 2168 00a2 3B69     		ldr	r3, [r7, #16]
 2169 00a4 002B     		cmp	r3, #0
 2170 00a6 05D1     		bne	.L133
 2171              	.L132:
 2172 00a8 7B68     		ldr	r3, [r7, #4]
 2173 00aa DB6D     		ldr	r3, [r3, #92]
 2174 00ac 23F48012 		bic	r2, r3, #1048576
 2175 00b0 7B68     		ldr	r3, [r7, #4]
 2176 00b2 DA65     		str	r2, [r3, #92]
 2177              	.L133:
 2178 00b4 7B68     		ldr	r3, [r7, #4]
 2179 00b6 DB6D     		ldr	r3, [r3, #92]
 2180 00b8 03F48053 		and	r3, r3, #4096
 2181 00bc B3F5805F 		cmp	r3, #4096
 2182 00c0 06D1     		bne	.L134
 2183 00c2 7B68     		ldr	r3, [r7, #4]
 2184 00c4 1B6E     		ldr	r3, [r3, #96]
 2185 00c6 23F00602 		bic	r2, r3, #6
 2186 00ca 7B68     		ldr	r3, [r7, #4]
 2187 00cc 1A66     		str	r2, [r3, #96]
 2188 00ce 02E0     		b	.L135
 2189              	.L134:
 2190 00d0 7B68     		ldr	r3, [r7, #4]
 2191 00d2 0022     		movs	r2, #0
 2192 00d4 1A66     		str	r2, [r3, #96]
 2193              	.L135:
 2194 00d6 7B68     		ldr	r3, [r7, #4]
 2195 00d8 1B68     		ldr	r3, [r3]
 2196 00da 1C22     		movs	r2, #28
 2197 00dc 1A60     		str	r2, [r3]
 2198 00de 7B68     		ldr	r3, [r7, #4]
ARM GAS  /var/folders/k1/1yttftd15rl7jxtpyc5m93n80000gn/T//ccruZCkn.s 			page 38


 2199 00e0 0022     		movs	r2, #0
 2200 00e2 83F85820 		strb	r2, [r3, #88]
 2201 00e6 7B68     		ldr	r3, [r7, #4]
 2202 00e8 1B68     		ldr	r3, [r3]
 2203 00ea 324A     		ldr	r2, .L149
 2204 00ec 9342     		cmp	r3, r2
 2205 00ee 09D0     		beq	.L136
 2206 00f0 7B68     		ldr	r3, [r7, #4]
 2207 00f2 1B68     		ldr	r3, [r3]
 2208 00f4 324A     		ldr	r2, .L149+12
 2209 00f6 9342     		cmp	r3, r2
 2210 00f8 02D0     		beq	.L137
 2211 00fa 7B68     		ldr	r3, [r7, #4]
 2212 00fc 1B68     		ldr	r3, [r3]
 2213 00fe 03E0     		b	.L139
 2214              	.L137:
 2215 0100 304B     		ldr	r3, .L149+16
 2216 0102 01E0     		b	.L139
 2217              	.L136:
 2218 0104 4FF0A043 		mov	r3, #1342177280
 2219              	.L139:
 2220 0108 7A68     		ldr	r2, [r7, #4]
 2221 010a 1268     		ldr	r2, [r2]
 2222 010c 9342     		cmp	r3, r2
 2223 010e 08D0     		beq	.L140
 2224 0110 3B69     		ldr	r3, [r7, #16]
 2225 0112 002B     		cmp	r3, #0
 2226 0114 05D0     		beq	.L140
 2227 0116 3B69     		ldr	r3, [r7, #16]
 2228 0118 052B     		cmp	r3, #5
 2229 011a 02D0     		beq	.L140
 2230 011c 3B69     		ldr	r3, [r7, #16]
 2231 011e 092B     		cmp	r3, #9
 2232 0120 14D1     		bne	.L141
 2233              	.L140:
 2234 0122 7B68     		ldr	r3, [r7, #4]
 2235 0124 1B68     		ldr	r3, [r3]
 2236 0126 DB68     		ldr	r3, [r3, #12]
 2237 0128 03F00073 		and	r3, r3, #33554432
 2238 012c 002B     		cmp	r3, #0
 2239 012e 07D0     		beq	.L142
 2240 0130 7B68     		ldr	r3, [r7, #4]
 2241 0132 DB6D     		ldr	r3, [r3, #92]
 2242 0134 23F44053 		bic	r3, r3, #12288
 2243 0138 43F48052 		orr	r2, r3, #4096
 2244 013c 7B68     		ldr	r3, [r7, #4]
 2245 013e DA65     		str	r2, [r3, #92]
 2246              	.L142:
 2247 0140 7B68     		ldr	r3, [r7, #4]
 2248 0142 1B68     		ldr	r3, [r3]
 2249 0144 1846     		mov	r0, r3
 2250 0146 FFF7FEFF 		bl	LL_ADC_REG_StartConversion
 2251 014a 2DE0     		b	.L148
 2252              	.L141:
 2253 014c 7B68     		ldr	r3, [r7, #4]
 2254 014e DB6D     		ldr	r3, [r3, #92]
 2255 0150 43F48012 		orr	r2, r3, #1048576
ARM GAS  /var/folders/k1/1yttftd15rl7jxtpyc5m93n80000gn/T//ccruZCkn.s 			page 39


 2256 0154 7B68     		ldr	r3, [r7, #4]
 2257 0156 DA65     		str	r2, [r3, #92]
 2258 0158 7B68     		ldr	r3, [r7, #4]
 2259 015a 1B68     		ldr	r3, [r3]
 2260 015c 154A     		ldr	r2, .L149
 2261 015e 9342     		cmp	r3, r2
 2262 0160 09D0     		beq	.L144
 2263 0162 7B68     		ldr	r3, [r7, #4]
 2264 0164 1B68     		ldr	r3, [r3]
 2265 0166 164A     		ldr	r2, .L149+12
 2266 0168 9342     		cmp	r3, r2
 2267 016a 02D0     		beq	.L145
 2268 016c 7B68     		ldr	r3, [r7, #4]
 2269 016e 1B68     		ldr	r3, [r3]
 2270 0170 03E0     		b	.L147
 2271              	.L145:
 2272 0172 144B     		ldr	r3, .L149+16
 2273 0174 01E0     		b	.L147
 2274              	.L144:
 2275 0176 4FF0A043 		mov	r3, #1342177280
 2276              	.L147:
 2277 017a FB60     		str	r3, [r7, #12]
 2278 017c FB68     		ldr	r3, [r7, #12]
 2279 017e DB68     		ldr	r3, [r3, #12]
 2280 0180 03F00073 		and	r3, r3, #33554432
 2281 0184 002B     		cmp	r3, #0
 2282 0186 0FD0     		beq	.L148
 2283 0188 7B68     		ldr	r3, [r7, #4]
 2284 018a DB6D     		ldr	r3, [r3, #92]
 2285 018c 23F44053 		bic	r3, r3, #12288
 2286 0190 43F48052 		orr	r2, r3, #4096
 2287 0194 7B68     		ldr	r3, [r7, #4]
 2288 0196 DA65     		str	r2, [r3, #92]
 2289 0198 06E0     		b	.L148
 2290              	.L127:
 2291 019a 7B68     		ldr	r3, [r7, #4]
 2292 019c 0022     		movs	r2, #0
 2293 019e 83F85820 		strb	r2, [r3, #88]
 2294 01a2 01E0     		b	.L148
 2295              	.L124:
 2296 01a4 0223     		movs	r3, #2
 2297 01a6 FB75     		strb	r3, [r7, #23]
 2298              	.L148:
 2299 01a8 FB7D     		ldrb	r3, [r7, #23]	@ zero_extendqisi2
 2300              	.L126:
 2301 01aa 1846     		mov	r0, r3
 2302 01ac 1837     		adds	r7, r7, #24
 2303 01ae BD46     		mov	sp, r7
 2304              		@ sp needed
 2305 01b0 80BD     		pop	{r7, pc}
 2306              	.L150:
 2307 01b2 00BF     		.align	2
 2308              	.L149:
 2309 01b4 00010050 		.word	1342177536
 2310 01b8 00030050 		.word	1342178048
 2311 01bc 00070050 		.word	1342179072
 2312 01c0 00050050 		.word	1342178560
ARM GAS  /var/folders/k1/1yttftd15rl7jxtpyc5m93n80000gn/T//ccruZCkn.s 			page 40


 2313 01c4 00040050 		.word	1342178304
 2315              		.section	.text.HAL_ADC_Stop,"ax",%progbits
 2316              		.align	1
 2317              		.global	HAL_ADC_Stop
 2318              		.syntax unified
 2319              		.thumb
 2320              		.thumb_func
 2322              	HAL_ADC_Stop:
 2323              		@ args = 0, pretend = 0, frame = 16
 2324              		@ frame_needed = 1, uses_anonymous_args = 0
 2325 0000 80B5     		push	{r7, lr}
 2326 0002 84B0     		sub	sp, sp, #16
 2327 0004 00AF     		add	r7, sp, #0
 2328 0006 7860     		str	r0, [r7, #4]
 2329 0008 7B68     		ldr	r3, [r7, #4]
 2330 000a 93F85830 		ldrb	r3, [r3, #88]	@ zero_extendqisi2
 2331 000e 012B     		cmp	r3, #1
 2332 0010 01D1     		bne	.L152
 2333 0012 0223     		movs	r3, #2
 2334 0014 23E0     		b	.L153
 2335              	.L152:
 2336 0016 7B68     		ldr	r3, [r7, #4]
 2337 0018 0122     		movs	r2, #1
 2338 001a 83F85820 		strb	r2, [r3, #88]
 2339 001e 0321     		movs	r1, #3
 2340 0020 7868     		ldr	r0, [r7, #4]
 2341 0022 FFF7FEFF 		bl	ADC_ConversionStop
 2342 0026 0346     		mov	r3, r0
 2343 0028 FB73     		strb	r3, [r7, #15]
 2344 002a FB7B     		ldrb	r3, [r7, #15]	@ zero_extendqisi2
 2345 002c 002B     		cmp	r3, #0
 2346 002e 11D1     		bne	.L154
 2347 0030 7868     		ldr	r0, [r7, #4]
 2348 0032 FFF7FEFF 		bl	ADC_Disable
 2349 0036 0346     		mov	r3, r0
 2350 0038 FB73     		strb	r3, [r7, #15]
 2351 003a FB7B     		ldrb	r3, [r7, #15]	@ zero_extendqisi2
 2352 003c 002B     		cmp	r3, #0
 2353 003e 09D1     		bne	.L154
 2354 0040 7B68     		ldr	r3, [r7, #4]
 2355 0042 DB6D     		ldr	r3, [r3, #92]
 2356 0044 23F48853 		bic	r3, r3, #4352
 2357 0048 23F00103 		bic	r3, r3, #1
 2358 004c 43F00102 		orr	r2, r3, #1
 2359 0050 7B68     		ldr	r3, [r7, #4]
 2360 0052 DA65     		str	r2, [r3, #92]
 2361              	.L154:
 2362 0054 7B68     		ldr	r3, [r7, #4]
 2363 0056 0022     		movs	r2, #0
 2364 0058 83F85820 		strb	r2, [r3, #88]
 2365 005c FB7B     		ldrb	r3, [r7, #15]	@ zero_extendqisi2
 2366              	.L153:
 2367 005e 1846     		mov	r0, r3
 2368 0060 1037     		adds	r7, r7, #16
 2369 0062 BD46     		mov	sp, r7
 2370              		@ sp needed
 2371 0064 80BD     		pop	{r7, pc}
ARM GAS  /var/folders/k1/1yttftd15rl7jxtpyc5m93n80000gn/T//ccruZCkn.s 			page 41


 2373              		.section	.text.HAL_ADC_PollForConversion,"ax",%progbits
 2374              		.align	1
 2375              		.global	HAL_ADC_PollForConversion
 2376              		.syntax unified
 2377              		.thumb
 2378              		.thumb_func
 2380              	HAL_ADC_PollForConversion:
 2381              		@ args = 0, pretend = 0, frame = 32
 2382              		@ frame_needed = 1, uses_anonymous_args = 0
 2383 0000 80B5     		push	{r7, lr}
 2384 0002 88B0     		sub	sp, sp, #32
 2385 0004 00AF     		add	r7, sp, #0
 2386 0006 7860     		str	r0, [r7, #4]
 2387 0008 3960     		str	r1, [r7]
 2388 000a 7B68     		ldr	r3, [r7, #4]
 2389 000c 1B68     		ldr	r3, [r3]
 2390 000e B3F1A04F 		cmp	r3, #1342177280
 2391 0012 04D0     		beq	.L156
 2392 0014 7B68     		ldr	r3, [r7, #4]
 2393 0016 1B68     		ldr	r3, [r3]
 2394 0018 774A     		ldr	r2, .L188
 2395 001a 9342     		cmp	r3, r2
 2396 001c 01D1     		bne	.L157
 2397              	.L156:
 2398 001e 774B     		ldr	r3, .L188+4
 2399 0020 00E0     		b	.L158
 2400              	.L157:
 2401 0022 774B     		ldr	r3, .L188+8
 2402              	.L158:
 2403 0024 1846     		mov	r0, r3
 2404 0026 FFF7FEFF 		bl	LL_ADC_GetMultimode
 2405 002a 7861     		str	r0, [r7, #20]
 2406 002c 7B68     		ldr	r3, [r7, #4]
 2407 002e 9B69     		ldr	r3, [r3, #24]
 2408 0030 082B     		cmp	r3, #8
 2409 0032 02D1     		bne	.L159
 2410 0034 0823     		movs	r3, #8
 2411 0036 FB61     		str	r3, [r7, #28]
 2412 0038 37E0     		b	.L160
 2413              	.L159:
 2414 003a 7B69     		ldr	r3, [r7, #20]
 2415 003c 002B     		cmp	r3, #0
 2416 003e 05D0     		beq	.L161
 2417 0040 7B69     		ldr	r3, [r7, #20]
 2418 0042 052B     		cmp	r3, #5
 2419 0044 02D0     		beq	.L161
 2420 0046 7B69     		ldr	r3, [r7, #20]
 2421 0048 092B     		cmp	r3, #9
 2422 004a 11D1     		bne	.L162
 2423              	.L161:
 2424 004c 7B68     		ldr	r3, [r7, #4]
 2425 004e 1B68     		ldr	r3, [r3]
 2426 0050 DB68     		ldr	r3, [r3, #12]
 2427 0052 03F00103 		and	r3, r3, #1
 2428 0056 002B     		cmp	r3, #0
 2429 0058 07D0     		beq	.L163
 2430 005a 7B68     		ldr	r3, [r7, #4]
ARM GAS  /var/folders/k1/1yttftd15rl7jxtpyc5m93n80000gn/T//ccruZCkn.s 			page 42


 2431 005c DB6D     		ldr	r3, [r3, #92]
 2432 005e 43F02002 		orr	r2, r3, #32
 2433 0062 7B68     		ldr	r3, [r7, #4]
 2434 0064 DA65     		str	r2, [r3, #92]
 2435 0066 0123     		movs	r3, #1
 2436 0068 C1E0     		b	.L164
 2437              	.L163:
 2438 006a 0423     		movs	r3, #4
 2439 006c FB61     		str	r3, [r7, #28]
 2440 006e 1CE0     		b	.L160
 2441              	.L162:
 2442 0070 7B68     		ldr	r3, [r7, #4]
 2443 0072 1B68     		ldr	r3, [r3]
 2444 0074 B3F1A04F 		cmp	r3, #1342177280
 2445 0078 04D0     		beq	.L165
 2446 007a 7B68     		ldr	r3, [r7, #4]
 2447 007c 1B68     		ldr	r3, [r3]
 2448 007e 5E4A     		ldr	r2, .L188
 2449 0080 9342     		cmp	r3, r2
 2450 0082 01D1     		bne	.L166
 2451              	.L165:
 2452 0084 5D4B     		ldr	r3, .L188+4
 2453 0086 00E0     		b	.L167
 2454              	.L166:
 2455 0088 5D4B     		ldr	r3, .L188+8
 2456              	.L167:
 2457 008a 1846     		mov	r0, r3
 2458 008c FFF7FEFF 		bl	LL_ADC_GetMultiDMATransfer
 2459 0090 0346     		mov	r3, r0
 2460 0092 002B     		cmp	r3, #0
 2461 0094 07D0     		beq	.L168
 2462 0096 7B68     		ldr	r3, [r7, #4]
 2463 0098 DB6D     		ldr	r3, [r3, #92]
 2464 009a 43F02002 		orr	r2, r3, #32
 2465 009e 7B68     		ldr	r3, [r7, #4]
 2466 00a0 DA65     		str	r2, [r3, #92]
 2467 00a2 0123     		movs	r3, #1
 2468 00a4 A3E0     		b	.L164
 2469              	.L168:
 2470 00a6 0423     		movs	r3, #4
 2471 00a8 FB61     		str	r3, [r7, #28]
 2472              	.L160:
 2473 00aa FFF7FEFF 		bl	HAL_GetTick
 2474 00ae 3861     		str	r0, [r7, #16]
 2475 00b0 21E0     		b	.L170
 2476              	.L173:
 2477 00b2 3B68     		ldr	r3, [r7]
 2478 00b4 B3F1FF3F 		cmp	r3, #-1
 2479 00b8 1DD0     		beq	.L170
 2480 00ba FFF7FEFF 		bl	HAL_GetTick
 2481 00be 0246     		mov	r2, r0
 2482 00c0 3B69     		ldr	r3, [r7, #16]
 2483 00c2 D31A     		subs	r3, r2, r3
 2484 00c4 3A68     		ldr	r2, [r7]
 2485 00c6 9A42     		cmp	r2, r3
 2486 00c8 02D3     		bcc	.L171
 2487 00ca 3B68     		ldr	r3, [r7]
ARM GAS  /var/folders/k1/1yttftd15rl7jxtpyc5m93n80000gn/T//ccruZCkn.s 			page 43


 2488 00cc 002B     		cmp	r3, #0
 2489 00ce 12D1     		bne	.L170
 2490              	.L171:
 2491 00d0 7B68     		ldr	r3, [r7, #4]
 2492 00d2 1B68     		ldr	r3, [r3]
 2493 00d4 1A68     		ldr	r2, [r3]
 2494 00d6 FB69     		ldr	r3, [r7, #28]
 2495 00d8 1340     		ands	r3, r3, r2
 2496 00da 002B     		cmp	r3, #0
 2497 00dc 0BD1     		bne	.L170
 2498 00de 7B68     		ldr	r3, [r7, #4]
 2499 00e0 DB6D     		ldr	r3, [r3, #92]
 2500 00e2 43F00402 		orr	r2, r3, #4
 2501 00e6 7B68     		ldr	r3, [r7, #4]
 2502 00e8 DA65     		str	r2, [r3, #92]
 2503 00ea 7B68     		ldr	r3, [r7, #4]
 2504 00ec 0022     		movs	r2, #0
 2505 00ee 83F85820 		strb	r2, [r3, #88]
 2506 00f2 0323     		movs	r3, #3
 2507 00f4 7BE0     		b	.L164
 2508              	.L170:
 2509 00f6 7B68     		ldr	r3, [r7, #4]
 2510 00f8 1B68     		ldr	r3, [r3]
 2511 00fa 1A68     		ldr	r2, [r3]
 2512 00fc FB69     		ldr	r3, [r7, #28]
 2513 00fe 1340     		ands	r3, r3, r2
 2514 0100 002B     		cmp	r3, #0
 2515 0102 D6D0     		beq	.L173
 2516 0104 7B68     		ldr	r3, [r7, #4]
 2517 0106 DB6D     		ldr	r3, [r3, #92]
 2518 0108 43F40072 		orr	r2, r3, #512
 2519 010c 7B68     		ldr	r3, [r7, #4]
 2520 010e DA65     		str	r2, [r3, #92]
 2521 0110 7B68     		ldr	r3, [r7, #4]
 2522 0112 1B68     		ldr	r3, [r3]
 2523 0114 1846     		mov	r0, r3
 2524 0116 FFF7FEFF 		bl	LL_ADC_REG_IsTriggerSourceSWStart
 2525 011a 0346     		mov	r3, r0
 2526 011c 002B     		cmp	r3, #0
 2527 011e 1CD0     		beq	.L174
 2528 0120 7B68     		ldr	r3, [r7, #4]
 2529 0122 5B7F     		ldrb	r3, [r3, #29]	@ zero_extendqisi2
 2530 0124 002B     		cmp	r3, #0
 2531 0126 18D1     		bne	.L174
 2532 0128 7B68     		ldr	r3, [r7, #4]
 2533 012a 1B68     		ldr	r3, [r3]
 2534 012c 1B68     		ldr	r3, [r3]
 2535 012e 03F00803 		and	r3, r3, #8
 2536 0132 082B     		cmp	r3, #8
 2537 0134 11D1     		bne	.L174
 2538 0136 7B68     		ldr	r3, [r7, #4]
 2539 0138 DB6D     		ldr	r3, [r3, #92]
 2540 013a 23F48072 		bic	r2, r3, #256
 2541 013e 7B68     		ldr	r3, [r7, #4]
 2542 0140 DA65     		str	r2, [r3, #92]
 2543 0142 7B68     		ldr	r3, [r7, #4]
 2544 0144 DB6D     		ldr	r3, [r3, #92]
ARM GAS  /var/folders/k1/1yttftd15rl7jxtpyc5m93n80000gn/T//ccruZCkn.s 			page 44


 2545 0146 03F48053 		and	r3, r3, #4096
 2546 014a 002B     		cmp	r3, #0
 2547 014c 05D1     		bne	.L174
 2548 014e 7B68     		ldr	r3, [r7, #4]
 2549 0150 DB6D     		ldr	r3, [r3, #92]
 2550 0152 43F00102 		orr	r2, r3, #1
 2551 0156 7B68     		ldr	r3, [r7, #4]
 2552 0158 DA65     		str	r2, [r3, #92]
 2553              	.L174:
 2554 015a 7B68     		ldr	r3, [r7, #4]
 2555 015c 1B68     		ldr	r3, [r3]
 2556 015e 264A     		ldr	r2, .L188
 2557 0160 9342     		cmp	r3, r2
 2558 0162 09D0     		beq	.L175
 2559 0164 7B68     		ldr	r3, [r7, #4]
 2560 0166 1B68     		ldr	r3, [r3]
 2561 0168 264A     		ldr	r2, .L188+12
 2562 016a 9342     		cmp	r3, r2
 2563 016c 02D0     		beq	.L176
 2564 016e 7B68     		ldr	r3, [r7, #4]
 2565 0170 1B68     		ldr	r3, [r3]
 2566 0172 03E0     		b	.L178
 2567              	.L176:
 2568 0174 244B     		ldr	r3, .L188+16
 2569 0176 01E0     		b	.L178
 2570              	.L175:
 2571 0178 4FF0A043 		mov	r3, #1342177280
 2572              	.L178:
 2573 017c 7A68     		ldr	r2, [r7, #4]
 2574 017e 1268     		ldr	r2, [r2]
 2575 0180 9342     		cmp	r3, r2
 2576 0182 08D0     		beq	.L179
 2577 0184 7B69     		ldr	r3, [r7, #20]
 2578 0186 002B     		cmp	r3, #0
 2579 0188 05D0     		beq	.L179
 2580 018a 7B69     		ldr	r3, [r7, #20]
 2581 018c 052B     		cmp	r3, #5
 2582 018e 02D0     		beq	.L179
 2583 0190 7B69     		ldr	r3, [r7, #20]
 2584 0192 092B     		cmp	r3, #9
 2585 0194 04D1     		bne	.L180
 2586              	.L179:
 2587 0196 7B68     		ldr	r3, [r7, #4]
 2588 0198 1B68     		ldr	r3, [r3]
 2589 019a DB68     		ldr	r3, [r3, #12]
 2590 019c BB61     		str	r3, [r7, #24]
 2591 019e 14E0     		b	.L181
 2592              	.L180:
 2593 01a0 7B68     		ldr	r3, [r7, #4]
 2594 01a2 1B68     		ldr	r3, [r3]
 2595 01a4 144A     		ldr	r2, .L188
 2596 01a6 9342     		cmp	r3, r2
 2597 01a8 09D0     		beq	.L182
 2598 01aa 7B68     		ldr	r3, [r7, #4]
 2599 01ac 1B68     		ldr	r3, [r3]
 2600 01ae 154A     		ldr	r2, .L188+12
 2601 01b0 9342     		cmp	r3, r2
ARM GAS  /var/folders/k1/1yttftd15rl7jxtpyc5m93n80000gn/T//ccruZCkn.s 			page 45


 2602 01b2 02D0     		beq	.L183
 2603 01b4 7B68     		ldr	r3, [r7, #4]
 2604 01b6 1B68     		ldr	r3, [r3]
 2605 01b8 03E0     		b	.L185
 2606              	.L183:
 2607 01ba 134B     		ldr	r3, .L188+16
 2608 01bc 01E0     		b	.L185
 2609              	.L182:
 2610 01be 4FF0A043 		mov	r3, #1342177280
 2611              	.L185:
 2612 01c2 FB60     		str	r3, [r7, #12]
 2613 01c4 FB68     		ldr	r3, [r7, #12]
 2614 01c6 DB68     		ldr	r3, [r3, #12]
 2615 01c8 BB61     		str	r3, [r7, #24]
 2616              	.L181:
 2617 01ca FB69     		ldr	r3, [r7, #28]
 2618 01cc 082B     		cmp	r3, #8
 2619 01ce 04D1     		bne	.L186
 2620 01d0 7B68     		ldr	r3, [r7, #4]
 2621 01d2 1B68     		ldr	r3, [r3]
 2622 01d4 0822     		movs	r2, #8
 2623 01d6 1A60     		str	r2, [r3]
 2624 01d8 08E0     		b	.L187
 2625              	.L186:
 2626 01da BB69     		ldr	r3, [r7, #24]
 2627 01dc 03F48043 		and	r3, r3, #16384
 2628 01e0 002B     		cmp	r3, #0
 2629 01e2 03D1     		bne	.L187
 2630 01e4 7B68     		ldr	r3, [r7, #4]
 2631 01e6 1B68     		ldr	r3, [r3]
 2632 01e8 0C22     		movs	r2, #12
 2633 01ea 1A60     		str	r2, [r3]
 2634              	.L187:
 2635 01ec 0023     		movs	r3, #0
 2636              	.L164:
 2637 01ee 1846     		mov	r0, r3
 2638 01f0 2037     		adds	r7, r7, #32
 2639 01f2 BD46     		mov	sp, r7
 2640              		@ sp needed
 2641 01f4 80BD     		pop	{r7, pc}
 2642              	.L189:
 2643 01f6 00BF     		.align	2
 2644              	.L188:
 2645 01f8 00010050 		.word	1342177536
 2646 01fc 00030050 		.word	1342178048
 2647 0200 00070050 		.word	1342179072
 2648 0204 00050050 		.word	1342178560
 2649 0208 00040050 		.word	1342178304
 2651              		.section	.text.HAL_ADC_PollForEvent,"ax",%progbits
 2652              		.align	1
 2653              		.global	HAL_ADC_PollForEvent
 2654              		.syntax unified
 2655              		.thumb
 2656              		.thumb_func
 2658              	HAL_ADC_PollForEvent:
 2659              		@ args = 0, pretend = 0, frame = 24
 2660              		@ frame_needed = 1, uses_anonymous_args = 0
ARM GAS  /var/folders/k1/1yttftd15rl7jxtpyc5m93n80000gn/T//ccruZCkn.s 			page 46


 2661 0000 80B5     		push	{r7, lr}
 2662 0002 86B0     		sub	sp, sp, #24
 2663 0004 00AF     		add	r7, sp, #0
 2664 0006 F860     		str	r0, [r7, #12]
 2665 0008 B960     		str	r1, [r7, #8]
 2666 000a 7A60     		str	r2, [r7, #4]
 2667 000c FFF7FEFF 		bl	HAL_GetTick
 2668 0010 7861     		str	r0, [r7, #20]
 2669 0012 22E0     		b	.L192
 2670              	.L196:
 2671 0014 7B68     		ldr	r3, [r7, #4]
 2672 0016 B3F1FF3F 		cmp	r3, #-1
 2673 001a 1ED0     		beq	.L192
 2674 001c FFF7FEFF 		bl	HAL_GetTick
 2675 0020 0246     		mov	r2, r0
 2676 0022 7B69     		ldr	r3, [r7, #20]
 2677 0024 D31A     		subs	r3, r2, r3
 2678 0026 7A68     		ldr	r2, [r7, #4]
 2679 0028 9A42     		cmp	r2, r3
 2680 002a 02D3     		bcc	.L193
 2681 002c 7B68     		ldr	r3, [r7, #4]
 2682 002e 002B     		cmp	r3, #0
 2683 0030 13D1     		bne	.L192
 2684              	.L193:
 2685 0032 FB68     		ldr	r3, [r7, #12]
 2686 0034 1B68     		ldr	r3, [r3]
 2687 0036 1A68     		ldr	r2, [r3]
 2688 0038 BB68     		ldr	r3, [r7, #8]
 2689 003a 1340     		ands	r3, r3, r2
 2690 003c BA68     		ldr	r2, [r7, #8]
 2691 003e 9A42     		cmp	r2, r3
 2692 0040 0BD0     		beq	.L192
 2693 0042 FB68     		ldr	r3, [r7, #12]
 2694 0044 DB6D     		ldr	r3, [r3, #92]
 2695 0046 43F00402 		orr	r2, r3, #4
 2696 004a FB68     		ldr	r3, [r7, #12]
 2697 004c DA65     		str	r2, [r3, #92]
 2698 004e FB68     		ldr	r3, [r7, #12]
 2699 0050 0022     		movs	r2, #0
 2700 0052 83F85820 		strb	r2, [r3, #88]
 2701 0056 0323     		movs	r3, #3
 2702 0058 7DE0     		b	.L195
 2703              	.L192:
 2704 005a FB68     		ldr	r3, [r7, #12]
 2705 005c 1B68     		ldr	r3, [r3]
 2706 005e 1A68     		ldr	r2, [r3]
 2707 0060 BB68     		ldr	r3, [r7, #8]
 2708 0062 1340     		ands	r3, r3, r2
 2709 0064 BA68     		ldr	r2, [r7, #8]
 2710 0066 9A42     		cmp	r2, r3
 2711 0068 D4D1     		bne	.L196
 2712 006a BB68     		ldr	r3, [r7, #8]
 2713 006c B3F5806F 		cmp	r3, #1024
 2714 0070 48D0     		beq	.L197
 2715 0072 BB68     		ldr	r3, [r7, #8]
 2716 0074 B3F5806F 		cmp	r3, #1024
 2717 0078 56D8     		bhi	.L198
ARM GAS  /var/folders/k1/1yttftd15rl7jxtpyc5m93n80000gn/T//ccruZCkn.s 			page 47


 2718 007a BB68     		ldr	r3, [r7, #8]
 2719 007c B3F5007F 		cmp	r3, #512
 2720 0080 34D0     		beq	.L199
 2721 0082 BB68     		ldr	r3, [r7, #8]
 2722 0084 B3F5007F 		cmp	r3, #512
 2723 0088 4ED8     		bhi	.L198
 2724 008a BB68     		ldr	r3, [r7, #8]
 2725 008c B3F5807F 		cmp	r3, #256
 2726 0090 20D0     		beq	.L200
 2727 0092 BB68     		ldr	r3, [r7, #8]
 2728 0094 B3F5807F 		cmp	r3, #256
 2729 0098 46D8     		bhi	.L198
 2730 009a BB68     		ldr	r3, [r7, #8]
 2731 009c 022B     		cmp	r3, #2
 2732 009e 03D0     		beq	.L201
 2733 00a0 BB68     		ldr	r3, [r7, #8]
 2734 00a2 802B     		cmp	r3, #128
 2735 00a4 0BD0     		beq	.L202
 2736 00a6 3FE0     		b	.L198
 2737              	.L201:
 2738 00a8 FB68     		ldr	r3, [r7, #12]
 2739 00aa DB6D     		ldr	r3, [r3, #92]
 2740 00ac 43F40062 		orr	r2, r3, #2048
 2741 00b0 FB68     		ldr	r3, [r7, #12]
 2742 00b2 DA65     		str	r2, [r3, #92]
 2743 00b4 FB68     		ldr	r3, [r7, #12]
 2744 00b6 1B68     		ldr	r3, [r3]
 2745 00b8 0222     		movs	r2, #2
 2746 00ba 1A60     		str	r2, [r3]
 2747 00bc 4AE0     		b	.L203
 2748              	.L202:
 2749 00be FB68     		ldr	r3, [r7, #12]
 2750 00c0 DB6D     		ldr	r3, [r3, #92]
 2751 00c2 43F48032 		orr	r2, r3, #65536
 2752 00c6 FB68     		ldr	r3, [r7, #12]
 2753 00c8 DA65     		str	r2, [r3, #92]
 2754 00ca FB68     		ldr	r3, [r7, #12]
 2755 00cc 1B68     		ldr	r3, [r3]
 2756 00ce 8022     		movs	r2, #128
 2757 00d0 1A60     		str	r2, [r3]
 2758 00d2 3FE0     		b	.L203
 2759              	.L200:
 2760 00d4 FB68     		ldr	r3, [r7, #12]
 2761 00d6 DB6D     		ldr	r3, [r3, #92]
 2762 00d8 43F40032 		orr	r2, r3, #131072
 2763 00dc FB68     		ldr	r3, [r7, #12]
 2764 00de DA65     		str	r2, [r3, #92]
 2765 00e0 FB68     		ldr	r3, [r7, #12]
 2766 00e2 1B68     		ldr	r3, [r3]
 2767 00e4 4FF48072 		mov	r2, #256
 2768 00e8 1A60     		str	r2, [r3]
 2769 00ea 33E0     		b	.L203
 2770              	.L199:
 2771 00ec FB68     		ldr	r3, [r7, #12]
 2772 00ee DB6D     		ldr	r3, [r3, #92]
 2773 00f0 43F48022 		orr	r2, r3, #262144
 2774 00f4 FB68     		ldr	r3, [r7, #12]
ARM GAS  /var/folders/k1/1yttftd15rl7jxtpyc5m93n80000gn/T//ccruZCkn.s 			page 48


 2775 00f6 DA65     		str	r2, [r3, #92]
 2776 00f8 FB68     		ldr	r3, [r7, #12]
 2777 00fa 1B68     		ldr	r3, [r3]
 2778 00fc 4FF40072 		mov	r2, #512
 2779 0100 1A60     		str	r2, [r3]
 2780 0102 27E0     		b	.L203
 2781              	.L197:
 2782 0104 FB68     		ldr	r3, [r7, #12]
 2783 0106 DB6D     		ldr	r3, [r3, #92]
 2784 0108 43F48042 		orr	r2, r3, #16384
 2785 010c FB68     		ldr	r3, [r7, #12]
 2786 010e DA65     		str	r2, [r3, #92]
 2787 0110 FB68     		ldr	r3, [r7, #12]
 2788 0112 1B6E     		ldr	r3, [r3, #96]
 2789 0114 43F00802 		orr	r2, r3, #8
 2790 0118 FB68     		ldr	r3, [r7, #12]
 2791 011a 1A66     		str	r2, [r3, #96]
 2792 011c FB68     		ldr	r3, [r7, #12]
 2793 011e 1B68     		ldr	r3, [r3]
 2794 0120 4FF48062 		mov	r2, #1024
 2795 0124 1A60     		str	r2, [r3]
 2796 0126 15E0     		b	.L203
 2797              	.L198:
 2798 0128 FB68     		ldr	r3, [r7, #12]
 2799 012a DB6B     		ldr	r3, [r3, #60]
 2800 012c 002B     		cmp	r3, #0
 2801 012e 0CD1     		bne	.L204
 2802 0130 FB68     		ldr	r3, [r7, #12]
 2803 0132 DB6D     		ldr	r3, [r3, #92]
 2804 0134 43F48062 		orr	r2, r3, #1024
 2805 0138 FB68     		ldr	r3, [r7, #12]
 2806 013a DA65     		str	r2, [r3, #92]
 2807 013c FB68     		ldr	r3, [r7, #12]
 2808 013e 1B6E     		ldr	r3, [r3, #96]
 2809 0140 43F00202 		orr	r2, r3, #2
 2810 0144 FB68     		ldr	r3, [r7, #12]
 2811 0146 1A66     		str	r2, [r3, #96]
 2812 0148 03E0     		b	.L206
 2813              	.L204:
 2814 014a FB68     		ldr	r3, [r7, #12]
 2815 014c 1B68     		ldr	r3, [r3]
 2816 014e 1022     		movs	r2, #16
 2817 0150 1A60     		str	r2, [r3]
 2818              	.L206:
 2819 0152 00BF     		nop
 2820              	.L203:
 2821 0154 0023     		movs	r3, #0
 2822              	.L195:
 2823 0156 1846     		mov	r0, r3
 2824 0158 1837     		adds	r7, r7, #24
 2825 015a BD46     		mov	sp, r7
 2826              		@ sp needed
 2827 015c 80BD     		pop	{r7, pc}
 2829              		.section	.text.HAL_ADC_Start_IT,"ax",%progbits
 2830              		.align	1
 2831              		.global	HAL_ADC_Start_IT
 2832              		.syntax unified
ARM GAS  /var/folders/k1/1yttftd15rl7jxtpyc5m93n80000gn/T//ccruZCkn.s 			page 49


 2833              		.thumb
 2834              		.thumb_func
 2836              	HAL_ADC_Start_IT:
 2837              		@ args = 0, pretend = 0, frame = 24
 2838              		@ frame_needed = 1, uses_anonymous_args = 0
 2839 0000 80B5     		push	{r7, lr}
 2840 0002 86B0     		sub	sp, sp, #24
 2841 0004 00AF     		add	r7, sp, #0
 2842 0006 7860     		str	r0, [r7, #4]
 2843 0008 7B68     		ldr	r3, [r7, #4]
 2844 000a 1B68     		ldr	r3, [r3]
 2845 000c B3F1A04F 		cmp	r3, #1342177280
 2846 0010 04D0     		beq	.L208
 2847 0012 7B68     		ldr	r3, [r7, #4]
 2848 0014 1B68     		ldr	r3, [r3]
 2849 0016 924A     		ldr	r2, .L241
 2850 0018 9342     		cmp	r3, r2
 2851 001a 01D1     		bne	.L209
 2852              	.L208:
 2853 001c 914B     		ldr	r3, .L241+4
 2854 001e 00E0     		b	.L210
 2855              	.L209:
 2856 0020 914B     		ldr	r3, .L241+8
 2857              	.L210:
 2858 0022 1846     		mov	r0, r3
 2859 0024 FFF7FEFF 		bl	LL_ADC_GetMultimode
 2860 0028 3861     		str	r0, [r7, #16]
 2861 002a 7B68     		ldr	r3, [r7, #4]
 2862 002c 1B68     		ldr	r3, [r3]
 2863 002e 1846     		mov	r0, r3
 2864 0030 FFF7FEFF 		bl	LL_ADC_REG_IsConversionOngoing
 2865 0034 0346     		mov	r3, r0
 2866 0036 002B     		cmp	r3, #0
 2867 0038 40F03281 		bne	.L211
 2868 003c 7B68     		ldr	r3, [r7, #4]
 2869 003e 93F85830 		ldrb	r3, [r3, #88]	@ zero_extendqisi2
 2870 0042 012B     		cmp	r3, #1
 2871 0044 01D1     		bne	.L212
 2872 0046 0223     		movs	r3, #2
 2873 0048 2DE1     		b	.L213
 2874              	.L212:
 2875 004a 7B68     		ldr	r3, [r7, #4]
 2876 004c 0122     		movs	r2, #1
 2877 004e 83F85820 		strb	r2, [r3, #88]
 2878 0052 7868     		ldr	r0, [r7, #4]
 2879 0054 FFF7FEFF 		bl	ADC_Enable
 2880 0058 0346     		mov	r3, r0
 2881 005a FB75     		strb	r3, [r7, #23]
 2882 005c FB7D     		ldrb	r3, [r7, #23]	@ zero_extendqisi2
 2883 005e 002B     		cmp	r3, #0
 2884 0060 40F01981 		bne	.L214
 2885 0064 7B68     		ldr	r3, [r7, #4]
 2886 0066 DB6D     		ldr	r3, [r3, #92]
 2887 0068 23F47063 		bic	r3, r3, #3840
 2888 006c 23F00103 		bic	r3, r3, #1
 2889 0070 43F48072 		orr	r2, r3, #256
 2890 0074 7B68     		ldr	r3, [r7, #4]
ARM GAS  /var/folders/k1/1yttftd15rl7jxtpyc5m93n80000gn/T//ccruZCkn.s 			page 50


 2891 0076 DA65     		str	r2, [r3, #92]
 2892 0078 7B68     		ldr	r3, [r7, #4]
 2893 007a 1B68     		ldr	r3, [r3]
 2894 007c 784A     		ldr	r2, .L241
 2895 007e 9342     		cmp	r3, r2
 2896 0080 09D0     		beq	.L215
 2897 0082 7B68     		ldr	r3, [r7, #4]
 2898 0084 1B68     		ldr	r3, [r3]
 2899 0086 794A     		ldr	r2, .L241+12
 2900 0088 9342     		cmp	r3, r2
 2901 008a 02D0     		beq	.L216
 2902 008c 7B68     		ldr	r3, [r7, #4]
 2903 008e 1B68     		ldr	r3, [r3]
 2904 0090 03E0     		b	.L218
 2905              	.L216:
 2906 0092 774B     		ldr	r3, .L241+16
 2907 0094 01E0     		b	.L218
 2908              	.L215:
 2909 0096 4FF0A043 		mov	r3, #1342177280
 2910              	.L218:
 2911 009a 7A68     		ldr	r2, [r7, #4]
 2912 009c 1268     		ldr	r2, [r2]
 2913 009e 9342     		cmp	r3, r2
 2914 00a0 02D0     		beq	.L219
 2915 00a2 3B69     		ldr	r3, [r7, #16]
 2916 00a4 002B     		cmp	r3, #0
 2917 00a6 05D1     		bne	.L220
 2918              	.L219:
 2919 00a8 7B68     		ldr	r3, [r7, #4]
 2920 00aa DB6D     		ldr	r3, [r3, #92]
 2921 00ac 23F48012 		bic	r2, r3, #1048576
 2922 00b0 7B68     		ldr	r3, [r7, #4]
 2923 00b2 DA65     		str	r2, [r3, #92]
 2924              	.L220:
 2925 00b4 7B68     		ldr	r3, [r7, #4]
 2926 00b6 DB6D     		ldr	r3, [r3, #92]
 2927 00b8 03F48053 		and	r3, r3, #4096
 2928 00bc 002B     		cmp	r3, #0
 2929 00be 06D0     		beq	.L221
 2930 00c0 7B68     		ldr	r3, [r7, #4]
 2931 00c2 1B6E     		ldr	r3, [r3, #96]
 2932 00c4 23F00602 		bic	r2, r3, #6
 2933 00c8 7B68     		ldr	r3, [r7, #4]
 2934 00ca 1A66     		str	r2, [r3, #96]
 2935 00cc 02E0     		b	.L222
 2936              	.L221:
 2937 00ce 7B68     		ldr	r3, [r7, #4]
 2938 00d0 0022     		movs	r2, #0
 2939 00d2 1A66     		str	r2, [r3, #96]
 2940              	.L222:
 2941 00d4 7B68     		ldr	r3, [r7, #4]
 2942 00d6 1B68     		ldr	r3, [r3]
 2943 00d8 1C22     		movs	r2, #28
 2944 00da 1A60     		str	r2, [r3]
 2945 00dc 7B68     		ldr	r3, [r7, #4]
 2946 00de 0022     		movs	r2, #0
 2947 00e0 83F85820 		strb	r2, [r3, #88]
ARM GAS  /var/folders/k1/1yttftd15rl7jxtpyc5m93n80000gn/T//ccruZCkn.s 			page 51


 2948 00e4 7B68     		ldr	r3, [r7, #4]
 2949 00e6 1B68     		ldr	r3, [r3]
 2950 00e8 5A68     		ldr	r2, [r3, #4]
 2951 00ea 7B68     		ldr	r3, [r7, #4]
 2952 00ec 1B68     		ldr	r3, [r3]
 2953 00ee 22F01C02 		bic	r2, r2, #28
 2954 00f2 5A60     		str	r2, [r3, #4]
 2955 00f4 7B68     		ldr	r3, [r7, #4]
 2956 00f6 9B69     		ldr	r3, [r3, #24]
 2957 00f8 082B     		cmp	r3, #8
 2958 00fa 08D1     		bne	.L223
 2959 00fc 7B68     		ldr	r3, [r7, #4]
 2960 00fe 1B68     		ldr	r3, [r3]
 2961 0100 5A68     		ldr	r2, [r3, #4]
 2962 0102 7B68     		ldr	r3, [r7, #4]
 2963 0104 1B68     		ldr	r3, [r3]
 2964 0106 42F00802 		orr	r2, r2, #8
 2965 010a 5A60     		str	r2, [r3, #4]
 2966 010c 08E0     		b	.L224
 2967              	.L223:
 2968 010e 7B68     		ldr	r3, [r7, #4]
 2969 0110 1B68     		ldr	r3, [r3]
 2970 0112 5A68     		ldr	r2, [r3, #4]
 2971 0114 7B68     		ldr	r3, [r7, #4]
 2972 0116 1B68     		ldr	r3, [r3]
 2973 0118 42F00402 		orr	r2, r2, #4
 2974 011c 5A60     		str	r2, [r3, #4]
 2975 011e 00BF     		nop
 2976              	.L224:
 2977 0120 7B68     		ldr	r3, [r7, #4]
 2978 0122 DB6B     		ldr	r3, [r3, #60]
 2979 0124 002B     		cmp	r3, #0
 2980 0126 07D1     		bne	.L225
 2981 0128 7B68     		ldr	r3, [r7, #4]
 2982 012a 1B68     		ldr	r3, [r3]
 2983 012c 5A68     		ldr	r2, [r3, #4]
 2984 012e 7B68     		ldr	r3, [r7, #4]
 2985 0130 1B68     		ldr	r3, [r3]
 2986 0132 42F01002 		orr	r2, r2, #16
 2987 0136 5A60     		str	r2, [r3, #4]
 2988              	.L225:
 2989 0138 7B68     		ldr	r3, [r7, #4]
 2990 013a 1B68     		ldr	r3, [r3]
 2991 013c 484A     		ldr	r2, .L241
 2992 013e 9342     		cmp	r3, r2
 2993 0140 09D0     		beq	.L226
 2994 0142 7B68     		ldr	r3, [r7, #4]
 2995 0144 1B68     		ldr	r3, [r3]
 2996 0146 494A     		ldr	r2, .L241+12
 2997 0148 9342     		cmp	r3, r2
 2998 014a 02D0     		beq	.L227
 2999 014c 7B68     		ldr	r3, [r7, #4]
 3000 014e 1B68     		ldr	r3, [r3]
 3001 0150 03E0     		b	.L229
 3002              	.L227:
 3003 0152 474B     		ldr	r3, .L241+16
 3004 0154 01E0     		b	.L229
ARM GAS  /var/folders/k1/1yttftd15rl7jxtpyc5m93n80000gn/T//ccruZCkn.s 			page 52


 3005              	.L226:
 3006 0156 4FF0A043 		mov	r3, #1342177280
 3007              	.L229:
 3008 015a 7A68     		ldr	r2, [r7, #4]
 3009 015c 1268     		ldr	r2, [r2]
 3010 015e 9342     		cmp	r3, r2
 3011 0160 08D0     		beq	.L230
 3012 0162 3B69     		ldr	r3, [r7, #16]
 3013 0164 002B     		cmp	r3, #0
 3014 0166 05D0     		beq	.L230
 3015 0168 3B69     		ldr	r3, [r7, #16]
 3016 016a 052B     		cmp	r3, #5
 3017 016c 02D0     		beq	.L230
 3018 016e 3B69     		ldr	r3, [r7, #16]
 3019 0170 092B     		cmp	r3, #9
 3020 0172 3AD1     		bne	.L231
 3021              	.L230:
 3022 0174 7B68     		ldr	r3, [r7, #4]
 3023 0176 1B68     		ldr	r3, [r3]
 3024 0178 DB68     		ldr	r3, [r3, #12]
 3025 017a 03F00073 		and	r3, r3, #33554432
 3026 017e 002B     		cmp	r3, #0
 3027 0180 2DD0     		beq	.L232
 3028 0182 7B68     		ldr	r3, [r7, #4]
 3029 0184 DB6D     		ldr	r3, [r3, #92]
 3030 0186 23F44053 		bic	r3, r3, #12288
 3031 018a 43F48052 		orr	r2, r3, #4096
 3032 018e 7B68     		ldr	r3, [r7, #4]
 3033 0190 DA65     		str	r2, [r3, #92]
 3034 0192 7B68     		ldr	r3, [r7, #4]
 3035 0194 9B69     		ldr	r3, [r3, #24]
 3036 0196 082B     		cmp	r3, #8
 3037 0198 10D1     		bne	.L233
 3038 019a 7B68     		ldr	r3, [r7, #4]
 3039 019c 1B68     		ldr	r3, [r3]
 3040 019e 5A68     		ldr	r2, [r3, #4]
 3041 01a0 7B68     		ldr	r3, [r7, #4]
 3042 01a2 1B68     		ldr	r3, [r3]
 3043 01a4 22F02002 		bic	r2, r2, #32
 3044 01a8 5A60     		str	r2, [r3, #4]
 3045 01aa 7B68     		ldr	r3, [r7, #4]
 3046 01ac 1B68     		ldr	r3, [r3]
 3047 01ae 5A68     		ldr	r2, [r3, #4]
 3048 01b0 7B68     		ldr	r3, [r7, #4]
 3049 01b2 1B68     		ldr	r3, [r3]
 3050 01b4 42F04002 		orr	r2, r2, #64
 3051 01b8 5A60     		str	r2, [r3, #4]
 3052 01ba 10E0     		b	.L232
 3053              	.L233:
 3054 01bc 7B68     		ldr	r3, [r7, #4]
 3055 01be 1B68     		ldr	r3, [r3]
 3056 01c0 5A68     		ldr	r2, [r3, #4]
 3057 01c2 7B68     		ldr	r3, [r7, #4]
 3058 01c4 1B68     		ldr	r3, [r3]
 3059 01c6 22F04002 		bic	r2, r2, #64
 3060 01ca 5A60     		str	r2, [r3, #4]
 3061 01cc 7B68     		ldr	r3, [r7, #4]
ARM GAS  /var/folders/k1/1yttftd15rl7jxtpyc5m93n80000gn/T//ccruZCkn.s 			page 53


 3062 01ce 1B68     		ldr	r3, [r3]
 3063 01d0 5A68     		ldr	r2, [r3, #4]
 3064 01d2 7B68     		ldr	r3, [r7, #4]
 3065 01d4 1B68     		ldr	r3, [r3]
 3066 01d6 42F02002 		orr	r2, r2, #32
 3067 01da 5A60     		str	r2, [r3, #4]
 3068 01dc 00BF     		nop
 3069              	.L232:
 3070 01de 7B68     		ldr	r3, [r7, #4]
 3071 01e0 1B68     		ldr	r3, [r3]
 3072 01e2 1846     		mov	r0, r3
 3073 01e4 FFF7FEFF 		bl	LL_ADC_REG_StartConversion
 3074 01e8 5CE0     		b	.L240
 3075              	.L231:
 3076 01ea 7B68     		ldr	r3, [r7, #4]
 3077 01ec DB6D     		ldr	r3, [r3, #92]
 3078 01ee 43F48012 		orr	r2, r3, #1048576
 3079 01f2 7B68     		ldr	r3, [r7, #4]
 3080 01f4 DA65     		str	r2, [r3, #92]
 3081 01f6 7B68     		ldr	r3, [r7, #4]
 3082 01f8 1B68     		ldr	r3, [r3]
 3083 01fa 194A     		ldr	r2, .L241
 3084 01fc 9342     		cmp	r3, r2
 3085 01fe 09D0     		beq	.L235
 3086 0200 7B68     		ldr	r3, [r7, #4]
 3087 0202 1B68     		ldr	r3, [r3]
 3088 0204 194A     		ldr	r2, .L241+12
 3089 0206 9342     		cmp	r3, r2
 3090 0208 02D0     		beq	.L236
 3091 020a 7B68     		ldr	r3, [r7, #4]
 3092 020c 1B68     		ldr	r3, [r3]
 3093 020e 03E0     		b	.L238
 3094              	.L236:
 3095 0210 174B     		ldr	r3, .L241+16
 3096 0212 01E0     		b	.L238
 3097              	.L235:
 3098 0214 4FF0A043 		mov	r3, #1342177280
 3099              	.L238:
 3100 0218 FB60     		str	r3, [r7, #12]
 3101 021a FB68     		ldr	r3, [r7, #12]
 3102 021c DB68     		ldr	r3, [r3, #12]
 3103 021e 03F00073 		and	r3, r3, #33554432
 3104 0222 002B     		cmp	r3, #0
 3105 0224 3ED0     		beq	.L240
 3106 0226 7B68     		ldr	r3, [r7, #4]
 3107 0228 DB6D     		ldr	r3, [r3, #92]
 3108 022a 23F44053 		bic	r3, r3, #12288
 3109 022e 43F48052 		orr	r2, r3, #4096
 3110 0232 7B68     		ldr	r3, [r7, #4]
 3111 0234 DA65     		str	r2, [r3, #92]
 3112 0236 7B68     		ldr	r3, [r7, #4]
 3113 0238 9B69     		ldr	r3, [r3, #24]
 3114 023a 082B     		cmp	r3, #8
 3115 023c 1AD1     		bne	.L239
 3116 023e 7B68     		ldr	r3, [r7, #4]
 3117 0240 1B68     		ldr	r3, [r3]
 3118 0242 5A68     		ldr	r2, [r3, #4]
ARM GAS  /var/folders/k1/1yttftd15rl7jxtpyc5m93n80000gn/T//ccruZCkn.s 			page 54


 3119 0244 7B68     		ldr	r3, [r7, #4]
 3120 0246 1B68     		ldr	r3, [r3]
 3121 0248 22F02002 		bic	r2, r2, #32
 3122 024c 5A60     		str	r2, [r3, #4]
 3123 024e 7B68     		ldr	r3, [r7, #4]
 3124 0250 1B68     		ldr	r3, [r3]
 3125 0252 5A68     		ldr	r2, [r3, #4]
 3126 0254 7B68     		ldr	r3, [r7, #4]
 3127 0256 1B68     		ldr	r3, [r3]
 3128 0258 42F04002 		orr	r2, r2, #64
 3129 025c 5A60     		str	r2, [r3, #4]
 3130 025e 21E0     		b	.L240
 3131              	.L242:
 3132              		.align	2
 3133              	.L241:
 3134 0260 00010050 		.word	1342177536
 3135 0264 00030050 		.word	1342178048
 3136 0268 00070050 		.word	1342179072
 3137 026c 00050050 		.word	1342178560
 3138 0270 00040050 		.word	1342178304
 3139              	.L239:
 3140 0274 7B68     		ldr	r3, [r7, #4]
 3141 0276 1B68     		ldr	r3, [r3]
 3142 0278 5A68     		ldr	r2, [r3, #4]
 3143 027a 7B68     		ldr	r3, [r7, #4]
 3144 027c 1B68     		ldr	r3, [r3]
 3145 027e 22F04002 		bic	r2, r2, #64
 3146 0282 5A60     		str	r2, [r3, #4]
 3147 0284 7B68     		ldr	r3, [r7, #4]
 3148 0286 1B68     		ldr	r3, [r3]
 3149 0288 5A68     		ldr	r2, [r3, #4]
 3150 028a 7B68     		ldr	r3, [r7, #4]
 3151 028c 1B68     		ldr	r3, [r3]
 3152 028e 42F02002 		orr	r2, r2, #32
 3153 0292 5A60     		str	r2, [r3, #4]
 3154 0294 06E0     		b	.L240
 3155              	.L214:
 3156 0296 7B68     		ldr	r3, [r7, #4]
 3157 0298 0022     		movs	r2, #0
 3158 029a 83F85820 		strb	r2, [r3, #88]
 3159 029e 01E0     		b	.L240
 3160              	.L211:
 3161 02a0 0223     		movs	r3, #2
 3162 02a2 FB75     		strb	r3, [r7, #23]
 3163              	.L240:
 3164 02a4 FB7D     		ldrb	r3, [r7, #23]	@ zero_extendqisi2
 3165              	.L213:
 3166 02a6 1846     		mov	r0, r3
 3167 02a8 1837     		adds	r7, r7, #24
 3168 02aa BD46     		mov	sp, r7
 3169              		@ sp needed
 3170 02ac 80BD     		pop	{r7, pc}
 3172 02ae 00BF     		.section	.text.HAL_ADC_Stop_IT,"ax",%progbits
 3173              		.align	1
 3174              		.global	HAL_ADC_Stop_IT
 3175              		.syntax unified
 3176              		.thumb
ARM GAS  /var/folders/k1/1yttftd15rl7jxtpyc5m93n80000gn/T//ccruZCkn.s 			page 55


 3177              		.thumb_func
 3179              	HAL_ADC_Stop_IT:
 3180              		@ args = 0, pretend = 0, frame = 16
 3181              		@ frame_needed = 1, uses_anonymous_args = 0
 3182 0000 80B5     		push	{r7, lr}
 3183 0002 84B0     		sub	sp, sp, #16
 3184 0004 00AF     		add	r7, sp, #0
 3185 0006 7860     		str	r0, [r7, #4]
 3186 0008 7B68     		ldr	r3, [r7, #4]
 3187 000a 93F85830 		ldrb	r3, [r3, #88]	@ zero_extendqisi2
 3188 000e 012B     		cmp	r3, #1
 3189 0010 01D1     		bne	.L244
 3190 0012 0223     		movs	r3, #2
 3191 0014 2BE0     		b	.L245
 3192              	.L244:
 3193 0016 7B68     		ldr	r3, [r7, #4]
 3194 0018 0122     		movs	r2, #1
 3195 001a 83F85820 		strb	r2, [r3, #88]
 3196 001e 0321     		movs	r1, #3
 3197 0020 7868     		ldr	r0, [r7, #4]
 3198 0022 FFF7FEFF 		bl	ADC_ConversionStop
 3199 0026 0346     		mov	r3, r0
 3200 0028 FB73     		strb	r3, [r7, #15]
 3201 002a FB7B     		ldrb	r3, [r7, #15]	@ zero_extendqisi2
 3202 002c 002B     		cmp	r3, #0
 3203 002e 19D1     		bne	.L246
 3204 0030 7B68     		ldr	r3, [r7, #4]
 3205 0032 1B68     		ldr	r3, [r3]
 3206 0034 5A68     		ldr	r2, [r3, #4]
 3207 0036 7B68     		ldr	r3, [r7, #4]
 3208 0038 1B68     		ldr	r3, [r3]
 3209 003a 22F01C02 		bic	r2, r2, #28
 3210 003e 5A60     		str	r2, [r3, #4]
 3211 0040 7868     		ldr	r0, [r7, #4]
 3212 0042 FFF7FEFF 		bl	ADC_Disable
 3213 0046 0346     		mov	r3, r0
 3214 0048 FB73     		strb	r3, [r7, #15]
 3215 004a FB7B     		ldrb	r3, [r7, #15]	@ zero_extendqisi2
 3216 004c 002B     		cmp	r3, #0
 3217 004e 09D1     		bne	.L246
 3218 0050 7B68     		ldr	r3, [r7, #4]
 3219 0052 DB6D     		ldr	r3, [r3, #92]
 3220 0054 23F48853 		bic	r3, r3, #4352
 3221 0058 23F00103 		bic	r3, r3, #1
 3222 005c 43F00102 		orr	r2, r3, #1
 3223 0060 7B68     		ldr	r3, [r7, #4]
 3224 0062 DA65     		str	r2, [r3, #92]
 3225              	.L246:
 3226 0064 7B68     		ldr	r3, [r7, #4]
 3227 0066 0022     		movs	r2, #0
 3228 0068 83F85820 		strb	r2, [r3, #88]
 3229 006c FB7B     		ldrb	r3, [r7, #15]	@ zero_extendqisi2
 3230              	.L245:
 3231 006e 1846     		mov	r0, r3
 3232 0070 1037     		adds	r7, r7, #16
 3233 0072 BD46     		mov	sp, r7
 3234              		@ sp needed
ARM GAS  /var/folders/k1/1yttftd15rl7jxtpyc5m93n80000gn/T//ccruZCkn.s 			page 56


 3235 0074 80BD     		pop	{r7, pc}
 3237              		.section	.text.HAL_ADC_Start_DMA,"ax",%progbits
 3238              		.align	1
 3239              		.global	HAL_ADC_Start_DMA
 3240              		.syntax unified
 3241              		.thumb
 3242              		.thumb_func
 3244              	HAL_ADC_Start_DMA:
 3245              		@ args = 0, pretend = 0, frame = 24
 3246              		@ frame_needed = 1, uses_anonymous_args = 0
 3247 0000 80B5     		push	{r7, lr}
 3248 0002 86B0     		sub	sp, sp, #24
 3249 0004 00AF     		add	r7, sp, #0
 3250 0006 F860     		str	r0, [r7, #12]
 3251 0008 B960     		str	r1, [r7, #8]
 3252 000a 7A60     		str	r2, [r7, #4]
 3253 000c FB68     		ldr	r3, [r7, #12]
 3254 000e 1B68     		ldr	r3, [r3]
 3255 0010 B3F1A04F 		cmp	r3, #1342177280
 3256 0014 04D0     		beq	.L248
 3257 0016 FB68     		ldr	r3, [r7, #12]
 3258 0018 1B68     		ldr	r3, [r3]
 3259 001a 5A4A     		ldr	r2, .L268
 3260 001c 9342     		cmp	r3, r2
 3261 001e 01D1     		bne	.L249
 3262              	.L248:
 3263 0020 594B     		ldr	r3, .L268+4
 3264 0022 00E0     		b	.L250
 3265              	.L249:
 3266 0024 594B     		ldr	r3, .L268+8
 3267              	.L250:
 3268 0026 1846     		mov	r0, r3
 3269 0028 FFF7FEFF 		bl	LL_ADC_GetMultimode
 3270 002c 3861     		str	r0, [r7, #16]
 3271 002e FB68     		ldr	r3, [r7, #12]
 3272 0030 1B68     		ldr	r3, [r3]
 3273 0032 1846     		mov	r0, r3
 3274 0034 FFF7FEFF 		bl	LL_ADC_REG_IsConversionOngoing
 3275 0038 0346     		mov	r3, r0
 3276 003a 002B     		cmp	r3, #0
 3277 003c 40F09B80 		bne	.L251
 3278 0040 FB68     		ldr	r3, [r7, #12]
 3279 0042 93F85830 		ldrb	r3, [r3, #88]	@ zero_extendqisi2
 3280 0046 012B     		cmp	r3, #1
 3281 0048 01D1     		bne	.L252
 3282 004a 0223     		movs	r3, #2
 3283 004c 96E0     		b	.L253
 3284              	.L252:
 3285 004e FB68     		ldr	r3, [r7, #12]
 3286 0050 0122     		movs	r2, #1
 3287 0052 83F85820 		strb	r2, [r3, #88]
 3288 0056 FB68     		ldr	r3, [r7, #12]
 3289 0058 1B68     		ldr	r3, [r3]
 3290 005a 4D4A     		ldr	r2, .L268+12
 3291 005c 9342     		cmp	r3, r2
 3292 005e 08D0     		beq	.L254
 3293 0060 3B69     		ldr	r3, [r7, #16]
ARM GAS  /var/folders/k1/1yttftd15rl7jxtpyc5m93n80000gn/T//ccruZCkn.s 			page 57


 3294 0062 002B     		cmp	r3, #0
 3295 0064 05D0     		beq	.L254
 3296 0066 3B69     		ldr	r3, [r7, #16]
 3297 0068 052B     		cmp	r3, #5
 3298 006a 02D0     		beq	.L254
 3299 006c 3B69     		ldr	r3, [r7, #16]
 3300 006e 092B     		cmp	r3, #9
 3301 0070 7AD1     		bne	.L255
 3302              	.L254:
 3303 0072 F868     		ldr	r0, [r7, #12]
 3304 0074 FFF7FEFF 		bl	ADC_Enable
 3305 0078 0346     		mov	r3, r0
 3306 007a FB75     		strb	r3, [r7, #23]
 3307 007c FB7D     		ldrb	r3, [r7, #23]	@ zero_extendqisi2
 3308 007e 002B     		cmp	r3, #0
 3309 0080 6DD1     		bne	.L256
 3310 0082 FB68     		ldr	r3, [r7, #12]
 3311 0084 DB6D     		ldr	r3, [r3, #92]
 3312 0086 23F47063 		bic	r3, r3, #3840
 3313 008a 23F00103 		bic	r3, r3, #1
 3314 008e 43F48072 		orr	r2, r3, #256
 3315 0092 FB68     		ldr	r3, [r7, #12]
 3316 0094 DA65     		str	r2, [r3, #92]
 3317 0096 FB68     		ldr	r3, [r7, #12]
 3318 0098 1B68     		ldr	r3, [r3]
 3319 009a 3A4A     		ldr	r2, .L268
 3320 009c 9342     		cmp	r3, r2
 3321 009e 09D0     		beq	.L257
 3322 00a0 FB68     		ldr	r3, [r7, #12]
 3323 00a2 1B68     		ldr	r3, [r3]
 3324 00a4 3B4A     		ldr	r2, .L268+16
 3325 00a6 9342     		cmp	r3, r2
 3326 00a8 02D0     		beq	.L258
 3327 00aa FB68     		ldr	r3, [r7, #12]
 3328 00ac 1B68     		ldr	r3, [r3]
 3329 00ae 03E0     		b	.L260
 3330              	.L258:
 3331 00b0 394B     		ldr	r3, .L268+20
 3332 00b2 01E0     		b	.L260
 3333              	.L257:
 3334 00b4 4FF0A043 		mov	r3, #1342177280
 3335              	.L260:
 3336 00b8 FA68     		ldr	r2, [r7, #12]
 3337 00ba 1268     		ldr	r2, [r2]
 3338 00bc 9342     		cmp	r3, r2
 3339 00be 02D0     		beq	.L261
 3340 00c0 3B69     		ldr	r3, [r7, #16]
 3341 00c2 002B     		cmp	r3, #0
 3342 00c4 05D1     		bne	.L262
 3343              	.L261:
 3344 00c6 FB68     		ldr	r3, [r7, #12]
 3345 00c8 DB6D     		ldr	r3, [r3, #92]
 3346 00ca 23F48012 		bic	r2, r3, #1048576
 3347 00ce FB68     		ldr	r3, [r7, #12]
 3348 00d0 DA65     		str	r2, [r3, #92]
 3349              	.L262:
 3350 00d2 FB68     		ldr	r3, [r7, #12]
ARM GAS  /var/folders/k1/1yttftd15rl7jxtpyc5m93n80000gn/T//ccruZCkn.s 			page 58


 3351 00d4 DB6D     		ldr	r3, [r3, #92]
 3352 00d6 03F48053 		and	r3, r3, #4096
 3353 00da 002B     		cmp	r3, #0
 3354 00dc 06D0     		beq	.L263
 3355 00de FB68     		ldr	r3, [r7, #12]
 3356 00e0 1B6E     		ldr	r3, [r3, #96]
 3357 00e2 23F00602 		bic	r2, r3, #6
 3358 00e6 FB68     		ldr	r3, [r7, #12]
 3359 00e8 1A66     		str	r2, [r3, #96]
 3360 00ea 02E0     		b	.L264
 3361              	.L263:
 3362 00ec FB68     		ldr	r3, [r7, #12]
 3363 00ee 0022     		movs	r2, #0
 3364 00f0 1A66     		str	r2, [r3, #96]
 3365              	.L264:
 3366 00f2 FB68     		ldr	r3, [r7, #12]
 3367 00f4 5B6D     		ldr	r3, [r3, #84]
 3368 00f6 294A     		ldr	r2, .L268+24
 3369 00f8 DA62     		str	r2, [r3, #44]
 3370 00fa FB68     		ldr	r3, [r7, #12]
 3371 00fc 5B6D     		ldr	r3, [r3, #84]
 3372 00fe 284A     		ldr	r2, .L268+28
 3373 0100 1A63     		str	r2, [r3, #48]
 3374 0102 FB68     		ldr	r3, [r7, #12]
 3375 0104 5B6D     		ldr	r3, [r3, #84]
 3376 0106 274A     		ldr	r2, .L268+32
 3377 0108 5A63     		str	r2, [r3, #52]
 3378 010a FB68     		ldr	r3, [r7, #12]
 3379 010c 1B68     		ldr	r3, [r3]
 3380 010e 1C22     		movs	r2, #28
 3381 0110 1A60     		str	r2, [r3]
 3382 0112 FB68     		ldr	r3, [r7, #12]
 3383 0114 0022     		movs	r2, #0
 3384 0116 83F85820 		strb	r2, [r3, #88]
 3385 011a FB68     		ldr	r3, [r7, #12]
 3386 011c 1B68     		ldr	r3, [r3]
 3387 011e 5A68     		ldr	r2, [r3, #4]
 3388 0120 FB68     		ldr	r3, [r7, #12]
 3389 0122 1B68     		ldr	r3, [r3]
 3390 0124 42F01002 		orr	r2, r2, #16
 3391 0128 5A60     		str	r2, [r3, #4]
 3392 012a FB68     		ldr	r3, [r7, #12]
 3393 012c 1B68     		ldr	r3, [r3]
 3394 012e DA68     		ldr	r2, [r3, #12]
 3395 0130 FB68     		ldr	r3, [r7, #12]
 3396 0132 1B68     		ldr	r3, [r3]
 3397 0134 42F00102 		orr	r2, r2, #1
 3398 0138 DA60     		str	r2, [r3, #12]
 3399 013a FB68     		ldr	r3, [r7, #12]
 3400 013c 586D     		ldr	r0, [r3, #84]
 3401 013e FB68     		ldr	r3, [r7, #12]
 3402 0140 1B68     		ldr	r3, [r3]
 3403 0142 4033     		adds	r3, r3, #64
 3404 0144 1946     		mov	r1, r3
 3405 0146 BA68     		ldr	r2, [r7, #8]
 3406 0148 7B68     		ldr	r3, [r7, #4]
 3407 014a FFF7FEFF 		bl	HAL_DMA_Start_IT
ARM GAS  /var/folders/k1/1yttftd15rl7jxtpyc5m93n80000gn/T//ccruZCkn.s 			page 59


 3408 014e 0346     		mov	r3, r0
 3409 0150 FB75     		strb	r3, [r7, #23]
 3410 0152 FB68     		ldr	r3, [r7, #12]
 3411 0154 1B68     		ldr	r3, [r3]
 3412 0156 1846     		mov	r0, r3
 3413 0158 FFF7FEFF 		bl	LL_ADC_REG_StartConversion
 3414 015c 0DE0     		b	.L267
 3415              	.L256:
 3416 015e FB68     		ldr	r3, [r7, #12]
 3417 0160 0022     		movs	r2, #0
 3418 0162 83F85820 		strb	r2, [r3, #88]
 3419 0166 08E0     		b	.L267
 3420              	.L255:
 3421 0168 0123     		movs	r3, #1
 3422 016a FB75     		strb	r3, [r7, #23]
 3423 016c FB68     		ldr	r3, [r7, #12]
 3424 016e 0022     		movs	r2, #0
 3425 0170 83F85820 		strb	r2, [r3, #88]
 3426 0174 01E0     		b	.L267
 3427              	.L251:
 3428 0176 0223     		movs	r3, #2
 3429 0178 FB75     		strb	r3, [r7, #23]
 3430              	.L267:
 3431 017a FB7D     		ldrb	r3, [r7, #23]	@ zero_extendqisi2
 3432              	.L253:
 3433 017c 1846     		mov	r0, r3
 3434 017e 1837     		adds	r7, r7, #24
 3435 0180 BD46     		mov	sp, r7
 3436              		@ sp needed
 3437 0182 80BD     		pop	{r7, pc}
 3438              	.L269:
 3439              		.align	2
 3440              	.L268:
 3441 0184 00010050 		.word	1342177536
 3442 0188 00030050 		.word	1342178048
 3443 018c 00070050 		.word	1342179072
 3444 0190 00060050 		.word	1342178816
 3445 0194 00050050 		.word	1342178560
 3446 0198 00040050 		.word	1342178304
 3447 019c 00000000 		.word	ADC_DMAConvCplt
 3448 01a0 00000000 		.word	ADC_DMAHalfConvCplt
 3449 01a4 00000000 		.word	ADC_DMAError
 3451              		.section	.text.HAL_ADC_Stop_DMA,"ax",%progbits
 3452              		.align	1
 3453              		.global	HAL_ADC_Stop_DMA
 3454              		.syntax unified
 3455              		.thumb
 3456              		.thumb_func
 3458              	HAL_ADC_Stop_DMA:
 3459              		@ args = 0, pretend = 0, frame = 16
 3460              		@ frame_needed = 1, uses_anonymous_args = 0
 3461 0000 80B5     		push	{r7, lr}
 3462 0002 84B0     		sub	sp, sp, #16
 3463 0004 00AF     		add	r7, sp, #0
 3464 0006 7860     		str	r0, [r7, #4]
 3465 0008 7B68     		ldr	r3, [r7, #4]
 3466 000a 93F85830 		ldrb	r3, [r3, #88]	@ zero_extendqisi2
ARM GAS  /var/folders/k1/1yttftd15rl7jxtpyc5m93n80000gn/T//ccruZCkn.s 			page 60


 3467 000e 012B     		cmp	r3, #1
 3468 0010 01D1     		bne	.L271
 3469 0012 0223     		movs	r3, #2
 3470 0014 51E0     		b	.L272
 3471              	.L271:
 3472 0016 7B68     		ldr	r3, [r7, #4]
 3473 0018 0122     		movs	r2, #1
 3474 001a 83F85820 		strb	r2, [r3, #88]
 3475 001e 0321     		movs	r1, #3
 3476 0020 7868     		ldr	r0, [r7, #4]
 3477 0022 FFF7FEFF 		bl	ADC_ConversionStop
 3478 0026 0346     		mov	r3, r0
 3479 0028 FB73     		strb	r3, [r7, #15]
 3480 002a FB7B     		ldrb	r3, [r7, #15]	@ zero_extendqisi2
 3481 002c 002B     		cmp	r3, #0
 3482 002e 3FD1     		bne	.L273
 3483 0030 7B68     		ldr	r3, [r7, #4]
 3484 0032 1B68     		ldr	r3, [r3]
 3485 0034 DA68     		ldr	r2, [r3, #12]
 3486 0036 7B68     		ldr	r3, [r7, #4]
 3487 0038 1B68     		ldr	r3, [r3]
 3488 003a 22F00102 		bic	r2, r2, #1
 3489 003e DA60     		str	r2, [r3, #12]
 3490 0040 7B68     		ldr	r3, [r7, #4]
 3491 0042 5B6D     		ldr	r3, [r3, #84]
 3492 0044 93F82530 		ldrb	r3, [r3, #37]
 3493 0048 DBB2     		uxtb	r3, r3
 3494 004a 022B     		cmp	r3, #2
 3495 004c 0FD1     		bne	.L274
 3496 004e 7B68     		ldr	r3, [r7, #4]
 3497 0050 5B6D     		ldr	r3, [r3, #84]
 3498 0052 1846     		mov	r0, r3
 3499 0054 FFF7FEFF 		bl	HAL_DMA_Abort
 3500 0058 0346     		mov	r3, r0
 3501 005a FB73     		strb	r3, [r7, #15]
 3502 005c FB7B     		ldrb	r3, [r7, #15]	@ zero_extendqisi2
 3503 005e 002B     		cmp	r3, #0
 3504 0060 05D0     		beq	.L274
 3505 0062 7B68     		ldr	r3, [r7, #4]
 3506 0064 DB6D     		ldr	r3, [r3, #92]
 3507 0066 43F04002 		orr	r2, r3, #64
 3508 006a 7B68     		ldr	r3, [r7, #4]
 3509 006c DA65     		str	r2, [r3, #92]
 3510              	.L274:
 3511 006e 7B68     		ldr	r3, [r7, #4]
 3512 0070 1B68     		ldr	r3, [r3]
 3513 0072 5A68     		ldr	r2, [r3, #4]
 3514 0074 7B68     		ldr	r3, [r7, #4]
 3515 0076 1B68     		ldr	r3, [r3]
 3516 0078 22F01002 		bic	r2, r2, #16
 3517 007c 5A60     		str	r2, [r3, #4]
 3518 007e FB7B     		ldrb	r3, [r7, #15]	@ zero_extendqisi2
 3519 0080 002B     		cmp	r3, #0
 3520 0082 05D1     		bne	.L275
 3521 0084 7868     		ldr	r0, [r7, #4]
 3522 0086 FFF7FEFF 		bl	ADC_Disable
 3523 008a 0346     		mov	r3, r0
ARM GAS  /var/folders/k1/1yttftd15rl7jxtpyc5m93n80000gn/T//ccruZCkn.s 			page 61


 3524 008c FB73     		strb	r3, [r7, #15]
 3525 008e 02E0     		b	.L276
 3526              	.L275:
 3527 0090 7868     		ldr	r0, [r7, #4]
 3528 0092 FFF7FEFF 		bl	ADC_Disable
 3529              	.L276:
 3530 0096 FB7B     		ldrb	r3, [r7, #15]	@ zero_extendqisi2
 3531 0098 002B     		cmp	r3, #0
 3532 009a 09D1     		bne	.L273
 3533 009c 7B68     		ldr	r3, [r7, #4]
 3534 009e DB6D     		ldr	r3, [r3, #92]
 3535 00a0 23F48853 		bic	r3, r3, #4352
 3536 00a4 23F00103 		bic	r3, r3, #1
 3537 00a8 43F00102 		orr	r2, r3, #1
 3538 00ac 7B68     		ldr	r3, [r7, #4]
 3539 00ae DA65     		str	r2, [r3, #92]
 3540              	.L273:
 3541 00b0 7B68     		ldr	r3, [r7, #4]
 3542 00b2 0022     		movs	r2, #0
 3543 00b4 83F85820 		strb	r2, [r3, #88]
 3544 00b8 FB7B     		ldrb	r3, [r7, #15]	@ zero_extendqisi2
 3545              	.L272:
 3546 00ba 1846     		mov	r0, r3
 3547 00bc 1037     		adds	r7, r7, #16
 3548 00be BD46     		mov	sp, r7
 3549              		@ sp needed
 3550 00c0 80BD     		pop	{r7, pc}
 3552              		.section	.text.HAL_ADC_GetValue,"ax",%progbits
 3553              		.align	1
 3554              		.global	HAL_ADC_GetValue
 3555              		.syntax unified
 3556              		.thumb
 3557              		.thumb_func
 3559              	HAL_ADC_GetValue:
 3560              		@ args = 0, pretend = 0, frame = 8
 3561              		@ frame_needed = 1, uses_anonymous_args = 0
 3562              		@ link register save eliminated.
 3563 0000 80B4     		push	{r7}
 3564 0002 83B0     		sub	sp, sp, #12
 3565 0004 00AF     		add	r7, sp, #0
 3566 0006 7860     		str	r0, [r7, #4]
 3567 0008 7B68     		ldr	r3, [r7, #4]
 3568 000a 1B68     		ldr	r3, [r3]
 3569 000c 1B6C     		ldr	r3, [r3, #64]
 3570 000e 1846     		mov	r0, r3
 3571 0010 0C37     		adds	r7, r7, #12
 3572 0012 BD46     		mov	sp, r7
 3573              		@ sp needed
 3574 0014 5DF8047B 		ldr	r7, [sp], #4
 3575 0018 7047     		bx	lr
 3577              		.section	.text.HAL_ADC_StartSampling,"ax",%progbits
 3578              		.align	1
 3579              		.global	HAL_ADC_StartSampling
 3580              		.syntax unified
 3581              		.thumb
 3582              		.thumb_func
 3584              	HAL_ADC_StartSampling:
ARM GAS  /var/folders/k1/1yttftd15rl7jxtpyc5m93n80000gn/T//ccruZCkn.s 			page 62


 3585              		@ args = 0, pretend = 0, frame = 8
 3586              		@ frame_needed = 1, uses_anonymous_args = 0
 3587              		@ link register save eliminated.
 3588 0000 80B4     		push	{r7}
 3589 0002 83B0     		sub	sp, sp, #12
 3590 0004 00AF     		add	r7, sp, #0
 3591 0006 7860     		str	r0, [r7, #4]
 3592 0008 7B68     		ldr	r3, [r7, #4]
 3593 000a 1B68     		ldr	r3, [r3]
 3594 000c 1A69     		ldr	r2, [r3, #16]
 3595 000e 7B68     		ldr	r3, [r7, #4]
 3596 0010 1B68     		ldr	r3, [r3]
 3597 0012 42F00072 		orr	r2, r2, #33554432
 3598 0016 1A61     		str	r2, [r3, #16]
 3599 0018 0023     		movs	r3, #0
 3600 001a 1846     		mov	r0, r3
 3601 001c 0C37     		adds	r7, r7, #12
 3602 001e BD46     		mov	sp, r7
 3603              		@ sp needed
 3604 0020 5DF8047B 		ldr	r7, [sp], #4
 3605 0024 7047     		bx	lr
 3607              		.section	.text.HAL_ADC_StopSampling,"ax",%progbits
 3608              		.align	1
 3609              		.global	HAL_ADC_StopSampling
 3610              		.syntax unified
 3611              		.thumb
 3612              		.thumb_func
 3614              	HAL_ADC_StopSampling:
 3615              		@ args = 0, pretend = 0, frame = 8
 3616              		@ frame_needed = 1, uses_anonymous_args = 0
 3617              		@ link register save eliminated.
 3618 0000 80B4     		push	{r7}
 3619 0002 83B0     		sub	sp, sp, #12
 3620 0004 00AF     		add	r7, sp, #0
 3621 0006 7860     		str	r0, [r7, #4]
 3622 0008 7B68     		ldr	r3, [r7, #4]
 3623 000a 1B68     		ldr	r3, [r3]
 3624 000c 1A69     		ldr	r2, [r3, #16]
 3625 000e 7B68     		ldr	r3, [r7, #4]
 3626 0010 1B68     		ldr	r3, [r3]
 3627 0012 22F00072 		bic	r2, r2, #33554432
 3628 0016 1A61     		str	r2, [r3, #16]
 3629 0018 0023     		movs	r3, #0
 3630 001a 1846     		mov	r0, r3
 3631 001c 0C37     		adds	r7, r7, #12
 3632 001e BD46     		mov	sp, r7
 3633              		@ sp needed
 3634 0020 5DF8047B 		ldr	r7, [sp], #4
 3635 0024 7047     		bx	lr
 3637              		.section	.text.HAL_ADC_IRQHandler,"ax",%progbits
 3638              		.align	1
 3639              		.global	HAL_ADC_IRQHandler
 3640              		.syntax unified
 3641              		.thumb
 3642              		.thumb_func
 3644              	HAL_ADC_IRQHandler:
 3645              		@ args = 0, pretend = 0, frame = 40
ARM GAS  /var/folders/k1/1yttftd15rl7jxtpyc5m93n80000gn/T//ccruZCkn.s 			page 63


 3646              		@ frame_needed = 1, uses_anonymous_args = 0
 3647 0000 80B5     		push	{r7, lr}
 3648 0002 8AB0     		sub	sp, sp, #40
 3649 0004 00AF     		add	r7, sp, #0
 3650 0006 7860     		str	r0, [r7, #4]
 3651 0008 0023     		movs	r3, #0
 3652 000a 7B62     		str	r3, [r7, #36]
 3653 000c 7B68     		ldr	r3, [r7, #4]
 3654 000e 1B68     		ldr	r3, [r3]
 3655 0010 1B68     		ldr	r3, [r3]
 3656 0012 FB61     		str	r3, [r7, #28]
 3657 0014 7B68     		ldr	r3, [r7, #4]
 3658 0016 1B68     		ldr	r3, [r3]
 3659 0018 5B68     		ldr	r3, [r3, #4]
 3660 001a BB61     		str	r3, [r7, #24]
 3661 001c 7B68     		ldr	r3, [r7, #4]
 3662 001e 1B68     		ldr	r3, [r3]
 3663 0020 B3F1A04F 		cmp	r3, #1342177280
 3664 0024 04D0     		beq	.L284
 3665 0026 7B68     		ldr	r3, [r7, #4]
 3666 0028 1B68     		ldr	r3, [r3]
 3667 002a 8E4A     		ldr	r2, .L337
 3668 002c 9342     		cmp	r3, r2
 3669 002e 01D1     		bne	.L285
 3670              	.L284:
 3671 0030 8D4B     		ldr	r3, .L337+4
 3672 0032 00E0     		b	.L286
 3673              	.L285:
 3674 0034 8D4B     		ldr	r3, .L337+8
 3675              	.L286:
 3676 0036 1846     		mov	r0, r3
 3677 0038 FFF7FEFF 		bl	LL_ADC_GetMultimode
 3678 003c 7861     		str	r0, [r7, #20]
 3679 003e FB69     		ldr	r3, [r7, #28]
 3680 0040 03F00203 		and	r3, r3, #2
 3681 0044 002B     		cmp	r3, #0
 3682 0046 17D0     		beq	.L287
 3683 0048 BB69     		ldr	r3, [r7, #24]
 3684 004a 03F00203 		and	r3, r3, #2
 3685 004e 002B     		cmp	r3, #0
 3686 0050 12D0     		beq	.L287
 3687 0052 7B68     		ldr	r3, [r7, #4]
 3688 0054 DB6D     		ldr	r3, [r3, #92]
 3689 0056 03F01003 		and	r3, r3, #16
 3690 005a 002B     		cmp	r3, #0
 3691 005c 05D1     		bne	.L288
 3692 005e 7B68     		ldr	r3, [r7, #4]
 3693 0060 DB6D     		ldr	r3, [r3, #92]
 3694 0062 43F40062 		orr	r2, r3, #2048
 3695 0066 7B68     		ldr	r3, [r7, #4]
 3696 0068 DA65     		str	r2, [r3, #92]
 3697              	.L288:
 3698 006a 7868     		ldr	r0, [r7, #4]
 3699 006c FFF7FEFF 		bl	HAL_ADCEx_EndOfSamplingCallback
 3700 0070 7B68     		ldr	r3, [r7, #4]
 3701 0072 1B68     		ldr	r3, [r3]
 3702 0074 0222     		movs	r2, #2
ARM GAS  /var/folders/k1/1yttftd15rl7jxtpyc5m93n80000gn/T//ccruZCkn.s 			page 64


 3703 0076 1A60     		str	r2, [r3]
 3704              	.L287:
 3705 0078 FB69     		ldr	r3, [r7, #28]
 3706 007a 03F00403 		and	r3, r3, #4
 3707 007e 002B     		cmp	r3, #0
 3708 0080 04D0     		beq	.L289
 3709 0082 BB69     		ldr	r3, [r7, #24]
 3710 0084 03F00403 		and	r3, r3, #4
 3711 0088 002B     		cmp	r3, #0
 3712 008a 0BD1     		bne	.L290
 3713              	.L289:
 3714 008c FB69     		ldr	r3, [r7, #28]
 3715 008e 03F00803 		and	r3, r3, #8
 3716 0092 002B     		cmp	r3, #0
 3717 0094 00F09480 		beq	.L291
 3718 0098 BB69     		ldr	r3, [r7, #24]
 3719 009a 03F00803 		and	r3, r3, #8
 3720 009e 002B     		cmp	r3, #0
 3721 00a0 00F08E80 		beq	.L291
 3722              	.L290:
 3723 00a4 7B68     		ldr	r3, [r7, #4]
 3724 00a6 DB6D     		ldr	r3, [r3, #92]
 3725 00a8 03F01003 		and	r3, r3, #16
 3726 00ac 002B     		cmp	r3, #0
 3727 00ae 05D1     		bne	.L292
 3728 00b0 7B68     		ldr	r3, [r7, #4]
 3729 00b2 DB6D     		ldr	r3, [r3, #92]
 3730 00b4 43F40072 		orr	r2, r3, #512
 3731 00b8 7B68     		ldr	r3, [r7, #4]
 3732 00ba DA65     		str	r2, [r3, #92]
 3733              	.L292:
 3734 00bc 7B68     		ldr	r3, [r7, #4]
 3735 00be 1B68     		ldr	r3, [r3]
 3736 00c0 1846     		mov	r0, r3
 3737 00c2 FFF7FEFF 		bl	LL_ADC_REG_IsTriggerSourceSWStart
 3738 00c6 0346     		mov	r3, r0
 3739 00c8 002B     		cmp	r3, #0
 3740 00ca 72D0     		beq	.L293
 3741 00cc 7B68     		ldr	r3, [r7, #4]
 3742 00ce 1B68     		ldr	r3, [r3]
 3743 00d0 644A     		ldr	r2, .L337
 3744 00d2 9342     		cmp	r3, r2
 3745 00d4 09D0     		beq	.L294
 3746 00d6 7B68     		ldr	r3, [r7, #4]
 3747 00d8 1B68     		ldr	r3, [r3]
 3748 00da 654A     		ldr	r2, .L337+12
 3749 00dc 9342     		cmp	r3, r2
 3750 00de 02D0     		beq	.L295
 3751 00e0 7B68     		ldr	r3, [r7, #4]
 3752 00e2 1B68     		ldr	r3, [r3]
 3753 00e4 03E0     		b	.L297
 3754              	.L295:
 3755 00e6 634B     		ldr	r3, .L337+16
 3756 00e8 01E0     		b	.L297
 3757              	.L294:
 3758 00ea 4FF0A043 		mov	r3, #1342177280
 3759              	.L297:
ARM GAS  /var/folders/k1/1yttftd15rl7jxtpyc5m93n80000gn/T//ccruZCkn.s 			page 65


 3760 00ee 7A68     		ldr	r2, [r7, #4]
 3761 00f0 1268     		ldr	r2, [r2]
 3762 00f2 9342     		cmp	r3, r2
 3763 00f4 08D0     		beq	.L298
 3764 00f6 7B69     		ldr	r3, [r7, #20]
 3765 00f8 002B     		cmp	r3, #0
 3766 00fa 05D0     		beq	.L298
 3767 00fc 7B69     		ldr	r3, [r7, #20]
 3768 00fe 052B     		cmp	r3, #5
 3769 0100 02D0     		beq	.L298
 3770 0102 7B69     		ldr	r3, [r7, #20]
 3771 0104 092B     		cmp	r3, #9
 3772 0106 04D1     		bne	.L299
 3773              	.L298:
 3774 0108 7B68     		ldr	r3, [r7, #4]
 3775 010a 1B68     		ldr	r3, [r3]
 3776 010c DB68     		ldr	r3, [r3, #12]
 3777 010e 3B62     		str	r3, [r7, #32]
 3778 0110 14E0     		b	.L300
 3779              	.L299:
 3780 0112 7B68     		ldr	r3, [r7, #4]
 3781 0114 1B68     		ldr	r3, [r3]
 3782 0116 534A     		ldr	r2, .L337
 3783 0118 9342     		cmp	r3, r2
 3784 011a 09D0     		beq	.L301
 3785 011c 7B68     		ldr	r3, [r7, #4]
 3786 011e 1B68     		ldr	r3, [r3]
 3787 0120 534A     		ldr	r2, .L337+12
 3788 0122 9342     		cmp	r3, r2
 3789 0124 02D0     		beq	.L302
 3790 0126 7B68     		ldr	r3, [r7, #4]
 3791 0128 1B68     		ldr	r3, [r3]
 3792 012a 03E0     		b	.L304
 3793              	.L302:
 3794 012c 514B     		ldr	r3, .L337+16
 3795 012e 01E0     		b	.L304
 3796              	.L301:
 3797 0130 4FF0A043 		mov	r3, #1342177280
 3798              	.L304:
 3799 0134 3B61     		str	r3, [r7, #16]
 3800 0136 3B69     		ldr	r3, [r7, #16]
 3801 0138 DB68     		ldr	r3, [r3, #12]
 3802 013a 3B62     		str	r3, [r7, #32]
 3803              	.L300:
 3804 013c 3B6A     		ldr	r3, [r7, #32]
 3805 013e 03F40053 		and	r3, r3, #8192
 3806 0142 002B     		cmp	r3, #0
 3807 0144 35D1     		bne	.L293
 3808 0146 7B68     		ldr	r3, [r7, #4]
 3809 0148 1B68     		ldr	r3, [r3]
 3810 014a 1B68     		ldr	r3, [r3]
 3811 014c 03F00803 		and	r3, r3, #8
 3812 0150 082B     		cmp	r3, #8
 3813 0152 2ED1     		bne	.L293
 3814 0154 7B68     		ldr	r3, [r7, #4]
 3815 0156 1B68     		ldr	r3, [r3]
 3816 0158 1846     		mov	r0, r3
ARM GAS  /var/folders/k1/1yttftd15rl7jxtpyc5m93n80000gn/T//ccruZCkn.s 			page 66


 3817 015a FFF7FEFF 		bl	LL_ADC_REG_IsConversionOngoing
 3818 015e 0346     		mov	r3, r0
 3819 0160 002B     		cmp	r3, #0
 3820 0162 1AD1     		bne	.L305
 3821 0164 7B68     		ldr	r3, [r7, #4]
 3822 0166 1B68     		ldr	r3, [r3]
 3823 0168 5A68     		ldr	r2, [r3, #4]
 3824 016a 7B68     		ldr	r3, [r7, #4]
 3825 016c 1B68     		ldr	r3, [r3]
 3826 016e 22F00C02 		bic	r2, r2, #12
 3827 0172 5A60     		str	r2, [r3, #4]
 3828 0174 7B68     		ldr	r3, [r7, #4]
 3829 0176 DB6D     		ldr	r3, [r3, #92]
 3830 0178 23F48072 		bic	r2, r3, #256
 3831 017c 7B68     		ldr	r3, [r7, #4]
 3832 017e DA65     		str	r2, [r3, #92]
 3833 0180 7B68     		ldr	r3, [r7, #4]
 3834 0182 DB6D     		ldr	r3, [r3, #92]
 3835 0184 03F48053 		and	r3, r3, #4096
 3836 0188 002B     		cmp	r3, #0
 3837 018a 12D1     		bne	.L293
 3838 018c 7B68     		ldr	r3, [r7, #4]
 3839 018e DB6D     		ldr	r3, [r3, #92]
 3840 0190 43F00102 		orr	r2, r3, #1
 3841 0194 7B68     		ldr	r3, [r7, #4]
 3842 0196 DA65     		str	r2, [r3, #92]
 3843 0198 0BE0     		b	.L293
 3844              	.L305:
 3845 019a 7B68     		ldr	r3, [r7, #4]
 3846 019c DB6D     		ldr	r3, [r3, #92]
 3847 019e 43F01002 		orr	r2, r3, #16
 3848 01a2 7B68     		ldr	r3, [r7, #4]
 3849 01a4 DA65     		str	r2, [r3, #92]
 3850 01a6 7B68     		ldr	r3, [r7, #4]
 3851 01a8 1B6E     		ldr	r3, [r3, #96]
 3852 01aa 43F00102 		orr	r2, r3, #1
 3853 01ae 7B68     		ldr	r3, [r7, #4]
 3854 01b0 1A66     		str	r2, [r3, #96]
 3855              	.L293:
 3856 01b2 7868     		ldr	r0, [r7, #4]
 3857 01b4 FFF7FEFF 		bl	HAL_ADC_ConvCpltCallback
 3858 01b8 7B68     		ldr	r3, [r7, #4]
 3859 01ba 1B68     		ldr	r3, [r3]
 3860 01bc 0C22     		movs	r2, #12
 3861 01be 1A60     		str	r2, [r3]
 3862              	.L291:
 3863 01c0 FB69     		ldr	r3, [r7, #28]
 3864 01c2 03F02003 		and	r3, r3, #32
 3865 01c6 002B     		cmp	r3, #0
 3866 01c8 04D0     		beq	.L306
 3867 01ca BB69     		ldr	r3, [r7, #24]
 3868 01cc 03F02003 		and	r3, r3, #32
 3869 01d0 002B     		cmp	r3, #0
 3870 01d2 0BD1     		bne	.L307
 3871              	.L306:
 3872 01d4 FB69     		ldr	r3, [r7, #28]
 3873 01d6 03F04003 		and	r3, r3, #64
ARM GAS  /var/folders/k1/1yttftd15rl7jxtpyc5m93n80000gn/T//ccruZCkn.s 			page 67


 3874 01da 002B     		cmp	r3, #0
 3875 01dc 00F0B380 		beq	.L308
 3876 01e0 BB69     		ldr	r3, [r7, #24]
 3877 01e2 03F04003 		and	r3, r3, #64
 3878 01e6 002B     		cmp	r3, #0
 3879 01e8 00F0AD80 		beq	.L308
 3880              	.L307:
 3881 01ec 7B68     		ldr	r3, [r7, #4]
 3882 01ee DB6D     		ldr	r3, [r3, #92]
 3883 01f0 03F01003 		and	r3, r3, #16
 3884 01f4 002B     		cmp	r3, #0
 3885 01f6 05D1     		bne	.L309
 3886 01f8 7B68     		ldr	r3, [r7, #4]
 3887 01fa DB6D     		ldr	r3, [r3, #92]
 3888 01fc 43F40052 		orr	r2, r3, #8192
 3889 0200 7B68     		ldr	r3, [r7, #4]
 3890 0202 DA65     		str	r2, [r3, #92]
 3891              	.L309:
 3892 0204 7B68     		ldr	r3, [r7, #4]
 3893 0206 1B68     		ldr	r3, [r3]
 3894 0208 1846     		mov	r0, r3
 3895 020a FFF7FEFF 		bl	LL_ADC_INJ_IsTriggerSourceSWStart
 3896 020e F860     		str	r0, [r7, #12]
 3897 0210 7B68     		ldr	r3, [r7, #4]
 3898 0212 1B68     		ldr	r3, [r3]
 3899 0214 1846     		mov	r0, r3
 3900 0216 FFF7FEFF 		bl	LL_ADC_REG_IsTriggerSourceSWStart
 3901 021a B860     		str	r0, [r7, #8]
 3902 021c 7B68     		ldr	r3, [r7, #4]
 3903 021e 1B68     		ldr	r3, [r3]
 3904 0220 104A     		ldr	r2, .L337
 3905 0222 9342     		cmp	r3, r2
 3906 0224 09D0     		beq	.L310
 3907 0226 7B68     		ldr	r3, [r7, #4]
 3908 0228 1B68     		ldr	r3, [r3]
 3909 022a 114A     		ldr	r2, .L337+12
 3910 022c 9342     		cmp	r3, r2
 3911 022e 02D0     		beq	.L311
 3912 0230 7B68     		ldr	r3, [r7, #4]
 3913 0232 1B68     		ldr	r3, [r3]
 3914 0234 03E0     		b	.L313
 3915              	.L311:
 3916 0236 0F4B     		ldr	r3, .L337+16
 3917 0238 01E0     		b	.L313
 3918              	.L310:
 3919 023a 4FF0A043 		mov	r3, #1342177280
 3920              	.L313:
 3921 023e 7A68     		ldr	r2, [r7, #4]
 3922 0240 1268     		ldr	r2, [r2]
 3923 0242 9342     		cmp	r3, r2
 3924 0244 08D0     		beq	.L314
 3925 0246 7B69     		ldr	r3, [r7, #20]
 3926 0248 002B     		cmp	r3, #0
 3927 024a 05D0     		beq	.L314
 3928 024c 7B69     		ldr	r3, [r7, #20]
 3929 024e 062B     		cmp	r3, #6
 3930 0250 02D0     		beq	.L314
ARM GAS  /var/folders/k1/1yttftd15rl7jxtpyc5m93n80000gn/T//ccruZCkn.s 			page 68


 3931 0252 7B69     		ldr	r3, [r7, #20]
 3932 0254 072B     		cmp	r3, #7
 3933 0256 0FD1     		bne	.L315
 3934              	.L314:
 3935 0258 7B68     		ldr	r3, [r7, #4]
 3936 025a 1B68     		ldr	r3, [r3]
 3937 025c DB68     		ldr	r3, [r3, #12]
 3938 025e 3B62     		str	r3, [r7, #32]
 3939 0260 1FE0     		b	.L316
 3940              	.L338:
 3941 0262 00BF     		.align	2
 3942              	.L337:
 3943 0264 00010050 		.word	1342177536
 3944 0268 00030050 		.word	1342178048
 3945 026c 00070050 		.word	1342179072
 3946 0270 00050050 		.word	1342178560
 3947 0274 00040050 		.word	1342178304
 3948              	.L315:
 3949 0278 7B68     		ldr	r3, [r7, #4]
 3950 027a 1B68     		ldr	r3, [r3]
 3951 027c 8B4A     		ldr	r2, .L339
 3952 027e 9342     		cmp	r3, r2
 3953 0280 09D0     		beq	.L317
 3954 0282 7B68     		ldr	r3, [r7, #4]
 3955 0284 1B68     		ldr	r3, [r3]
 3956 0286 8A4A     		ldr	r2, .L339+4
 3957 0288 9342     		cmp	r3, r2
 3958 028a 02D0     		beq	.L318
 3959 028c 7B68     		ldr	r3, [r7, #4]
 3960 028e 1B68     		ldr	r3, [r3]
 3961 0290 03E0     		b	.L320
 3962              	.L318:
 3963 0292 884B     		ldr	r3, .L339+8
 3964 0294 01E0     		b	.L320
 3965              	.L317:
 3966 0296 4FF0A043 		mov	r3, #1342177280
 3967              	.L320:
 3968 029a 3B61     		str	r3, [r7, #16]
 3969 029c 3B69     		ldr	r3, [r7, #16]
 3970 029e DB68     		ldr	r3, [r3, #12]
 3971 02a0 3B62     		str	r3, [r7, #32]
 3972              	.L316:
 3973 02a2 FB68     		ldr	r3, [r7, #12]
 3974 02a4 002B     		cmp	r3, #0
 3975 02a6 47D0     		beq	.L321
 3976 02a8 3B6A     		ldr	r3, [r7, #32]
 3977 02aa 03F00073 		and	r3, r3, #33554432
 3978 02ae 002B     		cmp	r3, #0
 3979 02b0 07D0     		beq	.L322
 3980 02b2 BB68     		ldr	r3, [r7, #8]
 3981 02b4 002B     		cmp	r3, #0
 3982 02b6 3FD0     		beq	.L321
 3983 02b8 3B6A     		ldr	r3, [r7, #32]
 3984 02ba 03F40053 		and	r3, r3, #8192
 3985 02be 002B     		cmp	r3, #0
 3986 02c0 3AD1     		bne	.L321
 3987              	.L322:
ARM GAS  /var/folders/k1/1yttftd15rl7jxtpyc5m93n80000gn/T//ccruZCkn.s 			page 69


 3988 02c2 7B68     		ldr	r3, [r7, #4]
 3989 02c4 1B68     		ldr	r3, [r3]
 3990 02c6 1B68     		ldr	r3, [r3]
 3991 02c8 03F04003 		and	r3, r3, #64
 3992 02cc 402B     		cmp	r3, #64
 3993 02ce 33D1     		bne	.L321
 3994 02d0 3B6A     		ldr	r3, [r7, #32]
 3995 02d2 03F40013 		and	r3, r3, #2097152
 3996 02d6 002B     		cmp	r3, #0
 3997 02d8 2ED1     		bne	.L321
 3998 02da 7B68     		ldr	r3, [r7, #4]
 3999 02dc 1B68     		ldr	r3, [r3]
 4000 02de 1846     		mov	r0, r3
 4001 02e0 FFF7FEFF 		bl	LL_ADC_INJ_IsConversionOngoing
 4002 02e4 0346     		mov	r3, r0
 4003 02e6 002B     		cmp	r3, #0
 4004 02e8 1AD1     		bne	.L323
 4005 02ea 7B68     		ldr	r3, [r7, #4]
 4006 02ec 1B68     		ldr	r3, [r3]
 4007 02ee 5A68     		ldr	r2, [r3, #4]
 4008 02f0 7B68     		ldr	r3, [r7, #4]
 4009 02f2 1B68     		ldr	r3, [r3]
 4010 02f4 22F06002 		bic	r2, r2, #96
 4011 02f8 5A60     		str	r2, [r3, #4]
 4012 02fa 7B68     		ldr	r3, [r7, #4]
 4013 02fc DB6D     		ldr	r3, [r3, #92]
 4014 02fe 23F48052 		bic	r2, r3, #4096
 4015 0302 7B68     		ldr	r3, [r7, #4]
 4016 0304 DA65     		str	r2, [r3, #92]
 4017 0306 7B68     		ldr	r3, [r7, #4]
 4018 0308 DB6D     		ldr	r3, [r3, #92]
 4019 030a 03F48073 		and	r3, r3, #256
 4020 030e 002B     		cmp	r3, #0
 4021 0310 12D1     		bne	.L321
 4022 0312 7B68     		ldr	r3, [r7, #4]
 4023 0314 DB6D     		ldr	r3, [r3, #92]
 4024 0316 43F00102 		orr	r2, r3, #1
 4025 031a 7B68     		ldr	r3, [r7, #4]
 4026 031c DA65     		str	r2, [r3, #92]
 4027 031e 0BE0     		b	.L321
 4028              	.L323:
 4029 0320 7B68     		ldr	r3, [r7, #4]
 4030 0322 DB6D     		ldr	r3, [r3, #92]
 4031 0324 43F01002 		orr	r2, r3, #16
 4032 0328 7B68     		ldr	r3, [r7, #4]
 4033 032a DA65     		str	r2, [r3, #92]
 4034 032c 7B68     		ldr	r3, [r7, #4]
 4035 032e 1B6E     		ldr	r3, [r3, #96]
 4036 0330 43F00102 		orr	r2, r3, #1
 4037 0334 7B68     		ldr	r3, [r7, #4]
 4038 0336 1A66     		str	r2, [r3, #96]
 4039              	.L321:
 4040 0338 7868     		ldr	r0, [r7, #4]
 4041 033a FFF7FEFF 		bl	HAL_ADCEx_InjectedConvCpltCallback
 4042 033e 7B68     		ldr	r3, [r7, #4]
 4043 0340 1B68     		ldr	r3, [r3]
 4044 0342 6022     		movs	r2, #96
ARM GAS  /var/folders/k1/1yttftd15rl7jxtpyc5m93n80000gn/T//ccruZCkn.s 			page 70


 4045 0344 1A60     		str	r2, [r3]
 4046              	.L308:
 4047 0346 FB69     		ldr	r3, [r7, #28]
 4048 0348 03F08003 		and	r3, r3, #128
 4049 034c 002B     		cmp	r3, #0
 4050 034e 11D0     		beq	.L324
 4051 0350 BB69     		ldr	r3, [r7, #24]
 4052 0352 03F08003 		and	r3, r3, #128
 4053 0356 002B     		cmp	r3, #0
 4054 0358 0CD0     		beq	.L324
 4055 035a 7B68     		ldr	r3, [r7, #4]
 4056 035c DB6D     		ldr	r3, [r3, #92]
 4057 035e 43F48032 		orr	r2, r3, #65536
 4058 0362 7B68     		ldr	r3, [r7, #4]
 4059 0364 DA65     		str	r2, [r3, #92]
 4060 0366 7868     		ldr	r0, [r7, #4]
 4061 0368 FFF7FEFF 		bl	HAL_ADC_LevelOutOfWindowCallback
 4062 036c 7B68     		ldr	r3, [r7, #4]
 4063 036e 1B68     		ldr	r3, [r3]
 4064 0370 8022     		movs	r2, #128
 4065 0372 1A60     		str	r2, [r3]
 4066              	.L324:
 4067 0374 FB69     		ldr	r3, [r7, #28]
 4068 0376 03F48073 		and	r3, r3, #256
 4069 037a 002B     		cmp	r3, #0
 4070 037c 12D0     		beq	.L325
 4071 037e BB69     		ldr	r3, [r7, #24]
 4072 0380 03F48073 		and	r3, r3, #256
 4073 0384 002B     		cmp	r3, #0
 4074 0386 0DD0     		beq	.L325
 4075 0388 7B68     		ldr	r3, [r7, #4]
 4076 038a DB6D     		ldr	r3, [r3, #92]
 4077 038c 43F40032 		orr	r2, r3, #131072
 4078 0390 7B68     		ldr	r3, [r7, #4]
 4079 0392 DA65     		str	r2, [r3, #92]
 4080 0394 7868     		ldr	r0, [r7, #4]
 4081 0396 FFF7FEFF 		bl	HAL_ADCEx_LevelOutOfWindow2Callback
 4082 039a 7B68     		ldr	r3, [r7, #4]
 4083 039c 1B68     		ldr	r3, [r3]
 4084 039e 4FF48072 		mov	r2, #256
 4085 03a2 1A60     		str	r2, [r3]
 4086              	.L325:
 4087 03a4 FB69     		ldr	r3, [r7, #28]
 4088 03a6 03F40073 		and	r3, r3, #512
 4089 03aa 002B     		cmp	r3, #0
 4090 03ac 12D0     		beq	.L326
 4091 03ae BB69     		ldr	r3, [r7, #24]
 4092 03b0 03F40073 		and	r3, r3, #512
 4093 03b4 002B     		cmp	r3, #0
 4094 03b6 0DD0     		beq	.L326
 4095 03b8 7B68     		ldr	r3, [r7, #4]
 4096 03ba DB6D     		ldr	r3, [r3, #92]
 4097 03bc 43F48022 		orr	r2, r3, #262144
 4098 03c0 7B68     		ldr	r3, [r7, #4]
 4099 03c2 DA65     		str	r2, [r3, #92]
 4100 03c4 7868     		ldr	r0, [r7, #4]
 4101 03c6 FFF7FEFF 		bl	HAL_ADCEx_LevelOutOfWindow3Callback
ARM GAS  /var/folders/k1/1yttftd15rl7jxtpyc5m93n80000gn/T//ccruZCkn.s 			page 71


 4102 03ca 7B68     		ldr	r3, [r7, #4]
 4103 03cc 1B68     		ldr	r3, [r3]
 4104 03ce 4FF40072 		mov	r2, #512
 4105 03d2 1A60     		str	r2, [r3]
 4106              	.L326:
 4107 03d4 FB69     		ldr	r3, [r7, #28]
 4108 03d6 03F01003 		and	r3, r3, #16
 4109 03da 002B     		cmp	r3, #0
 4110 03dc 43D0     		beq	.L327
 4111 03de BB69     		ldr	r3, [r7, #24]
 4112 03e0 03F01003 		and	r3, r3, #16
 4113 03e4 002B     		cmp	r3, #0
 4114 03e6 3ED0     		beq	.L327
 4115 03e8 7B68     		ldr	r3, [r7, #4]
 4116 03ea DB6B     		ldr	r3, [r3, #60]
 4117 03ec 002B     		cmp	r3, #0
 4118 03ee 02D1     		bne	.L328
 4119 03f0 0123     		movs	r3, #1
 4120 03f2 7B62     		str	r3, [r7, #36]
 4121 03f4 21E0     		b	.L329
 4122              	.L328:
 4123 03f6 7B69     		ldr	r3, [r7, #20]
 4124 03f8 002B     		cmp	r3, #0
 4125 03fa 15D0     		beq	.L330
 4126 03fc 7B68     		ldr	r3, [r7, #4]
 4127 03fe 1B68     		ldr	r3, [r3]
 4128 0400 B3F1A04F 		cmp	r3, #1342177280
 4129 0404 04D0     		beq	.L331
 4130 0406 7B68     		ldr	r3, [r7, #4]
 4131 0408 1B68     		ldr	r3, [r3]
 4132 040a 284A     		ldr	r2, .L339
 4133 040c 9342     		cmp	r3, r2
 4134 040e 01D1     		bne	.L332
 4135              	.L331:
 4136 0410 294B     		ldr	r3, .L339+12
 4137 0412 00E0     		b	.L333
 4138              	.L332:
 4139 0414 294B     		ldr	r3, .L339+16
 4140              	.L333:
 4141 0416 1846     		mov	r0, r3
 4142 0418 FFF7FEFF 		bl	LL_ADC_GetMultiDMATransfer
 4143 041c 0346     		mov	r3, r0
 4144 041e 002B     		cmp	r3, #0
 4145 0420 0BD0     		beq	.L329
 4146 0422 0123     		movs	r3, #1
 4147 0424 7B62     		str	r3, [r7, #36]
 4148 0426 08E0     		b	.L329
 4149              	.L330:
 4150 0428 7B68     		ldr	r3, [r7, #4]
 4151 042a 1B68     		ldr	r3, [r3]
 4152 042c DB68     		ldr	r3, [r3, #12]
 4153 042e 03F00103 		and	r3, r3, #1
 4154 0432 002B     		cmp	r3, #0
 4155 0434 01D0     		beq	.L329
 4156 0436 0123     		movs	r3, #1
 4157 0438 7B62     		str	r3, [r7, #36]
 4158              	.L329:
ARM GAS  /var/folders/k1/1yttftd15rl7jxtpyc5m93n80000gn/T//ccruZCkn.s 			page 72


 4159 043a 7B6A     		ldr	r3, [r7, #36]
 4160 043c 012B     		cmp	r3, #1
 4161 043e 0ED1     		bne	.L334
 4162 0440 7B68     		ldr	r3, [r7, #4]
 4163 0442 DB6D     		ldr	r3, [r3, #92]
 4164 0444 43F48062 		orr	r2, r3, #1024
 4165 0448 7B68     		ldr	r3, [r7, #4]
 4166 044a DA65     		str	r2, [r3, #92]
 4167 044c 7B68     		ldr	r3, [r7, #4]
 4168 044e 1B6E     		ldr	r3, [r3, #96]
 4169 0450 43F00202 		orr	r2, r3, #2
 4170 0454 7B68     		ldr	r3, [r7, #4]
 4171 0456 1A66     		str	r2, [r3, #96]
 4172 0458 7868     		ldr	r0, [r7, #4]
 4173 045a FFF7FEFF 		bl	HAL_ADC_ErrorCallback
 4174              	.L334:
 4175 045e 7B68     		ldr	r3, [r7, #4]
 4176 0460 1B68     		ldr	r3, [r3]
 4177 0462 1022     		movs	r2, #16
 4178 0464 1A60     		str	r2, [r3]
 4179              	.L327:
 4180 0466 FB69     		ldr	r3, [r7, #28]
 4181 0468 03F48063 		and	r3, r3, #1024
 4182 046c 002B     		cmp	r3, #0
 4183 046e 18D0     		beq	.L336
 4184 0470 BB69     		ldr	r3, [r7, #24]
 4185 0472 03F48063 		and	r3, r3, #1024
 4186 0476 002B     		cmp	r3, #0
 4187 0478 13D0     		beq	.L336
 4188 047a 7B68     		ldr	r3, [r7, #4]
 4189 047c DB6D     		ldr	r3, [r3, #92]
 4190 047e 43F48042 		orr	r2, r3, #16384
 4191 0482 7B68     		ldr	r3, [r7, #4]
 4192 0484 DA65     		str	r2, [r3, #92]
 4193 0486 7B68     		ldr	r3, [r7, #4]
 4194 0488 1B6E     		ldr	r3, [r3, #96]
 4195 048a 43F00802 		orr	r2, r3, #8
 4196 048e 7B68     		ldr	r3, [r7, #4]
 4197 0490 1A66     		str	r2, [r3, #96]
 4198 0492 7B68     		ldr	r3, [r7, #4]
 4199 0494 1B68     		ldr	r3, [r3]
 4200 0496 4FF48062 		mov	r2, #1024
 4201 049a 1A60     		str	r2, [r3]
 4202 049c 7868     		ldr	r0, [r7, #4]
 4203 049e FFF7FEFF 		bl	HAL_ADCEx_InjectedQueueOverflowCallback
 4204              	.L336:
 4205 04a2 00BF     		nop
 4206 04a4 2837     		adds	r7, r7, #40
 4207 04a6 BD46     		mov	sp, r7
 4208              		@ sp needed
 4209 04a8 80BD     		pop	{r7, pc}
 4210              	.L340:
 4211 04aa 00BF     		.align	2
 4212              	.L339:
 4213 04ac 00010050 		.word	1342177536
 4214 04b0 00050050 		.word	1342178560
 4215 04b4 00040050 		.word	1342178304
ARM GAS  /var/folders/k1/1yttftd15rl7jxtpyc5m93n80000gn/T//ccruZCkn.s 			page 73


 4216 04b8 00030050 		.word	1342178048
 4217 04bc 00070050 		.word	1342179072
 4219              		.section	.text.HAL_ADC_ConvCpltCallback,"ax",%progbits
 4220              		.align	1
 4221              		.weak	HAL_ADC_ConvCpltCallback
 4222              		.syntax unified
 4223              		.thumb
 4224              		.thumb_func
 4226              	HAL_ADC_ConvCpltCallback:
 4227              		@ args = 0, pretend = 0, frame = 8
 4228              		@ frame_needed = 1, uses_anonymous_args = 0
 4229              		@ link register save eliminated.
 4230 0000 80B4     		push	{r7}
 4231 0002 83B0     		sub	sp, sp, #12
 4232 0004 00AF     		add	r7, sp, #0
 4233 0006 7860     		str	r0, [r7, #4]
 4234 0008 00BF     		nop
 4235 000a 0C37     		adds	r7, r7, #12
 4236 000c BD46     		mov	sp, r7
 4237              		@ sp needed
 4238 000e 5DF8047B 		ldr	r7, [sp], #4
 4239 0012 7047     		bx	lr
 4241              		.section	.text.HAL_ADC_ConvHalfCpltCallback,"ax",%progbits
 4242              		.align	1
 4243              		.weak	HAL_ADC_ConvHalfCpltCallback
 4244              		.syntax unified
 4245              		.thumb
 4246              		.thumb_func
 4248              	HAL_ADC_ConvHalfCpltCallback:
 4249              		@ args = 0, pretend = 0, frame = 8
 4250              		@ frame_needed = 1, uses_anonymous_args = 0
 4251              		@ link register save eliminated.
 4252 0000 80B4     		push	{r7}
 4253 0002 83B0     		sub	sp, sp, #12
 4254 0004 00AF     		add	r7, sp, #0
 4255 0006 7860     		str	r0, [r7, #4]
 4256 0008 00BF     		nop
 4257 000a 0C37     		adds	r7, r7, #12
 4258 000c BD46     		mov	sp, r7
 4259              		@ sp needed
 4260 000e 5DF8047B 		ldr	r7, [sp], #4
 4261 0012 7047     		bx	lr
 4263              		.section	.text.HAL_ADC_LevelOutOfWindowCallback,"ax",%progbits
 4264              		.align	1
 4265              		.weak	HAL_ADC_LevelOutOfWindowCallback
 4266              		.syntax unified
 4267              		.thumb
 4268              		.thumb_func
 4270              	HAL_ADC_LevelOutOfWindowCallback:
 4271              		@ args = 0, pretend = 0, frame = 8
 4272              		@ frame_needed = 1, uses_anonymous_args = 0
 4273              		@ link register save eliminated.
 4274 0000 80B4     		push	{r7}
 4275 0002 83B0     		sub	sp, sp, #12
 4276 0004 00AF     		add	r7, sp, #0
 4277 0006 7860     		str	r0, [r7, #4]
 4278 0008 00BF     		nop
ARM GAS  /var/folders/k1/1yttftd15rl7jxtpyc5m93n80000gn/T//ccruZCkn.s 			page 74


 4279 000a 0C37     		adds	r7, r7, #12
 4280 000c BD46     		mov	sp, r7
 4281              		@ sp needed
 4282 000e 5DF8047B 		ldr	r7, [sp], #4
 4283 0012 7047     		bx	lr
 4285              		.section	.text.HAL_ADC_ErrorCallback,"ax",%progbits
 4286              		.align	1
 4287              		.weak	HAL_ADC_ErrorCallback
 4288              		.syntax unified
 4289              		.thumb
 4290              		.thumb_func
 4292              	HAL_ADC_ErrorCallback:
 4293              		@ args = 0, pretend = 0, frame = 8
 4294              		@ frame_needed = 1, uses_anonymous_args = 0
 4295              		@ link register save eliminated.
 4296 0000 80B4     		push	{r7}
 4297 0002 83B0     		sub	sp, sp, #12
 4298 0004 00AF     		add	r7, sp, #0
 4299 0006 7860     		str	r0, [r7, #4]
 4300 0008 00BF     		nop
 4301 000a 0C37     		adds	r7, r7, #12
 4302 000c BD46     		mov	sp, r7
 4303              		@ sp needed
 4304 000e 5DF8047B 		ldr	r7, [sp], #4
 4305 0012 7047     		bx	lr
 4307              		.section	.text.HAL_ADC_ConfigChannel,"ax",%progbits
 4308              		.align	1
 4309              		.global	HAL_ADC_ConfigChannel
 4310              		.syntax unified
 4311              		.thumb
 4312              		.thumb_func
 4314              	HAL_ADC_ConfigChannel:
 4315              		@ args = 0, pretend = 0, frame = 216
 4316              		@ frame_needed = 1, uses_anonymous_args = 0
 4317 0000 80B5     		push	{r7, lr}
 4318 0002 B6B0     		sub	sp, sp, #216
 4319 0004 00AF     		add	r7, sp, #0
 4320 0006 7860     		str	r0, [r7, #4]
 4321 0008 3960     		str	r1, [r7]
 4322 000a 0023     		movs	r3, #0
 4323 000c 87F8D730 		strb	r3, [r7, #215]
 4324 0010 0023     		movs	r3, #0
 4325 0012 FB60     		str	r3, [r7, #12]
 4326 0014 7B68     		ldr	r3, [r7, #4]
 4327 0016 93F85830 		ldrb	r3, [r3, #88]	@ zero_extendqisi2
 4328 001a 012B     		cmp	r3, #1
 4329 001c 02D1     		bne	.L346
 4330 001e 0223     		movs	r3, #2
 4331 0020 00F013BC 		b	.L347
 4332              	.L346:
 4333 0024 7B68     		ldr	r3, [r7, #4]
 4334 0026 0122     		movs	r2, #1
 4335 0028 83F85820 		strb	r2, [r3, #88]
 4336 002c 7B68     		ldr	r3, [r7, #4]
 4337 002e 1B68     		ldr	r3, [r3]
 4338 0030 1846     		mov	r0, r3
 4339 0032 FFF7FEFF 		bl	LL_ADC_REG_IsConversionOngoing
ARM GAS  /var/folders/k1/1yttftd15rl7jxtpyc5m93n80000gn/T//ccruZCkn.s 			page 75


 4340 0036 0346     		mov	r3, r0
 4341 0038 002B     		cmp	r3, #0
 4342 003a 40F0F383 		bne	.L348
 4343 003e 7B68     		ldr	r3, [r7, #4]
 4344 0040 1868     		ldr	r0, [r3]
 4345 0042 3B68     		ldr	r3, [r7]
 4346 0044 5968     		ldr	r1, [r3, #4]
 4347 0046 3B68     		ldr	r3, [r7]
 4348 0048 1B68     		ldr	r3, [r3]
 4349 004a 1A46     		mov	r2, r3
 4350 004c FFF7FEFF 		bl	LL_ADC_REG_SetSequencerRanks
 4351 0050 7B68     		ldr	r3, [r7, #4]
 4352 0052 1B68     		ldr	r3, [r3]
 4353 0054 1846     		mov	r0, r3
 4354 0056 FFF7FEFF 		bl	LL_ADC_REG_IsConversionOngoing
 4355 005a C7F8D000 		str	r0, [r7, #208]
 4356 005e 7B68     		ldr	r3, [r7, #4]
 4357 0060 1B68     		ldr	r3, [r3]
 4358 0062 1846     		mov	r0, r3
 4359 0064 FFF7FEFF 		bl	LL_ADC_INJ_IsConversionOngoing
 4360 0068 C7F8CC00 		str	r0, [r7, #204]
 4361 006c D7F8D030 		ldr	r3, [r7, #208]
 4362 0070 002B     		cmp	r3, #0
 4363 0072 40F0D981 		bne	.L349
 4364 0076 D7F8CC30 		ldr	r3, [r7, #204]
 4365 007a 002B     		cmp	r3, #0
 4366 007c 40F0D481 		bne	.L349
 4367 0080 3B68     		ldr	r3, [r7]
 4368 0082 9B68     		ldr	r3, [r3, #8]
 4369 0084 B3F1004F 		cmp	r3, #-2147483648
 4370 0088 0FD1     		bne	.L350
 4371 008a 7B68     		ldr	r3, [r7, #4]
 4372 008c 1868     		ldr	r0, [r3]
 4373 008e 3B68     		ldr	r3, [r7]
 4374 0090 1B68     		ldr	r3, [r3]
 4375 0092 0022     		movs	r2, #0
 4376 0094 1946     		mov	r1, r3
 4377 0096 FFF7FEFF 		bl	LL_ADC_SetChannelSamplingTime
 4378 009a 7B68     		ldr	r3, [r7, #4]
 4379 009c 1B68     		ldr	r3, [r3]
 4380 009e 4FF00041 		mov	r1, #-2147483648
 4381 00a2 1846     		mov	r0, r3
 4382 00a4 FFF7FEFF 		bl	LL_ADC_SetSamplingTimeCommonConfig
 4383 00a8 0EE0     		b	.L351
 4384              	.L350:
 4385 00aa 7B68     		ldr	r3, [r7, #4]
 4386 00ac 1868     		ldr	r0, [r3]
 4387 00ae 3B68     		ldr	r3, [r7]
 4388 00b0 1968     		ldr	r1, [r3]
 4389 00b2 3B68     		ldr	r3, [r7]
 4390 00b4 9B68     		ldr	r3, [r3, #8]
 4391 00b6 1A46     		mov	r2, r3
 4392 00b8 FFF7FEFF 		bl	LL_ADC_SetChannelSamplingTime
 4393 00bc 7B68     		ldr	r3, [r7, #4]
 4394 00be 1B68     		ldr	r3, [r3]
 4395 00c0 0021     		movs	r1, #0
 4396 00c2 1846     		mov	r0, r3
ARM GAS  /var/folders/k1/1yttftd15rl7jxtpyc5m93n80000gn/T//ccruZCkn.s 			page 76


 4397 00c4 FFF7FEFF 		bl	LL_ADC_SetSamplingTimeCommonConfig
 4398              	.L351:
 4399 00c8 3B68     		ldr	r3, [r7]
 4400 00ca 5A69     		ldr	r2, [r3, #20]
 4401 00cc 7B68     		ldr	r3, [r7, #4]
 4402 00ce 1B68     		ldr	r3, [r3]
 4403 00d0 DB68     		ldr	r3, [r3, #12]
 4404 00d2 DB08     		lsrs	r3, r3, #3
 4405 00d4 03F00303 		and	r3, r3, #3
 4406 00d8 5B00     		lsls	r3, r3, #1
 4407 00da 02FA03F3 		lsl	r3, r2, r3
 4408 00de C7F8C830 		str	r3, [r7, #200]
 4409 00e2 3B68     		ldr	r3, [r7]
 4410 00e4 1B69     		ldr	r3, [r3, #16]
 4411 00e6 042B     		cmp	r3, #4
 4412 00e8 22D0     		beq	.L352
 4413 00ea 7B68     		ldr	r3, [r7, #4]
 4414 00ec 1868     		ldr	r0, [r3]
 4415 00ee 3B68     		ldr	r3, [r7]
 4416 00f0 1969     		ldr	r1, [r3, #16]
 4417 00f2 3B68     		ldr	r3, [r7]
 4418 00f4 1A68     		ldr	r2, [r3]
 4419 00f6 D7F8C830 		ldr	r3, [r7, #200]
 4420 00fa FFF7FEFF 		bl	LL_ADC_SetOffset
 4421 00fe 7B68     		ldr	r3, [r7, #4]
 4422 0100 1868     		ldr	r0, [r3]
 4423 0102 3B68     		ldr	r3, [r7]
 4424 0104 1969     		ldr	r1, [r3, #16]
 4425 0106 3B68     		ldr	r3, [r7]
 4426 0108 9B69     		ldr	r3, [r3, #24]
 4427 010a 1A46     		mov	r2, r3
 4428 010c FFF7FEFF 		bl	LL_ADC_SetOffsetSign
 4429 0110 7B68     		ldr	r3, [r7, #4]
 4430 0112 1868     		ldr	r0, [r3]
 4431 0114 3B68     		ldr	r3, [r7]
 4432 0116 1969     		ldr	r1, [r3, #16]
 4433 0118 3B68     		ldr	r3, [r7]
 4434 011a 1B7F     		ldrb	r3, [r3, #28]	@ zero_extendqisi2
 4435 011c 012B     		cmp	r3, #1
 4436 011e 02D1     		bne	.L353
 4437 0120 4FF00073 		mov	r3, #33554432
 4438 0124 00E0     		b	.L354
 4439              	.L353:
 4440 0126 0023     		movs	r3, #0
 4441              	.L354:
 4442 0128 1A46     		mov	r2, r3
 4443 012a FFF7FEFF 		bl	LL_ADC_SetOffsetSaturation
 4444 012e 7BE1     		b	.L349
 4445              	.L352:
 4446 0130 7B68     		ldr	r3, [r7, #4]
 4447 0132 1B68     		ldr	r3, [r3]
 4448 0134 0021     		movs	r1, #0
 4449 0136 1846     		mov	r0, r3
 4450 0138 FFF7FEFF 		bl	LL_ADC_GetOffsetChannel
 4451 013c 0346     		mov	r3, r0
 4452 013e C3F31203 		ubfx	r3, r3, #0, #19
 4453 0142 002B     		cmp	r3, #0
ARM GAS  /var/folders/k1/1yttftd15rl7jxtpyc5m93n80000gn/T//ccruZCkn.s 			page 77


 4454 0144 0AD1     		bne	.L355
 4455 0146 7B68     		ldr	r3, [r7, #4]
 4456 0148 1B68     		ldr	r3, [r3]
 4457 014a 0021     		movs	r1, #0
 4458 014c 1846     		mov	r0, r3
 4459 014e FFF7FEFF 		bl	LL_ADC_GetOffsetChannel
 4460 0152 0346     		mov	r3, r0
 4461 0154 9B0E     		lsrs	r3, r3, #26
 4462 0156 03F01F02 		and	r2, r3, #31
 4463 015a 1EE0     		b	.L356
 4464              	.L355:
 4465 015c 7B68     		ldr	r3, [r7, #4]
 4466 015e 1B68     		ldr	r3, [r3]
 4467 0160 0021     		movs	r1, #0
 4468 0162 1846     		mov	r0, r3
 4469 0164 FFF7FEFF 		bl	LL_ADC_GetOffsetChannel
 4470 0168 0346     		mov	r3, r0
 4471 016a C7F8BC30 		str	r3, [r7, #188]
 4472 016e D7F8BC30 		ldr	r3, [r7, #188]
 4473              		.syntax unified
 4474              	@ 1055 "Drivers/CMSIS/Include/cmsis_gcc.h" 1
 4475 0172 93FAA3F3 		rbit r3, r3
 4476              	@ 0 "" 2
 4477              		.thumb
 4478              		.syntax unified
 4479 0176 C7F8C030 		str	r3, [r7, #192]
 4480 017a D7F8C030 		ldr	r3, [r7, #192]
 4481 017e C7F8B830 		str	r3, [r7, #184]
 4482 0182 D7F8B830 		ldr	r3, [r7, #184]
 4483 0186 002B     		cmp	r3, #0
 4484 0188 01D1     		bne	.L358
 4485 018a 2023     		movs	r3, #32
 4486 018c 04E0     		b	.L359
 4487              	.L358:
 4488 018e D7F8B830 		ldr	r3, [r7, #184]
 4489 0192 B3FA83F3 		clz	r3, r3
 4490 0196 DBB2     		uxtb	r3, r3
 4491              	.L359:
 4492 0198 1A46     		mov	r2, r3
 4493              	.L356:
 4494 019a 3B68     		ldr	r3, [r7]
 4495 019c 1B68     		ldr	r3, [r3]
 4496 019e C3F31203 		ubfx	r3, r3, #0, #19
 4497 01a2 002B     		cmp	r3, #0
 4498 01a4 05D1     		bne	.L360
 4499 01a6 3B68     		ldr	r3, [r7]
 4500 01a8 1B68     		ldr	r3, [r3]
 4501 01aa 9B0E     		lsrs	r3, r3, #26
 4502 01ac 03F01F03 		and	r3, r3, #31
 4503 01b0 18E0     		b	.L361
 4504              	.L360:
 4505 01b2 3B68     		ldr	r3, [r7]
 4506 01b4 1B68     		ldr	r3, [r3]
 4507 01b6 C7F8B030 		str	r3, [r7, #176]
 4508 01ba D7F8B030 		ldr	r3, [r7, #176]
 4509              		.syntax unified
 4510              	@ 1055 "Drivers/CMSIS/Include/cmsis_gcc.h" 1
ARM GAS  /var/folders/k1/1yttftd15rl7jxtpyc5m93n80000gn/T//ccruZCkn.s 			page 78


 4511 01be 93FAA3F3 		rbit r3, r3
 4512              	@ 0 "" 2
 4513              		.thumb
 4514              		.syntax unified
 4515 01c2 C7F8AC30 		str	r3, [r7, #172]
 4516 01c6 D7F8AC30 		ldr	r3, [r7, #172]
 4517 01ca C7F8B430 		str	r3, [r7, #180]
 4518 01ce D7F8B430 		ldr	r3, [r7, #180]
 4519 01d2 002B     		cmp	r3, #0
 4520 01d4 01D1     		bne	.L363
 4521 01d6 2023     		movs	r3, #32
 4522 01d8 04E0     		b	.L361
 4523              	.L363:
 4524 01da D7F8B430 		ldr	r3, [r7, #180]
 4525 01de B3FA83F3 		clz	r3, r3
 4526 01e2 DBB2     		uxtb	r3, r3
 4527              	.L361:
 4528 01e4 9A42     		cmp	r2, r3
 4529 01e6 06D1     		bne	.L365
 4530 01e8 7B68     		ldr	r3, [r7, #4]
 4531 01ea 1B68     		ldr	r3, [r3]
 4532 01ec 0022     		movs	r2, #0
 4533 01ee 0021     		movs	r1, #0
 4534 01f0 1846     		mov	r0, r3
 4535 01f2 FFF7FEFF 		bl	LL_ADC_SetOffsetState
 4536              	.L365:
 4537 01f6 7B68     		ldr	r3, [r7, #4]
 4538 01f8 1B68     		ldr	r3, [r3]
 4539 01fa 0121     		movs	r1, #1
 4540 01fc 1846     		mov	r0, r3
 4541 01fe FFF7FEFF 		bl	LL_ADC_GetOffsetChannel
 4542 0202 0346     		mov	r3, r0
 4543 0204 C3F31203 		ubfx	r3, r3, #0, #19
 4544 0208 002B     		cmp	r3, #0
 4545 020a 0AD1     		bne	.L366
 4546 020c 7B68     		ldr	r3, [r7, #4]
 4547 020e 1B68     		ldr	r3, [r3]
 4548 0210 0121     		movs	r1, #1
 4549 0212 1846     		mov	r0, r3
 4550 0214 FFF7FEFF 		bl	LL_ADC_GetOffsetChannel
 4551 0218 0346     		mov	r3, r0
 4552 021a 9B0E     		lsrs	r3, r3, #26
 4553 021c 03F01F02 		and	r2, r3, #31
 4554 0220 1EE0     		b	.L367
 4555              	.L366:
 4556 0222 7B68     		ldr	r3, [r7, #4]
 4557 0224 1B68     		ldr	r3, [r3]
 4558 0226 0121     		movs	r1, #1
 4559 0228 1846     		mov	r0, r3
 4560 022a FFF7FEFF 		bl	LL_ADC_GetOffsetChannel
 4561 022e 0346     		mov	r3, r0
 4562 0230 C7F8A430 		str	r3, [r7, #164]
 4563 0234 D7F8A430 		ldr	r3, [r7, #164]
 4564              		.syntax unified
 4565              	@ 1055 "Drivers/CMSIS/Include/cmsis_gcc.h" 1
 4566 0238 93FAA3F3 		rbit r3, r3
 4567              	@ 0 "" 2
ARM GAS  /var/folders/k1/1yttftd15rl7jxtpyc5m93n80000gn/T//ccruZCkn.s 			page 79


 4568              		.thumb
 4569              		.syntax unified
 4570 023c C7F8A030 		str	r3, [r7, #160]
 4571 0240 D7F8A030 		ldr	r3, [r7, #160]
 4572 0244 C7F8A830 		str	r3, [r7, #168]
 4573 0248 D7F8A830 		ldr	r3, [r7, #168]
 4574 024c 002B     		cmp	r3, #0
 4575 024e 01D1     		bne	.L369
 4576 0250 2023     		movs	r3, #32
 4577 0252 04E0     		b	.L370
 4578              	.L369:
 4579 0254 D7F8A830 		ldr	r3, [r7, #168]
 4580 0258 B3FA83F3 		clz	r3, r3
 4581 025c DBB2     		uxtb	r3, r3
 4582              	.L370:
 4583 025e 1A46     		mov	r2, r3
 4584              	.L367:
 4585 0260 3B68     		ldr	r3, [r7]
 4586 0262 1B68     		ldr	r3, [r3]
 4587 0264 C3F31203 		ubfx	r3, r3, #0, #19
 4588 0268 002B     		cmp	r3, #0
 4589 026a 05D1     		bne	.L371
 4590 026c 3B68     		ldr	r3, [r7]
 4591 026e 1B68     		ldr	r3, [r3]
 4592 0270 9B0E     		lsrs	r3, r3, #26
 4593 0272 03F01F03 		and	r3, r3, #31
 4594 0276 18E0     		b	.L372
 4595              	.L371:
 4596 0278 3B68     		ldr	r3, [r7]
 4597 027a 1B68     		ldr	r3, [r3]
 4598 027c C7F89830 		str	r3, [r7, #152]
 4599 0280 D7F89830 		ldr	r3, [r7, #152]
 4600              		.syntax unified
 4601              	@ 1055 "Drivers/CMSIS/Include/cmsis_gcc.h" 1
 4602 0284 93FAA3F3 		rbit r3, r3
 4603              	@ 0 "" 2
 4604              		.thumb
 4605              		.syntax unified
 4606 0288 C7F89430 		str	r3, [r7, #148]
 4607 028c D7F89430 		ldr	r3, [r7, #148]
 4608 0290 C7F89C30 		str	r3, [r7, #156]
 4609 0294 D7F89C30 		ldr	r3, [r7, #156]
 4610 0298 002B     		cmp	r3, #0
 4611 029a 01D1     		bne	.L374
 4612 029c 2023     		movs	r3, #32
 4613 029e 04E0     		b	.L372
 4614              	.L374:
 4615 02a0 D7F89C30 		ldr	r3, [r7, #156]
 4616 02a4 B3FA83F3 		clz	r3, r3
 4617 02a8 DBB2     		uxtb	r3, r3
 4618              	.L372:
 4619 02aa 9A42     		cmp	r2, r3
 4620 02ac 06D1     		bne	.L376
 4621 02ae 7B68     		ldr	r3, [r7, #4]
 4622 02b0 1B68     		ldr	r3, [r3]
 4623 02b2 0022     		movs	r2, #0
 4624 02b4 0121     		movs	r1, #1
ARM GAS  /var/folders/k1/1yttftd15rl7jxtpyc5m93n80000gn/T//ccruZCkn.s 			page 80


 4625 02b6 1846     		mov	r0, r3
 4626 02b8 FFF7FEFF 		bl	LL_ADC_SetOffsetState
 4627              	.L376:
 4628 02bc 7B68     		ldr	r3, [r7, #4]
 4629 02be 1B68     		ldr	r3, [r3]
 4630 02c0 0221     		movs	r1, #2
 4631 02c2 1846     		mov	r0, r3
 4632 02c4 FFF7FEFF 		bl	LL_ADC_GetOffsetChannel
 4633 02c8 0346     		mov	r3, r0
 4634 02ca C3F31203 		ubfx	r3, r3, #0, #19
 4635 02ce 002B     		cmp	r3, #0
 4636 02d0 0AD1     		bne	.L377
 4637 02d2 7B68     		ldr	r3, [r7, #4]
 4638 02d4 1B68     		ldr	r3, [r3]
 4639 02d6 0221     		movs	r1, #2
 4640 02d8 1846     		mov	r0, r3
 4641 02da FFF7FEFF 		bl	LL_ADC_GetOffsetChannel
 4642 02de 0346     		mov	r3, r0
 4643 02e0 9B0E     		lsrs	r3, r3, #26
 4644 02e2 03F01F02 		and	r2, r3, #31
 4645 02e6 1EE0     		b	.L378
 4646              	.L377:
 4647 02e8 7B68     		ldr	r3, [r7, #4]
 4648 02ea 1B68     		ldr	r3, [r3]
 4649 02ec 0221     		movs	r1, #2
 4650 02ee 1846     		mov	r0, r3
 4651 02f0 FFF7FEFF 		bl	LL_ADC_GetOffsetChannel
 4652 02f4 0346     		mov	r3, r0
 4653 02f6 C7F88C30 		str	r3, [r7, #140]
 4654 02fa D7F88C30 		ldr	r3, [r7, #140]
 4655              		.syntax unified
 4656              	@ 1055 "Drivers/CMSIS/Include/cmsis_gcc.h" 1
 4657 02fe 93FAA3F3 		rbit r3, r3
 4658              	@ 0 "" 2
 4659              		.thumb
 4660              		.syntax unified
 4661 0302 C7F88830 		str	r3, [r7, #136]
 4662 0306 D7F88830 		ldr	r3, [r7, #136]
 4663 030a C7F89030 		str	r3, [r7, #144]
 4664 030e D7F89030 		ldr	r3, [r7, #144]
 4665 0312 002B     		cmp	r3, #0
 4666 0314 01D1     		bne	.L380
 4667 0316 2023     		movs	r3, #32
 4668 0318 04E0     		b	.L381
 4669              	.L380:
 4670 031a D7F89030 		ldr	r3, [r7, #144]
 4671 031e B3FA83F3 		clz	r3, r3
 4672 0322 DBB2     		uxtb	r3, r3
 4673              	.L381:
 4674 0324 1A46     		mov	r2, r3
 4675              	.L378:
 4676 0326 3B68     		ldr	r3, [r7]
 4677 0328 1B68     		ldr	r3, [r3]
 4678 032a C3F31203 		ubfx	r3, r3, #0, #19
 4679 032e 002B     		cmp	r3, #0
 4680 0330 05D1     		bne	.L382
 4681 0332 3B68     		ldr	r3, [r7]
ARM GAS  /var/folders/k1/1yttftd15rl7jxtpyc5m93n80000gn/T//ccruZCkn.s 			page 81


 4682 0334 1B68     		ldr	r3, [r3]
 4683 0336 9B0E     		lsrs	r3, r3, #26
 4684 0338 03F01F03 		and	r3, r3, #31
 4685 033c 16E0     		b	.L383
 4686              	.L382:
 4687 033e 3B68     		ldr	r3, [r7]
 4688 0340 1B68     		ldr	r3, [r3]
 4689 0342 C7F88030 		str	r3, [r7, #128]
 4690 0346 D7F88030 		ldr	r3, [r7, #128]
 4691              		.syntax unified
 4692              	@ 1055 "Drivers/CMSIS/Include/cmsis_gcc.h" 1
 4693 034a 93FAA3F3 		rbit r3, r3
 4694              	@ 0 "" 2
 4695              		.thumb
 4696              		.syntax unified
 4697 034e FB67     		str	r3, [r7, #124]
 4698 0350 FB6F     		ldr	r3, [r7, #124]
 4699 0352 C7F88430 		str	r3, [r7, #132]
 4700 0356 D7F88430 		ldr	r3, [r7, #132]
 4701 035a 002B     		cmp	r3, #0
 4702 035c 01D1     		bne	.L385
 4703 035e 2023     		movs	r3, #32
 4704 0360 04E0     		b	.L383
 4705              	.L385:
 4706 0362 D7F88430 		ldr	r3, [r7, #132]
 4707 0366 B3FA83F3 		clz	r3, r3
 4708 036a DBB2     		uxtb	r3, r3
 4709              	.L383:
 4710 036c 9A42     		cmp	r2, r3
 4711 036e 06D1     		bne	.L387
 4712 0370 7B68     		ldr	r3, [r7, #4]
 4713 0372 1B68     		ldr	r3, [r3]
 4714 0374 0022     		movs	r2, #0
 4715 0376 0221     		movs	r1, #2
 4716 0378 1846     		mov	r0, r3
 4717 037a FFF7FEFF 		bl	LL_ADC_SetOffsetState
 4718              	.L387:
 4719 037e 7B68     		ldr	r3, [r7, #4]
 4720 0380 1B68     		ldr	r3, [r3]
 4721 0382 0321     		movs	r1, #3
 4722 0384 1846     		mov	r0, r3
 4723 0386 FFF7FEFF 		bl	LL_ADC_GetOffsetChannel
 4724 038a 0346     		mov	r3, r0
 4725 038c C3F31203 		ubfx	r3, r3, #0, #19
 4726 0390 002B     		cmp	r3, #0
 4727 0392 0AD1     		bne	.L388
 4728 0394 7B68     		ldr	r3, [r7, #4]
 4729 0396 1B68     		ldr	r3, [r3]
 4730 0398 0321     		movs	r1, #3
 4731 039a 1846     		mov	r0, r3
 4732 039c FFF7FEFF 		bl	LL_ADC_GetOffsetChannel
 4733 03a0 0346     		mov	r3, r0
 4734 03a2 9B0E     		lsrs	r3, r3, #26
 4735 03a4 03F01F02 		and	r2, r3, #31
 4736 03a8 17E0     		b	.L389
 4737              	.L388:
 4738 03aa 7B68     		ldr	r3, [r7, #4]
ARM GAS  /var/folders/k1/1yttftd15rl7jxtpyc5m93n80000gn/T//ccruZCkn.s 			page 82


 4739 03ac 1B68     		ldr	r3, [r3]
 4740 03ae 0321     		movs	r1, #3
 4741 03b0 1846     		mov	r0, r3
 4742 03b2 FFF7FEFF 		bl	LL_ADC_GetOffsetChannel
 4743 03b6 0346     		mov	r3, r0
 4744 03b8 7B67     		str	r3, [r7, #116]
 4745 03ba 7B6F     		ldr	r3, [r7, #116]
 4746              		.syntax unified
 4747              	@ 1055 "Drivers/CMSIS/Include/cmsis_gcc.h" 1
 4748 03bc 93FAA3F3 		rbit r3, r3
 4749              	@ 0 "" 2
 4750              		.thumb
 4751              		.syntax unified
 4752 03c0 3B67     		str	r3, [r7, #112]
 4753 03c2 3B6F     		ldr	r3, [r7, #112]
 4754 03c4 BB67     		str	r3, [r7, #120]
 4755 03c6 BB6F     		ldr	r3, [r7, #120]
 4756 03c8 002B     		cmp	r3, #0
 4757 03ca 01D1     		bne	.L391
 4758 03cc 2023     		movs	r3, #32
 4759 03ce 03E0     		b	.L392
 4760              	.L391:
 4761 03d0 BB6F     		ldr	r3, [r7, #120]
 4762 03d2 B3FA83F3 		clz	r3, r3
 4763 03d6 DBB2     		uxtb	r3, r3
 4764              	.L392:
 4765 03d8 1A46     		mov	r2, r3
 4766              	.L389:
 4767 03da 3B68     		ldr	r3, [r7]
 4768 03dc 1B68     		ldr	r3, [r3]
 4769 03de C3F31203 		ubfx	r3, r3, #0, #19
 4770 03e2 002B     		cmp	r3, #0
 4771 03e4 05D1     		bne	.L393
 4772 03e6 3B68     		ldr	r3, [r7]
 4773 03e8 1B68     		ldr	r3, [r3]
 4774 03ea 9B0E     		lsrs	r3, r3, #26
 4775 03ec 03F01F03 		and	r3, r3, #31
 4776 03f0 11E0     		b	.L394
 4777              	.L393:
 4778 03f2 3B68     		ldr	r3, [r7]
 4779 03f4 1B68     		ldr	r3, [r3]
 4780 03f6 BB66     		str	r3, [r7, #104]
 4781 03f8 BB6E     		ldr	r3, [r7, #104]
 4782              		.syntax unified
 4783              	@ 1055 "Drivers/CMSIS/Include/cmsis_gcc.h" 1
 4784 03fa 93FAA3F3 		rbit r3, r3
 4785              	@ 0 "" 2
 4786              		.thumb
 4787              		.syntax unified
 4788 03fe 7B66     		str	r3, [r7, #100]
 4789 0400 7B6E     		ldr	r3, [r7, #100]
 4790 0402 FB66     		str	r3, [r7, #108]
 4791 0404 FB6E     		ldr	r3, [r7, #108]
 4792 0406 002B     		cmp	r3, #0
 4793 0408 01D1     		bne	.L396
 4794 040a 2023     		movs	r3, #32
 4795 040c 03E0     		b	.L394
ARM GAS  /var/folders/k1/1yttftd15rl7jxtpyc5m93n80000gn/T//ccruZCkn.s 			page 83


 4796              	.L396:
 4797 040e FB6E     		ldr	r3, [r7, #108]
 4798 0410 B3FA83F3 		clz	r3, r3
 4799 0414 DBB2     		uxtb	r3, r3
 4800              	.L394:
 4801 0416 9A42     		cmp	r2, r3
 4802 0418 06D1     		bne	.L349
 4803 041a 7B68     		ldr	r3, [r7, #4]
 4804 041c 1B68     		ldr	r3, [r3]
 4805 041e 0022     		movs	r2, #0
 4806 0420 0321     		movs	r1, #3
 4807 0422 1846     		mov	r0, r3
 4808 0424 FFF7FEFF 		bl	LL_ADC_SetOffsetState
 4809              	.L349:
 4810 0428 7B68     		ldr	r3, [r7, #4]
 4811 042a 1B68     		ldr	r3, [r3]
 4812 042c 1846     		mov	r0, r3
 4813 042e FFF7FEFF 		bl	LL_ADC_IsEnabled
 4814 0432 0346     		mov	r3, r0
 4815 0434 002B     		cmp	r3, #0
 4816 0436 40F03D81 		bne	.L398
 4817 043a 7B68     		ldr	r3, [r7, #4]
 4818 043c 1868     		ldr	r0, [r3]
 4819 043e 3B68     		ldr	r3, [r7]
 4820 0440 1968     		ldr	r1, [r3]
 4821 0442 3B68     		ldr	r3, [r7]
 4822 0444 DB68     		ldr	r3, [r3, #12]
 4823 0446 1A46     		mov	r2, r3
 4824 0448 FFF7FEFF 		bl	LL_ADC_SetChannelSingleDiff
 4825 044c 3B68     		ldr	r3, [r7]
 4826 044e DB68     		ldr	r3, [r3, #12]
 4827 0450 A24A     		ldr	r2, .L460
 4828 0452 9342     		cmp	r3, r2
 4829 0454 40F02E81 		bne	.L398
 4830 0458 7B68     		ldr	r3, [r7, #4]
 4831 045a 1868     		ldr	r0, [r3]
 4832 045c 3B68     		ldr	r3, [r7]
 4833 045e 1B68     		ldr	r3, [r3]
 4834 0460 C3F31203 		ubfx	r3, r3, #0, #19
 4835 0464 002B     		cmp	r3, #0
 4836 0466 0BD1     		bne	.L399
 4837 0468 3B68     		ldr	r3, [r7]
 4838 046a 1B68     		ldr	r3, [r3]
 4839 046c 9B0E     		lsrs	r3, r3, #26
 4840 046e 0133     		adds	r3, r3, #1
 4841 0470 03F01F03 		and	r3, r3, #31
 4842 0474 092B     		cmp	r3, #9
 4843 0476 94BF     		ite	ls
 4844 0478 0123     		movls	r3, #1
 4845 047a 0023     		movhi	r3, #0
 4846 047c DBB2     		uxtb	r3, r3
 4847 047e 19E0     		b	.L400
 4848              	.L399:
 4849 0480 3B68     		ldr	r3, [r7]
 4850 0482 1B68     		ldr	r3, [r3]
 4851 0484 FB65     		str	r3, [r7, #92]
 4852 0486 FB6D     		ldr	r3, [r7, #92]
ARM GAS  /var/folders/k1/1yttftd15rl7jxtpyc5m93n80000gn/T//ccruZCkn.s 			page 84


 4853              		.syntax unified
 4854              	@ 1055 "Drivers/CMSIS/Include/cmsis_gcc.h" 1
 4855 0488 93FAA3F3 		rbit r3, r3
 4856              	@ 0 "" 2
 4857              		.thumb
 4858              		.syntax unified
 4859 048c BB65     		str	r3, [r7, #88]
 4860 048e BB6D     		ldr	r3, [r7, #88]
 4861 0490 3B66     		str	r3, [r7, #96]
 4862 0492 3B6E     		ldr	r3, [r7, #96]
 4863 0494 002B     		cmp	r3, #0
 4864 0496 01D1     		bne	.L402
 4865 0498 2023     		movs	r3, #32
 4866 049a 03E0     		b	.L403
 4867              	.L402:
 4868 049c 3B6E     		ldr	r3, [r7, #96]
 4869 049e B3FA83F3 		clz	r3, r3
 4870 04a2 DBB2     		uxtb	r3, r3
 4871              	.L403:
 4872 04a4 0133     		adds	r3, r3, #1
 4873 04a6 03F01F03 		and	r3, r3, #31
 4874 04aa 092B     		cmp	r3, #9
 4875 04ac 94BF     		ite	ls
 4876 04ae 0123     		movls	r3, #1
 4877 04b0 0023     		movhi	r3, #0
 4878 04b2 DBB2     		uxtb	r3, r3
 4879              	.L400:
 4880 04b4 002B     		cmp	r3, #0
 4881 04b6 79D0     		beq	.L404
 4882 04b8 3B68     		ldr	r3, [r7]
 4883 04ba 1B68     		ldr	r3, [r3]
 4884 04bc C3F31203 		ubfx	r3, r3, #0, #19
 4885 04c0 002B     		cmp	r3, #0
 4886 04c2 07D1     		bne	.L405
 4887 04c4 3B68     		ldr	r3, [r7]
 4888 04c6 1B68     		ldr	r3, [r3]
 4889 04c8 9B0E     		lsrs	r3, r3, #26
 4890 04ca 0133     		adds	r3, r3, #1
 4891 04cc 9B06     		lsls	r3, r3, #26
 4892 04ce 03F0F842 		and	r2, r3, #2080374784
 4893 04d2 15E0     		b	.L406
 4894              	.L405:
 4895 04d4 3B68     		ldr	r3, [r7]
 4896 04d6 1B68     		ldr	r3, [r3]
 4897 04d8 3B65     		str	r3, [r7, #80]
 4898 04da 3B6D     		ldr	r3, [r7, #80]
 4899              		.syntax unified
 4900              	@ 1055 "Drivers/CMSIS/Include/cmsis_gcc.h" 1
 4901 04dc 93FAA3F3 		rbit r3, r3
 4902              	@ 0 "" 2
 4903              		.thumb
 4904              		.syntax unified
 4905 04e0 FB64     		str	r3, [r7, #76]
 4906 04e2 FB6C     		ldr	r3, [r7, #76]
 4907 04e4 7B65     		str	r3, [r7, #84]
 4908 04e6 7B6D     		ldr	r3, [r7, #84]
 4909 04e8 002B     		cmp	r3, #0
ARM GAS  /var/folders/k1/1yttftd15rl7jxtpyc5m93n80000gn/T//ccruZCkn.s 			page 85


 4910 04ea 01D1     		bne	.L408
 4911 04ec 2023     		movs	r3, #32
 4912 04ee 03E0     		b	.L409
 4913              	.L408:
 4914 04f0 7B6D     		ldr	r3, [r7, #84]
 4915 04f2 B3FA83F3 		clz	r3, r3
 4916 04f6 DBB2     		uxtb	r3, r3
 4917              	.L409:
 4918 04f8 0133     		adds	r3, r3, #1
 4919 04fa 9B06     		lsls	r3, r3, #26
 4920 04fc 03F0F842 		and	r2, r3, #2080374784
 4921              	.L406:
 4922 0500 3B68     		ldr	r3, [r7]
 4923 0502 1B68     		ldr	r3, [r3]
 4924 0504 C3F31203 		ubfx	r3, r3, #0, #19
 4925 0508 002B     		cmp	r3, #0
 4926 050a 09D1     		bne	.L410
 4927 050c 3B68     		ldr	r3, [r7]
 4928 050e 1B68     		ldr	r3, [r3]
 4929 0510 9B0E     		lsrs	r3, r3, #26
 4930 0512 0133     		adds	r3, r3, #1
 4931 0514 03F01F03 		and	r3, r3, #31
 4932 0518 0121     		movs	r1, #1
 4933 051a 01FA03F3 		lsl	r3, r1, r3
 4934 051e 17E0     		b	.L411
 4935              	.L410:
 4936 0520 3B68     		ldr	r3, [r7]
 4937 0522 1B68     		ldr	r3, [r3]
 4938 0524 7B64     		str	r3, [r7, #68]
 4939 0526 7B6C     		ldr	r3, [r7, #68]
 4940              		.syntax unified
 4941              	@ 1055 "Drivers/CMSIS/Include/cmsis_gcc.h" 1
 4942 0528 93FAA3F3 		rbit r3, r3
 4943              	@ 0 "" 2
 4944              		.thumb
 4945              		.syntax unified
 4946 052c 3B64     		str	r3, [r7, #64]
 4947 052e 3B6C     		ldr	r3, [r7, #64]
 4948 0530 BB64     		str	r3, [r7, #72]
 4949 0532 BB6C     		ldr	r3, [r7, #72]
 4950 0534 002B     		cmp	r3, #0
 4951 0536 01D1     		bne	.L413
 4952 0538 2023     		movs	r3, #32
 4953 053a 03E0     		b	.L414
 4954              	.L413:
 4955 053c BB6C     		ldr	r3, [r7, #72]
 4956 053e B3FA83F3 		clz	r3, r3
 4957 0542 DBB2     		uxtb	r3, r3
 4958              	.L414:
 4959 0544 0133     		adds	r3, r3, #1
 4960 0546 03F01F03 		and	r3, r3, #31
 4961 054a 0121     		movs	r1, #1
 4962 054c 01FA03F3 		lsl	r3, r1, r3
 4963              	.L411:
 4964 0550 42EA0301 		orr	r1, r2, r3
 4965 0554 3B68     		ldr	r3, [r7]
 4966 0556 1B68     		ldr	r3, [r3]
ARM GAS  /var/folders/k1/1yttftd15rl7jxtpyc5m93n80000gn/T//ccruZCkn.s 			page 86


 4967 0558 C3F31203 		ubfx	r3, r3, #0, #19
 4968 055c 002B     		cmp	r3, #0
 4969 055e 0AD1     		bne	.L415
 4970 0560 3B68     		ldr	r3, [r7]
 4971 0562 1B68     		ldr	r3, [r3]
 4972 0564 9B0E     		lsrs	r3, r3, #26
 4973 0566 0133     		adds	r3, r3, #1
 4974 0568 03F01F02 		and	r2, r3, #31
 4975 056c 1346     		mov	r3, r2
 4976 056e 5B00     		lsls	r3, r3, #1
 4977 0570 1344     		add	r3, r3, r2
 4978 0572 1B05     		lsls	r3, r3, #20
 4979 0574 18E0     		b	.L416
 4980              	.L415:
 4981 0576 3B68     		ldr	r3, [r7]
 4982 0578 1B68     		ldr	r3, [r3]
 4983 057a BB63     		str	r3, [r7, #56]
 4984 057c BB6B     		ldr	r3, [r7, #56]
 4985              		.syntax unified
 4986              	@ 1055 "Drivers/CMSIS/Include/cmsis_gcc.h" 1
 4987 057e 93FAA3F3 		rbit r3, r3
 4988              	@ 0 "" 2
 4989              		.thumb
 4990              		.syntax unified
 4991 0582 7B63     		str	r3, [r7, #52]
 4992 0584 7B6B     		ldr	r3, [r7, #52]
 4993 0586 FB63     		str	r3, [r7, #60]
 4994 0588 FB6B     		ldr	r3, [r7, #60]
 4995 058a 002B     		cmp	r3, #0
 4996 058c 01D1     		bne	.L418
 4997 058e 2023     		movs	r3, #32
 4998 0590 03E0     		b	.L419
 4999              	.L418:
 5000 0592 FB6B     		ldr	r3, [r7, #60]
 5001 0594 B3FA83F3 		clz	r3, r3
 5002 0598 DBB2     		uxtb	r3, r3
 5003              	.L419:
 5004 059a 0133     		adds	r3, r3, #1
 5005 059c 03F01F02 		and	r2, r3, #31
 5006 05a0 1346     		mov	r3, r2
 5007 05a2 5B00     		lsls	r3, r3, #1
 5008 05a4 1344     		add	r3, r3, r2
 5009 05a6 1B05     		lsls	r3, r3, #20
 5010              	.L416:
 5011 05a8 0B43     		orrs	r3, r3, r1
 5012 05aa 7EE0     		b	.L420
 5013              	.L404:
 5014 05ac 3B68     		ldr	r3, [r7]
 5015 05ae 1B68     		ldr	r3, [r3]
 5016 05b0 C3F31203 		ubfx	r3, r3, #0, #19
 5017 05b4 002B     		cmp	r3, #0
 5018 05b6 07D1     		bne	.L421
 5019 05b8 3B68     		ldr	r3, [r7]
 5020 05ba 1B68     		ldr	r3, [r3]
 5021 05bc 9B0E     		lsrs	r3, r3, #26
 5022 05be 0133     		adds	r3, r3, #1
 5023 05c0 9B06     		lsls	r3, r3, #26
ARM GAS  /var/folders/k1/1yttftd15rl7jxtpyc5m93n80000gn/T//ccruZCkn.s 			page 87


 5024 05c2 03F0F842 		and	r2, r3, #2080374784
 5025 05c6 15E0     		b	.L422
 5026              	.L421:
 5027 05c8 3B68     		ldr	r3, [r7]
 5028 05ca 1B68     		ldr	r3, [r3]
 5029 05cc FB62     		str	r3, [r7, #44]
 5030 05ce FB6A     		ldr	r3, [r7, #44]
 5031              		.syntax unified
 5032              	@ 1055 "Drivers/CMSIS/Include/cmsis_gcc.h" 1
 5033 05d0 93FAA3F3 		rbit r3, r3
 5034              	@ 0 "" 2
 5035              		.thumb
 5036              		.syntax unified
 5037 05d4 BB62     		str	r3, [r7, #40]
 5038 05d6 BB6A     		ldr	r3, [r7, #40]
 5039 05d8 3B63     		str	r3, [r7, #48]
 5040 05da 3B6B     		ldr	r3, [r7, #48]
 5041 05dc 002B     		cmp	r3, #0
 5042 05de 01D1     		bne	.L424
 5043 05e0 2023     		movs	r3, #32
 5044 05e2 03E0     		b	.L425
 5045              	.L424:
 5046 05e4 3B6B     		ldr	r3, [r7, #48]
 5047 05e6 B3FA83F3 		clz	r3, r3
 5048 05ea DBB2     		uxtb	r3, r3
 5049              	.L425:
 5050 05ec 0133     		adds	r3, r3, #1
 5051 05ee 9B06     		lsls	r3, r3, #26
 5052 05f0 03F0F842 		and	r2, r3, #2080374784
 5053              	.L422:
 5054 05f4 3B68     		ldr	r3, [r7]
 5055 05f6 1B68     		ldr	r3, [r3]
 5056 05f8 C3F31203 		ubfx	r3, r3, #0, #19
 5057 05fc 002B     		cmp	r3, #0
 5058 05fe 09D1     		bne	.L426
 5059 0600 3B68     		ldr	r3, [r7]
 5060 0602 1B68     		ldr	r3, [r3]
 5061 0604 9B0E     		lsrs	r3, r3, #26
 5062 0606 0133     		adds	r3, r3, #1
 5063 0608 03F01F03 		and	r3, r3, #31
 5064 060c 0121     		movs	r1, #1
 5065 060e 01FA03F3 		lsl	r3, r1, r3
 5066 0612 17E0     		b	.L427
 5067              	.L426:
 5068 0614 3B68     		ldr	r3, [r7]
 5069 0616 1B68     		ldr	r3, [r3]
 5070 0618 3B62     		str	r3, [r7, #32]
 5071 061a 3B6A     		ldr	r3, [r7, #32]
 5072              		.syntax unified
 5073              	@ 1055 "Drivers/CMSIS/Include/cmsis_gcc.h" 1
 5074 061c 93FAA3F3 		rbit r3, r3
 5075              	@ 0 "" 2
 5076              		.thumb
 5077              		.syntax unified
 5078 0620 FB61     		str	r3, [r7, #28]
 5079 0622 FB69     		ldr	r3, [r7, #28]
 5080 0624 7B62     		str	r3, [r7, #36]
ARM GAS  /var/folders/k1/1yttftd15rl7jxtpyc5m93n80000gn/T//ccruZCkn.s 			page 88


 5081 0626 7B6A     		ldr	r3, [r7, #36]
 5082 0628 002B     		cmp	r3, #0
 5083 062a 01D1     		bne	.L429
 5084 062c 2023     		movs	r3, #32
 5085 062e 03E0     		b	.L430
 5086              	.L429:
 5087 0630 7B6A     		ldr	r3, [r7, #36]
 5088 0632 B3FA83F3 		clz	r3, r3
 5089 0636 DBB2     		uxtb	r3, r3
 5090              	.L430:
 5091 0638 0133     		adds	r3, r3, #1
 5092 063a 03F01F03 		and	r3, r3, #31
 5093 063e 0121     		movs	r1, #1
 5094 0640 01FA03F3 		lsl	r3, r1, r3
 5095              	.L427:
 5096 0644 42EA0301 		orr	r1, r2, r3
 5097 0648 3B68     		ldr	r3, [r7]
 5098 064a 1B68     		ldr	r3, [r3]
 5099 064c C3F31203 		ubfx	r3, r3, #0, #19
 5100 0650 002B     		cmp	r3, #0
 5101 0652 0DD1     		bne	.L431
 5102 0654 3B68     		ldr	r3, [r7]
 5103 0656 1B68     		ldr	r3, [r3]
 5104 0658 9B0E     		lsrs	r3, r3, #26
 5105 065a 0133     		adds	r3, r3, #1
 5106 065c 03F01F02 		and	r2, r3, #31
 5107 0660 1346     		mov	r3, r2
 5108 0662 5B00     		lsls	r3, r3, #1
 5109 0664 1344     		add	r3, r3, r2
 5110 0666 1E3B     		subs	r3, r3, #30
 5111 0668 1B05     		lsls	r3, r3, #20
 5112 066a 43F00073 		orr	r3, r3, #33554432
 5113 066e 1BE0     		b	.L432
 5114              	.L431:
 5115 0670 3B68     		ldr	r3, [r7]
 5116 0672 1B68     		ldr	r3, [r3]
 5117 0674 7B61     		str	r3, [r7, #20]
 5118 0676 7B69     		ldr	r3, [r7, #20]
 5119              		.syntax unified
 5120              	@ 1055 "Drivers/CMSIS/Include/cmsis_gcc.h" 1
 5121 0678 93FAA3F3 		rbit r3, r3
 5122              	@ 0 "" 2
 5123              		.thumb
 5124              		.syntax unified
 5125 067c 3B61     		str	r3, [r7, #16]
 5126 067e 3B69     		ldr	r3, [r7, #16]
 5127 0680 BB61     		str	r3, [r7, #24]
 5128 0682 BB69     		ldr	r3, [r7, #24]
 5129 0684 002B     		cmp	r3, #0
 5130 0686 01D1     		bne	.L434
 5131 0688 2023     		movs	r3, #32
 5132 068a 03E0     		b	.L435
 5133              	.L434:
 5134 068c BB69     		ldr	r3, [r7, #24]
 5135 068e B3FA83F3 		clz	r3, r3
 5136 0692 DBB2     		uxtb	r3, r3
 5137              	.L435:
ARM GAS  /var/folders/k1/1yttftd15rl7jxtpyc5m93n80000gn/T//ccruZCkn.s 			page 89


 5138 0694 0133     		adds	r3, r3, #1
 5139 0696 03F01F02 		and	r2, r3, #31
 5140 069a 1346     		mov	r3, r2
 5141 069c 5B00     		lsls	r3, r3, #1
 5142 069e 1344     		add	r3, r3, r2
 5143 06a0 1E3B     		subs	r3, r3, #30
 5144 06a2 1B05     		lsls	r3, r3, #20
 5145 06a4 43F00073 		orr	r3, r3, #33554432
 5146              	.L432:
 5147 06a8 0B43     		orrs	r3, r3, r1
 5148              	.L420:
 5149 06aa 3A68     		ldr	r2, [r7]
 5150 06ac 9268     		ldr	r2, [r2, #8]
 5151 06ae 1946     		mov	r1, r3
 5152 06b0 FFF7FEFF 		bl	LL_ADC_SetChannelSamplingTime
 5153              	.L398:
 5154 06b4 3B68     		ldr	r3, [r7]
 5155 06b6 1A68     		ldr	r2, [r3]
 5156 06b8 094B     		ldr	r3, .L460+4
 5157 06ba 1340     		ands	r3, r3, r2
 5158 06bc 002B     		cmp	r3, #0
 5159 06be 00F0BE80 		beq	.L457
 5160 06c2 7B68     		ldr	r3, [r7, #4]
 5161 06c4 1B68     		ldr	r3, [r3]
 5162 06c6 B3F1A04F 		cmp	r3, #1342177280
 5163 06ca 04D0     		beq	.L437
 5164 06cc 7B68     		ldr	r3, [r7, #4]
 5165 06ce 1B68     		ldr	r3, [r3]
 5166 06d0 044A     		ldr	r2, .L460+8
 5167 06d2 9342     		cmp	r3, r2
 5168 06d4 0AD1     		bne	.L438
 5169              	.L437:
 5170 06d6 044B     		ldr	r3, .L460+12
 5171 06d8 09E0     		b	.L439
 5172              	.L461:
 5173 06da 00BF     		.align	2
 5174              	.L460:
 5175 06dc 00007F40 		.word	1082064896
 5176 06e0 00000880 		.word	-2146959360
 5177 06e4 00010050 		.word	1342177536
 5178 06e8 00030050 		.word	1342178048
 5179              	.L438:
 5180 06ec 594B     		ldr	r3, .L462
 5181              	.L439:
 5182 06ee 1846     		mov	r0, r3
 5183 06f0 FFF7FEFF 		bl	LL_ADC_GetCommonPathInternalCh
 5184 06f4 C7F8C400 		str	r0, [r7, #196]
 5185 06f8 3B68     		ldr	r3, [r7]
 5186 06fa 1B68     		ldr	r3, [r3]
 5187 06fc 564A     		ldr	r2, .L462+4
 5188 06fe 9342     		cmp	r3, r2
 5189 0700 04D0     		beq	.L440
 5190 0702 3B68     		ldr	r3, [r7]
 5191 0704 1B68     		ldr	r3, [r3]
 5192 0706 554A     		ldr	r2, .L462+8
 5193 0708 9342     		cmp	r3, r2
 5194 070a 3AD1     		bne	.L441
ARM GAS  /var/folders/k1/1yttftd15rl7jxtpyc5m93n80000gn/T//ccruZCkn.s 			page 90


 5195              	.L440:
 5196 070c D7F8C430 		ldr	r3, [r7, #196]
 5197 0710 03F40003 		and	r3, r3, #8388608
 5198 0714 002B     		cmp	r3, #0
 5199 0716 34D1     		bne	.L441
 5200 0718 7B68     		ldr	r3, [r7, #4]
 5201 071a 1B68     		ldr	r3, [r3]
 5202 071c B3F1A04F 		cmp	r3, #1342177280
 5203 0720 05D0     		beq	.L442
 5204 0722 7B68     		ldr	r3, [r7, #4]
 5205 0724 1B68     		ldr	r3, [r3]
 5206 0726 4E4A     		ldr	r2, .L462+12
 5207 0728 9342     		cmp	r3, r2
 5208 072a 40F08580 		bne	.L458
 5209              	.L442:
 5210 072e 7B68     		ldr	r3, [r7, #4]
 5211 0730 1B68     		ldr	r3, [r3]
 5212 0732 B3F1A04F 		cmp	r3, #1342177280
 5213 0736 04D0     		beq	.L444
 5214 0738 7B68     		ldr	r3, [r7, #4]
 5215 073a 1B68     		ldr	r3, [r3]
 5216 073c 494A     		ldr	r2, .L462+16
 5217 073e 9342     		cmp	r3, r2
 5218 0740 01D1     		bne	.L445
 5219              	.L444:
 5220 0742 494A     		ldr	r2, .L462+20
 5221 0744 00E0     		b	.L446
 5222              	.L445:
 5223 0746 434A     		ldr	r2, .L462
 5224              	.L446:
 5225 0748 D7F8C430 		ldr	r3, [r7, #196]
 5226 074c 43F40003 		orr	r3, r3, #8388608
 5227 0750 1946     		mov	r1, r3
 5228 0752 1046     		mov	r0, r2
 5229 0754 FFF7FEFF 		bl	LL_ADC_SetCommonPathInternalCh
 5230 0758 444B     		ldr	r3, .L462+24
 5231 075a 1B68     		ldr	r3, [r3]
 5232 075c 9B09     		lsrs	r3, r3, #6
 5233 075e 444A     		ldr	r2, .L462+28
 5234 0760 A2FB0323 		umull	r2, r3, r2, r3
 5235 0764 9B09     		lsrs	r3, r3, #6
 5236 0766 5A1C     		adds	r2, r3, #1
 5237 0768 1346     		mov	r3, r2
 5238 076a 5B00     		lsls	r3, r3, #1
 5239 076c 1344     		add	r3, r3, r2
 5240 076e 9B00     		lsls	r3, r3, #2
 5241 0770 FB60     		str	r3, [r7, #12]
 5242 0772 02E0     		b	.L447
 5243              	.L448:
 5244 0774 FB68     		ldr	r3, [r7, #12]
 5245 0776 013B     		subs	r3, r3, #1
 5246 0778 FB60     		str	r3, [r7, #12]
 5247              	.L447:
 5248 077a FB68     		ldr	r3, [r7, #12]
 5249 077c 002B     		cmp	r3, #0
 5250 077e F9D1     		bne	.L448
 5251 0780 5AE0     		b	.L458
ARM GAS  /var/folders/k1/1yttftd15rl7jxtpyc5m93n80000gn/T//ccruZCkn.s 			page 91


 5252              	.L441:
 5253 0782 3B68     		ldr	r3, [r7]
 5254 0784 1B68     		ldr	r3, [r3]
 5255 0786 3B4A     		ldr	r2, .L462+32
 5256 0788 9342     		cmp	r3, r2
 5257 078a 25D1     		bne	.L449
 5258 078c D7F8C430 		ldr	r3, [r7, #196]
 5259 0790 03F08073 		and	r3, r3, #16777216
 5260 0794 002B     		cmp	r3, #0
 5261 0796 1FD1     		bne	.L449
 5262 0798 7B68     		ldr	r3, [r7, #4]
 5263 079a 1B68     		ldr	r3, [r3]
 5264 079c 314A     		ldr	r2, .L462+16
 5265 079e 9342     		cmp	r3, r2
 5266 07a0 4CD0     		beq	.L459
 5267 07a2 7B68     		ldr	r3, [r7, #4]
 5268 07a4 1B68     		ldr	r3, [r3]
 5269 07a6 344A     		ldr	r2, .L462+36
 5270 07a8 9342     		cmp	r3, r2
 5271 07aa 47D0     		beq	.L459
 5272 07ac 7B68     		ldr	r3, [r7, #4]
 5273 07ae 1B68     		ldr	r3, [r3]
 5274 07b0 B3F1A04F 		cmp	r3, #1342177280
 5275 07b4 04D0     		beq	.L451
 5276 07b6 7B68     		ldr	r3, [r7, #4]
 5277 07b8 1B68     		ldr	r3, [r3]
 5278 07ba 2A4A     		ldr	r2, .L462+16
 5279 07bc 9342     		cmp	r3, r2
 5280 07be 01D1     		bne	.L452
 5281              	.L451:
 5282 07c0 294A     		ldr	r2, .L462+20
 5283 07c2 00E0     		b	.L453
 5284              	.L452:
 5285 07c4 234A     		ldr	r2, .L462
 5286              	.L453:
 5287 07c6 D7F8C430 		ldr	r3, [r7, #196]
 5288 07ca 43F08073 		orr	r3, r3, #16777216
 5289 07ce 1946     		mov	r1, r3
 5290 07d0 1046     		mov	r0, r2
 5291 07d2 FFF7FEFF 		bl	LL_ADC_SetCommonPathInternalCh
 5292 07d6 31E0     		b	.L459
 5293              	.L449:
 5294 07d8 3B68     		ldr	r3, [r7]
 5295 07da 1B68     		ldr	r3, [r3]
 5296 07dc 274A     		ldr	r2, .L462+40
 5297 07de 9342     		cmp	r3, r2
 5298 07e0 2DD1     		bne	.L457
 5299 07e2 D7F8C430 		ldr	r3, [r7, #196]
 5300 07e6 03F48003 		and	r3, r3, #4194304
 5301 07ea 002B     		cmp	r3, #0
 5302 07ec 27D1     		bne	.L457
 5303 07ee 7B68     		ldr	r3, [r7, #4]
 5304 07f0 1B68     		ldr	r3, [r3]
 5305 07f2 1C4A     		ldr	r2, .L462+16
 5306 07f4 9342     		cmp	r3, r2
 5307 07f6 22D0     		beq	.L457
 5308 07f8 7B68     		ldr	r3, [r7, #4]
ARM GAS  /var/folders/k1/1yttftd15rl7jxtpyc5m93n80000gn/T//ccruZCkn.s 			page 92


 5309 07fa 1B68     		ldr	r3, [r3]
 5310 07fc B3F1A04F 		cmp	r3, #1342177280
 5311 0800 04D0     		beq	.L454
 5312 0802 7B68     		ldr	r3, [r7, #4]
 5313 0804 1B68     		ldr	r3, [r3]
 5314 0806 174A     		ldr	r2, .L462+16
 5315 0808 9342     		cmp	r3, r2
 5316 080a 01D1     		bne	.L455
 5317              	.L454:
 5318 080c 164A     		ldr	r2, .L462+20
 5319 080e 00E0     		b	.L456
 5320              	.L455:
 5321 0810 104A     		ldr	r2, .L462
 5322              	.L456:
 5323 0812 D7F8C430 		ldr	r3, [r7, #196]
 5324 0816 43F48003 		orr	r3, r3, #4194304
 5325 081a 1946     		mov	r1, r3
 5326 081c 1046     		mov	r0, r2
 5327 081e FFF7FEFF 		bl	LL_ADC_SetCommonPathInternalCh
 5328 0822 0CE0     		b	.L457
 5329              	.L348:
 5330 0824 7B68     		ldr	r3, [r7, #4]
 5331 0826 DB6D     		ldr	r3, [r3, #92]
 5332 0828 43F02002 		orr	r2, r3, #32
 5333 082c 7B68     		ldr	r3, [r7, #4]
 5334 082e DA65     		str	r2, [r3, #92]
 5335 0830 0123     		movs	r3, #1
 5336 0832 87F8D730 		strb	r3, [r7, #215]
 5337 0836 02E0     		b	.L457
 5338              	.L458:
 5339 0838 00BF     		nop
 5340 083a 00E0     		b	.L457
 5341              	.L459:
 5342 083c 00BF     		nop
 5343              	.L457:
 5344 083e 7B68     		ldr	r3, [r7, #4]
 5345 0840 0022     		movs	r2, #0
 5346 0842 83F85820 		strb	r2, [r3, #88]
 5347 0846 97F8D730 		ldrb	r3, [r7, #215]	@ zero_extendqisi2
 5348              	.L347:
 5349 084a 1846     		mov	r0, r3
 5350 084c D837     		adds	r7, r7, #216
 5351 084e BD46     		mov	sp, r7
 5352              		@ sp needed
 5353 0850 80BD     		pop	{r7, pc}
 5354              	.L463:
 5355 0852 00BF     		.align	2
 5356              	.L462:
 5357 0854 00070050 		.word	1342179072
 5358 0858 000021C3 		.word	-1021247488
 5359 085c 1000C090 		.word	-1866465264
 5360 0860 00060050 		.word	1342178816
 5361 0864 00010050 		.word	1342177536
 5362 0868 00030050 		.word	1342178048
 5363 086c 00000000 		.word	SystemCoreClock
 5364 0870 632D3E05 		.word	87960931
 5365 0874 000052C7 		.word	-950927360
ARM GAS  /var/folders/k1/1yttftd15rl7jxtpyc5m93n80000gn/T//ccruZCkn.s 			page 93


 5366 0878 00050050 		.word	1342178560
 5367 087c 000084CB 		.word	-880541696
 5369              		.section	.text.HAL_ADC_AnalogWDGConfig,"ax",%progbits
 5370              		.align	1
 5371              		.global	HAL_ADC_AnalogWDGConfig
 5372              		.syntax unified
 5373              		.thumb
 5374              		.thumb_func
 5376              	HAL_ADC_AnalogWDGConfig:
 5377              		@ args = 0, pretend = 0, frame = 56
 5378              		@ frame_needed = 1, uses_anonymous_args = 0
 5379 0000 80B5     		push	{r7, lr}
 5380 0002 8EB0     		sub	sp, sp, #56
 5381 0004 00AF     		add	r7, sp, #0
 5382 0006 7860     		str	r0, [r7, #4]
 5383 0008 3960     		str	r1, [r7]
 5384 000a 0023     		movs	r3, #0
 5385 000c 87F82F30 		strb	r3, [r7, #47]
 5386 0010 3B68     		ldr	r3, [r7]
 5387 0012 5B68     		ldr	r3, [r3, #4]
 5388 0014 B3F5400F 		cmp	r3, #12582912
 5389 0018 03D0     		beq	.L465
 5390 001a 3B68     		ldr	r3, [r7]
 5391 001c 5B68     		ldr	r3, [r3, #4]
 5392 001e B3F1A07F 		cmp	r3, #20971520
 5393              	.L465:
 5394 0022 7B68     		ldr	r3, [r7, #4]
 5395 0024 93F85830 		ldrb	r3, [r3, #88]	@ zero_extendqisi2
 5396 0028 012B     		cmp	r3, #1
 5397 002a 01D1     		bne	.L466
 5398 002c 0223     		movs	r3, #2
 5399 002e EAE1     		b	.L467
 5400              	.L466:
 5401 0030 7B68     		ldr	r3, [r7, #4]
 5402 0032 0122     		movs	r2, #1
 5403 0034 83F85820 		strb	r2, [r3, #88]
 5404 0038 7B68     		ldr	r3, [r7, #4]
 5405 003a 1B68     		ldr	r3, [r3]
 5406 003c 1846     		mov	r0, r3
 5407 003e FFF7FEFF 		bl	LL_ADC_REG_IsConversionOngoing
 5408 0042 B862     		str	r0, [r7, #40]
 5409 0044 7B68     		ldr	r3, [r7, #4]
 5410 0046 1B68     		ldr	r3, [r3]
 5411 0048 1846     		mov	r0, r3
 5412 004a FFF7FEFF 		bl	LL_ADC_INJ_IsConversionOngoing
 5413 004e 7862     		str	r0, [r7, #36]
 5414 0050 BB6A     		ldr	r3, [r7, #40]
 5415 0052 002B     		cmp	r3, #0
 5416 0054 40F07581 		bne	.L468
 5417 0058 7B6A     		ldr	r3, [r7, #36]
 5418 005a 002B     		cmp	r3, #0
 5419 005c 40F07181 		bne	.L468
 5420 0060 3B68     		ldr	r3, [r7]
 5421 0062 1B68     		ldr	r3, [r3]
 5422 0064 904A     		ldr	r2, .L503
 5423 0066 9342     		cmp	r3, r2
 5424 0068 40F08D80 		bne	.L469
ARM GAS  /var/folders/k1/1yttftd15rl7jxtpyc5m93n80000gn/T//ccruZCkn.s 			page 94


 5425 006c 3B68     		ldr	r3, [r7]
 5426 006e 5B68     		ldr	r3, [r3, #4]
 5427 0070 B3F1E07F 		cmp	r3, #29360128
 5428 0074 34D0     		beq	.L470
 5429 0076 B3F1E07F 		cmp	r3, #29360128
 5430 007a 56D8     		bhi	.L471
 5431 007c B3F1C07F 		cmp	r3, #25165824
 5432 0080 4BD0     		beq	.L472
 5433 0082 B3F1C07F 		cmp	r3, #25165824
 5434 0086 50D8     		bhi	.L471
 5435 0088 B3F1A07F 		cmp	r3, #20971520
 5436 008c 1BD0     		beq	.L473
 5437 008e B3F1A07F 		cmp	r3, #20971520
 5438 0092 4AD8     		bhi	.L471
 5439 0094 B3F1807F 		cmp	r3, #16777216
 5440 0098 37D0     		beq	.L474
 5441 009a B3F1807F 		cmp	r3, #16777216
 5442 009e 44D8     		bhi	.L471
 5443 00a0 B3F5000F 		cmp	r3, #8388608
 5444 00a4 29D0     		beq	.L475
 5445 00a6 B3F5400F 		cmp	r3, #12582912
 5446 00aa 3ED1     		bne	.L471
 5447 00ac 7B68     		ldr	r3, [r7, #4]
 5448 00ae 1868     		ldr	r0, [r3]
 5449 00b0 3B68     		ldr	r3, [r7]
 5450 00b2 9B68     		ldr	r3, [r3, #8]
 5451 00b4 23F07C73 		bic	r3, r3, #66060288
 5452 00b8 43F44003 		orr	r3, r3, #12582912
 5453 00bc 1A46     		mov	r2, r3
 5454 00be 7A49     		ldr	r1, .L503
 5455 00c0 FFF7FEFF 		bl	LL_ADC_SetAnalogWDMonitChannels
 5456 00c4 39E0     		b	.L476
 5457              	.L473:
 5458 00c6 7B68     		ldr	r3, [r7, #4]
 5459 00c8 1868     		ldr	r0, [r3]
 5460 00ca 3B68     		ldr	r3, [r7]
 5461 00cc 9B68     		ldr	r3, [r3, #8]
 5462 00ce 23F07C73 		bic	r3, r3, #66060288
 5463 00d2 43F0A073 		orr	r3, r3, #20971520
 5464 00d6 1A46     		mov	r2, r3
 5465 00d8 7349     		ldr	r1, .L503
 5466 00da FFF7FEFF 		bl	LL_ADC_SetAnalogWDMonitChannels
 5467 00de 2CE0     		b	.L476
 5468              	.L470:
 5469 00e0 7B68     		ldr	r3, [r7, #4]
 5470 00e2 1868     		ldr	r0, [r3]
 5471 00e4 3B68     		ldr	r3, [r7]
 5472 00e6 9B68     		ldr	r3, [r3, #8]
 5473 00e8 23F07C73 		bic	r3, r3, #66060288
 5474 00ec 43F0E073 		orr	r3, r3, #29360128
 5475 00f0 1A46     		mov	r2, r3
 5476 00f2 6D49     		ldr	r1, .L503
 5477 00f4 FFF7FEFF 		bl	LL_ADC_SetAnalogWDMonitChannels
 5478 00f8 1FE0     		b	.L476
 5479              	.L475:
 5480 00fa 7B68     		ldr	r3, [r7, #4]
 5481 00fc 1B68     		ldr	r3, [r3]
ARM GAS  /var/folders/k1/1yttftd15rl7jxtpyc5m93n80000gn/T//ccruZCkn.s 			page 95


 5482 00fe 6B4A     		ldr	r2, .L503+4
 5483 0100 6949     		ldr	r1, .L503
 5484 0102 1846     		mov	r0, r3
 5485 0104 FFF7FEFF 		bl	LL_ADC_SetAnalogWDMonitChannels
 5486 0108 17E0     		b	.L476
 5487              	.L474:
 5488 010a 7B68     		ldr	r3, [r7, #4]
 5489 010c 1B68     		ldr	r3, [r3]
 5490 010e 684A     		ldr	r2, .L503+8
 5491 0110 6549     		ldr	r1, .L503
 5492 0112 1846     		mov	r0, r3
 5493 0114 FFF7FEFF 		bl	LL_ADC_SetAnalogWDMonitChannels
 5494 0118 0FE0     		b	.L476
 5495              	.L472:
 5496 011a 7B68     		ldr	r3, [r7, #4]
 5497 011c 1B68     		ldr	r3, [r3]
 5498 011e 654A     		ldr	r2, .L503+12
 5499 0120 6149     		ldr	r1, .L503
 5500 0122 1846     		mov	r0, r3
 5501 0124 FFF7FEFF 		bl	LL_ADC_SetAnalogWDMonitChannels
 5502 0128 07E0     		b	.L476
 5503              	.L471:
 5504 012a 7B68     		ldr	r3, [r7, #4]
 5505 012c 1B68     		ldr	r3, [r3]
 5506 012e 0022     		movs	r2, #0
 5507 0130 5D49     		ldr	r1, .L503
 5508 0132 1846     		mov	r0, r3
 5509 0134 FFF7FEFF 		bl	LL_ADC_SetAnalogWDMonitChannels
 5510 0138 00BF     		nop
 5511              	.L476:
 5512 013a 7B68     		ldr	r3, [r7, #4]
 5513 013c 1B68     		ldr	r3, [r3]
 5514 013e 1B6A     		ldr	r3, [r3, #32]
 5515 0140 23F4E041 		bic	r1, r3, #28672
 5516 0144 3B68     		ldr	r3, [r7]
 5517 0146 9A69     		ldr	r2, [r3, #24]
 5518 0148 7B68     		ldr	r3, [r7, #4]
 5519 014a 1B68     		ldr	r3, [r3]
 5520 014c 0A43     		orrs	r2, r2, r1
 5521 014e 1A62     		str	r2, [r3, #32]
 5522 0150 7B68     		ldr	r3, [r7, #4]
 5523 0152 DB6D     		ldr	r3, [r3, #92]
 5524 0154 23F48032 		bic	r2, r3, #65536
 5525 0158 7B68     		ldr	r3, [r7, #4]
 5526 015a DA65     		str	r2, [r3, #92]
 5527 015c 7B68     		ldr	r3, [r7, #4]
 5528 015e 1B68     		ldr	r3, [r3]
 5529 0160 1846     		mov	r0, r3
 5530 0162 FFF7FEFF 		bl	LL_ADC_ClearFlag_AWD1
 5531 0166 3B68     		ldr	r3, [r7]
 5532 0168 1B7B     		ldrb	r3, [r3, #12]	@ zero_extendqisi2
 5533 016a 012B     		cmp	r3, #1
 5534 016c 05D1     		bne	.L477
 5535 016e 7B68     		ldr	r3, [r7, #4]
 5536 0170 1B68     		ldr	r3, [r3]
 5537 0172 1846     		mov	r0, r3
 5538 0174 FFF7FEFF 		bl	LL_ADC_EnableIT_AWD1
ARM GAS  /var/folders/k1/1yttftd15rl7jxtpyc5m93n80000gn/T//ccruZCkn.s 			page 96


 5539 0178 E3E0     		b	.L468
 5540              	.L477:
 5541 017a 7B68     		ldr	r3, [r7, #4]
 5542 017c 1B68     		ldr	r3, [r3]
 5543 017e 1846     		mov	r0, r3
 5544 0180 FFF7FEFF 		bl	LL_ADC_DisableIT_AWD1
 5545 0184 DDE0     		b	.L468
 5546              	.L469:
 5547 0186 3B68     		ldr	r3, [r7]
 5548 0188 5B68     		ldr	r3, [r3, #4]
 5549 018a B3F1E07F 		cmp	r3, #29360128
 5550 018e 1DD0     		beq	.L478
 5551 0190 B3F1E07F 		cmp	r3, #29360128
 5552 0194 00F29280 		bhi	.L479
 5553 0198 B3F1C07F 		cmp	r3, #25165824
 5554 019c 7BD0     		beq	.L480
 5555 019e B3F1C07F 		cmp	r3, #25165824
 5556 01a2 00F28B80 		bhi	.L479
 5557 01a6 B3F1A07F 		cmp	r3, #20971520
 5558 01aa 0FD0     		beq	.L478
 5559 01ac B3F1A07F 		cmp	r3, #20971520
 5560 01b0 00F28480 		bhi	.L479
 5561 01b4 B3F1807F 		cmp	r3, #16777216
 5562 01b8 6DD0     		beq	.L480
 5563 01ba B3F1807F 		cmp	r3, #16777216
 5564 01be 7DD8     		bhi	.L479
 5565 01c0 B3F5000F 		cmp	r3, #8388608
 5566 01c4 67D0     		beq	.L480
 5567 01c6 B3F5400F 		cmp	r3, #12582912
 5568 01ca 77D1     		bne	.L479
 5569              	.L478:
 5570 01cc 3B68     		ldr	r3, [r7]
 5571 01ce 1B68     		ldr	r3, [r3]
 5572 01d0 394A     		ldr	r2, .L503+16
 5573 01d2 9342     		cmp	r3, r2
 5574 01d4 2FD1     		bne	.L481
 5575 01d6 3B68     		ldr	r3, [r7]
 5576 01d8 9B68     		ldr	r3, [r3, #8]
 5577 01da C3F31203 		ubfx	r3, r3, #0, #19
 5578 01de 002B     		cmp	r3, #0
 5579 01e0 08D1     		bne	.L482
 5580 01e2 3B68     		ldr	r3, [r7]
 5581 01e4 9B68     		ldr	r3, [r3, #8]
 5582 01e6 9B0E     		lsrs	r3, r3, #26
 5583 01e8 03F01F03 		and	r3, r3, #31
 5584 01ec 0122     		movs	r2, #1
 5585 01ee 02FA03F3 		lsl	r3, r2, r3
 5586 01f2 16E0     		b	.L483
 5587              	.L482:
 5588 01f4 3B68     		ldr	r3, [r7]
 5589 01f6 9B68     		ldr	r3, [r3, #8]
 5590 01f8 FB61     		str	r3, [r7, #28]
 5591 01fa FB69     		ldr	r3, [r7, #28]
 5592              		.syntax unified
 5593              	@ 1055 "Drivers/CMSIS/Include/cmsis_gcc.h" 1
 5594 01fc 93FAA3F3 		rbit r3, r3
 5595              	@ 0 "" 2
ARM GAS  /var/folders/k1/1yttftd15rl7jxtpyc5m93n80000gn/T//ccruZCkn.s 			page 97


 5596              		.thumb
 5597              		.syntax unified
 5598 0200 BB61     		str	r3, [r7, #24]
 5599 0202 BB69     		ldr	r3, [r7, #24]
 5600 0204 3B62     		str	r3, [r7, #32]
 5601 0206 3B6A     		ldr	r3, [r7, #32]
 5602 0208 002B     		cmp	r3, #0
 5603 020a 01D1     		bne	.L485
 5604 020c 2023     		movs	r3, #32
 5605 020e 03E0     		b	.L486
 5606              	.L485:
 5607 0210 3B6A     		ldr	r3, [r7, #32]
 5608 0212 B3FA83F3 		clz	r3, r3
 5609 0216 DBB2     		uxtb	r3, r3
 5610              	.L486:
 5611 0218 03F01F03 		and	r3, r3, #31
 5612 021c 0122     		movs	r2, #1
 5613 021e 02FA03F3 		lsl	r3, r2, r3
 5614              	.L483:
 5615 0222 7A68     		ldr	r2, [r7, #4]
 5616 0224 1268     		ldr	r2, [r2]
 5617 0226 D2F8A010 		ldr	r1, [r2, #160]
 5618 022a 7A68     		ldr	r2, [r7, #4]
 5619 022c 1268     		ldr	r2, [r2]
 5620 022e 0B43     		orrs	r3, r3, r1
 5621 0230 C2F8A030 		str	r3, [r2, #160]
 5622 0234 4BE0     		b	.L493
 5623              	.L481:
 5624 0236 3B68     		ldr	r3, [r7]
 5625 0238 9B68     		ldr	r3, [r3, #8]
 5626 023a C3F31203 		ubfx	r3, r3, #0, #19
 5627 023e 002B     		cmp	r3, #0
 5628 0240 08D1     		bne	.L488
 5629 0242 3B68     		ldr	r3, [r7]
 5630 0244 9B68     		ldr	r3, [r3, #8]
 5631 0246 9B0E     		lsrs	r3, r3, #26
 5632 0248 03F01F03 		and	r3, r3, #31
 5633 024c 0122     		movs	r2, #1
 5634 024e 02FA03F3 		lsl	r3, r2, r3
 5635 0252 16E0     		b	.L489
 5636              	.L488:
 5637 0254 3B68     		ldr	r3, [r7]
 5638 0256 9B68     		ldr	r3, [r3, #8]
 5639 0258 3B61     		str	r3, [r7, #16]
 5640 025a 3B69     		ldr	r3, [r7, #16]
 5641              		.syntax unified
 5642              	@ 1055 "Drivers/CMSIS/Include/cmsis_gcc.h" 1
 5643 025c 93FAA3F3 		rbit r3, r3
 5644              	@ 0 "" 2
 5645              		.thumb
 5646              		.syntax unified
 5647 0260 FB60     		str	r3, [r7, #12]
 5648 0262 FB68     		ldr	r3, [r7, #12]
 5649 0264 7B61     		str	r3, [r7, #20]
 5650 0266 7B69     		ldr	r3, [r7, #20]
 5651 0268 002B     		cmp	r3, #0
 5652 026a 01D1     		bne	.L491
ARM GAS  /var/folders/k1/1yttftd15rl7jxtpyc5m93n80000gn/T//ccruZCkn.s 			page 98


 5653 026c 2023     		movs	r3, #32
 5654 026e 03E0     		b	.L492
 5655              	.L491:
 5656 0270 7B69     		ldr	r3, [r7, #20]
 5657 0272 B3FA83F3 		clz	r3, r3
 5658 0276 DBB2     		uxtb	r3, r3
 5659              	.L492:
 5660 0278 03F01F03 		and	r3, r3, #31
 5661 027c 0122     		movs	r2, #1
 5662 027e 02FA03F3 		lsl	r3, r2, r3
 5663              	.L489:
 5664 0282 7A68     		ldr	r2, [r7, #4]
 5665 0284 1268     		ldr	r2, [r2]
 5666 0286 D2F8A410 		ldr	r1, [r2, #164]
 5667 028a 7A68     		ldr	r2, [r7, #4]
 5668 028c 1268     		ldr	r2, [r2]
 5669 028e 0B43     		orrs	r3, r3, r1
 5670 0290 C2F8A430 		str	r3, [r2, #164]
 5671 0294 1BE0     		b	.L493
 5672              	.L480:
 5673 0296 7B68     		ldr	r3, [r7, #4]
 5674 0298 1868     		ldr	r0, [r3]
 5675 029a 3B68     		ldr	r3, [r7]
 5676 029c 1B68     		ldr	r3, [r3]
 5677 029e 054A     		ldr	r2, .L503+12
 5678 02a0 1946     		mov	r1, r3
 5679 02a2 FFF7FEFF 		bl	LL_ADC_SetAnalogWDMonitChannels
 5680 02a6 12E0     		b	.L493
 5681              	.L504:
 5682              		.align	2
 5683              	.L503:
 5684 02a8 0000C07D 		.word	2109734912
 5685 02ac FFFF8700 		.word	8912895
 5686 02b0 FFFF0701 		.word	17301503
 5687 02b4 FFFF8701 		.word	25690111
 5688 02b8 FFFF1700 		.word	1572863
 5689              	.L479:
 5690 02bc 7B68     		ldr	r3, [r7, #4]
 5691 02be 1868     		ldr	r0, [r3]
 5692 02c0 3B68     		ldr	r3, [r7]
 5693 02c2 1B68     		ldr	r3, [r3]
 5694 02c4 0022     		movs	r2, #0
 5695 02c6 1946     		mov	r1, r3
 5696 02c8 FFF7FEFF 		bl	LL_ADC_SetAnalogWDMonitChannels
 5697 02cc 00BF     		nop
 5698              	.L493:
 5699 02ce 3B68     		ldr	r3, [r7]
 5700 02d0 1B68     		ldr	r3, [r3]
 5701 02d2 4F4A     		ldr	r2, .L505
 5702 02d4 9342     		cmp	r3, r2
 5703 02d6 1AD1     		bne	.L494
 5704 02d8 7B68     		ldr	r3, [r7, #4]
 5705 02da DB6D     		ldr	r3, [r3, #92]
 5706 02dc 23F40032 		bic	r2, r3, #131072
 5707 02e0 7B68     		ldr	r3, [r7, #4]
 5708 02e2 DA65     		str	r2, [r3, #92]
 5709 02e4 7B68     		ldr	r3, [r7, #4]
ARM GAS  /var/folders/k1/1yttftd15rl7jxtpyc5m93n80000gn/T//ccruZCkn.s 			page 99


 5710 02e6 1B68     		ldr	r3, [r3]
 5711 02e8 1846     		mov	r0, r3
 5712 02ea FFF7FEFF 		bl	LL_ADC_ClearFlag_AWD2
 5713 02ee 3B68     		ldr	r3, [r7]
 5714 02f0 1B7B     		ldrb	r3, [r3, #12]	@ zero_extendqisi2
 5715 02f2 012B     		cmp	r3, #1
 5716 02f4 05D1     		bne	.L495
 5717 02f6 7B68     		ldr	r3, [r7, #4]
 5718 02f8 1B68     		ldr	r3, [r3]
 5719 02fa 1846     		mov	r0, r3
 5720 02fc FFF7FEFF 		bl	LL_ADC_EnableIT_AWD2
 5721 0300 1FE0     		b	.L468
 5722              	.L495:
 5723 0302 7B68     		ldr	r3, [r7, #4]
 5724 0304 1B68     		ldr	r3, [r3]
 5725 0306 1846     		mov	r0, r3
 5726 0308 FFF7FEFF 		bl	LL_ADC_DisableIT_AWD2
 5727 030c 19E0     		b	.L468
 5728              	.L494:
 5729 030e 7B68     		ldr	r3, [r7, #4]
 5730 0310 DB6D     		ldr	r3, [r3, #92]
 5731 0312 23F48022 		bic	r2, r3, #262144
 5732 0316 7B68     		ldr	r3, [r7, #4]
 5733 0318 DA65     		str	r2, [r3, #92]
 5734 031a 7B68     		ldr	r3, [r7, #4]
 5735 031c 1B68     		ldr	r3, [r3]
 5736 031e 1846     		mov	r0, r3
 5737 0320 FFF7FEFF 		bl	LL_ADC_ClearFlag_AWD3
 5738 0324 3B68     		ldr	r3, [r7]
 5739 0326 1B7B     		ldrb	r3, [r3, #12]	@ zero_extendqisi2
 5740 0328 012B     		cmp	r3, #1
 5741 032a 05D1     		bne	.L496
 5742 032c 7B68     		ldr	r3, [r7, #4]
 5743 032e 1B68     		ldr	r3, [r3]
 5744 0330 1846     		mov	r0, r3
 5745 0332 FFF7FEFF 		bl	LL_ADC_EnableIT_AWD3
 5746 0336 04E0     		b	.L468
 5747              	.L496:
 5748 0338 7B68     		ldr	r3, [r7, #4]
 5749 033a 1B68     		ldr	r3, [r3]
 5750 033c 1846     		mov	r0, r3
 5751 033e FFF7FEFF 		bl	LL_ADC_DisableIT_AWD3
 5752              	.L468:
 5753 0342 3B68     		ldr	r3, [r7]
 5754 0344 1B68     		ldr	r3, [r3]
 5755 0346 334A     		ldr	r2, .L505+4
 5756 0348 9342     		cmp	r3, r2
 5757 034a 18D1     		bne	.L497
 5758 034c 3B68     		ldr	r3, [r7]
 5759 034e 1A69     		ldr	r2, [r3, #16]
 5760 0350 7B68     		ldr	r3, [r7, #4]
 5761 0352 1B68     		ldr	r3, [r3]
 5762 0354 DB68     		ldr	r3, [r3, #12]
 5763 0356 DB08     		lsrs	r3, r3, #3
 5764 0358 03F00303 		and	r3, r3, #3
 5765 035c 5B00     		lsls	r3, r3, #1
 5766 035e 02FA03F3 		lsl	r3, r2, r3
ARM GAS  /var/folders/k1/1yttftd15rl7jxtpyc5m93n80000gn/T//ccruZCkn.s 			page 100


 5767 0362 7B63     		str	r3, [r7, #52]
 5768 0364 3B68     		ldr	r3, [r7]
 5769 0366 5A69     		ldr	r2, [r3, #20]
 5770 0368 7B68     		ldr	r3, [r7, #4]
 5771 036a 1B68     		ldr	r3, [r3]
 5772 036c DB68     		ldr	r3, [r3, #12]
 5773 036e DB08     		lsrs	r3, r3, #3
 5774 0370 03F00303 		and	r3, r3, #3
 5775 0374 5B00     		lsls	r3, r3, #1
 5776 0376 02FA03F3 		lsl	r3, r2, r3
 5777 037a 3B63     		str	r3, [r7, #48]
 5778 037c 35E0     		b	.L498
 5779              	.L497:
 5780 037e 7B68     		ldr	r3, [r7, #4]
 5781 0380 1B68     		ldr	r3, [r3]
 5782 0382 DB68     		ldr	r3, [r3, #12]
 5783 0384 03F01803 		and	r3, r3, #24
 5784 0388 182B     		cmp	r3, #24
 5785 038a 0FD0     		beq	.L499
 5786 038c 3B68     		ldr	r3, [r7]
 5787 038e 1A69     		ldr	r2, [r3, #16]
 5788 0390 7B68     		ldr	r3, [r7, #4]
 5789 0392 1B68     		ldr	r3, [r3]
 5790 0394 DB68     		ldr	r3, [r3, #12]
 5791 0396 DB08     		lsrs	r3, r3, #3
 5792 0398 03F00303 		and	r3, r3, #3
 5793 039c C3F10203 		rsb	r3, r3, #2
 5794 03a0 5B00     		lsls	r3, r3, #1
 5795 03a2 03F01E03 		and	r3, r3, #30
 5796 03a6 22FA03F3 		lsr	r3, r2, r3
 5797 03aa 02E0     		b	.L500
 5798              	.L499:
 5799 03ac 3B68     		ldr	r3, [r7]
 5800 03ae 1B69     		ldr	r3, [r3, #16]
 5801 03b0 9B00     		lsls	r3, r3, #2
 5802              	.L500:
 5803 03b2 7B63     		str	r3, [r7, #52]
 5804 03b4 7B68     		ldr	r3, [r7, #4]
 5805 03b6 1B68     		ldr	r3, [r3]
 5806 03b8 DB68     		ldr	r3, [r3, #12]
 5807 03ba 03F01803 		and	r3, r3, #24
 5808 03be 182B     		cmp	r3, #24
 5809 03c0 0FD0     		beq	.L501
 5810 03c2 3B68     		ldr	r3, [r7]
 5811 03c4 5A69     		ldr	r2, [r3, #20]
 5812 03c6 7B68     		ldr	r3, [r7, #4]
 5813 03c8 1B68     		ldr	r3, [r3]
 5814 03ca DB68     		ldr	r3, [r3, #12]
 5815 03cc DB08     		lsrs	r3, r3, #3
 5816 03ce 03F00303 		and	r3, r3, #3
 5817 03d2 C3F10203 		rsb	r3, r3, #2
 5818 03d6 5B00     		lsls	r3, r3, #1
 5819 03d8 03F01E03 		and	r3, r3, #30
 5820 03dc 22FA03F3 		lsr	r3, r2, r3
 5821 03e0 02E0     		b	.L502
 5822              	.L501:
 5823 03e2 3B68     		ldr	r3, [r7]
ARM GAS  /var/folders/k1/1yttftd15rl7jxtpyc5m93n80000gn/T//ccruZCkn.s 			page 101


 5824 03e4 5B69     		ldr	r3, [r3, #20]
 5825 03e6 9B00     		lsls	r3, r3, #2
 5826              	.L502:
 5827 03e8 3B63     		str	r3, [r7, #48]
 5828              	.L498:
 5829 03ea 7B68     		ldr	r3, [r7, #4]
 5830 03ec 1868     		ldr	r0, [r3]
 5831 03ee 3B68     		ldr	r3, [r7]
 5832 03f0 1968     		ldr	r1, [r3]
 5833 03f2 3B6B     		ldr	r3, [r7, #48]
 5834 03f4 7A6B     		ldr	r2, [r7, #52]
 5835 03f6 FFF7FEFF 		bl	LL_ADC_ConfigAnalogWDThresholds
 5836 03fa 7B68     		ldr	r3, [r7, #4]
 5837 03fc 0022     		movs	r2, #0
 5838 03fe 83F85820 		strb	r2, [r3, #88]
 5839 0402 97F82F30 		ldrb	r3, [r7, #47]	@ zero_extendqisi2
 5840              	.L467:
 5841 0406 1846     		mov	r0, r3
 5842 0408 3837     		adds	r7, r7, #56
 5843 040a BD46     		mov	sp, r7
 5844              		@ sp needed
 5845 040c 80BD     		pop	{r7, pc}
 5846              	.L506:
 5847 040e 00BF     		.align	2
 5848              	.L505:
 5849 0410 FFFF1700 		.word	1572863
 5850 0414 0000C07D 		.word	2109734912
 5852              		.section	.text.HAL_ADC_GetState,"ax",%progbits
 5853              		.align	1
 5854              		.global	HAL_ADC_GetState
 5855              		.syntax unified
 5856              		.thumb
 5857              		.thumb_func
 5859              	HAL_ADC_GetState:
 5860              		@ args = 0, pretend = 0, frame = 8
 5861              		@ frame_needed = 1, uses_anonymous_args = 0
 5862              		@ link register save eliminated.
 5863 0000 80B4     		push	{r7}
 5864 0002 83B0     		sub	sp, sp, #12
 5865 0004 00AF     		add	r7, sp, #0
 5866 0006 7860     		str	r0, [r7, #4]
 5867 0008 7B68     		ldr	r3, [r7, #4]
 5868 000a DB6D     		ldr	r3, [r3, #92]
 5869 000c 1846     		mov	r0, r3
 5870 000e 0C37     		adds	r7, r7, #12
 5871 0010 BD46     		mov	sp, r7
 5872              		@ sp needed
 5873 0012 5DF8047B 		ldr	r7, [sp], #4
 5874 0016 7047     		bx	lr
 5876              		.section	.text.HAL_ADC_GetError,"ax",%progbits
 5877              		.align	1
 5878              		.global	HAL_ADC_GetError
 5879              		.syntax unified
 5880              		.thumb
 5881              		.thumb_func
 5883              	HAL_ADC_GetError:
 5884              		@ args = 0, pretend = 0, frame = 8
ARM GAS  /var/folders/k1/1yttftd15rl7jxtpyc5m93n80000gn/T//ccruZCkn.s 			page 102


 5885              		@ frame_needed = 1, uses_anonymous_args = 0
 5886              		@ link register save eliminated.
 5887 0000 80B4     		push	{r7}
 5888 0002 83B0     		sub	sp, sp, #12
 5889 0004 00AF     		add	r7, sp, #0
 5890 0006 7860     		str	r0, [r7, #4]
 5891 0008 7B68     		ldr	r3, [r7, #4]
 5892 000a 1B6E     		ldr	r3, [r3, #96]
 5893 000c 1846     		mov	r0, r3
 5894 000e 0C37     		adds	r7, r7, #12
 5895 0010 BD46     		mov	sp, r7
 5896              		@ sp needed
 5897 0012 5DF8047B 		ldr	r7, [sp], #4
 5898 0016 7047     		bx	lr
 5900              		.section	.text.ADC_ConversionStop,"ax",%progbits
 5901              		.align	1
 5902              		.global	ADC_ConversionStop
 5903              		.syntax unified
 5904              		.thumb
 5905              		.thumb_func
 5907              	ADC_ConversionStop:
 5908              		@ args = 0, pretend = 0, frame = 32
 5909              		@ frame_needed = 1, uses_anonymous_args = 0
 5910 0000 80B5     		push	{r7, lr}
 5911 0002 88B0     		sub	sp, sp, #32
 5912 0004 00AF     		add	r7, sp, #0
 5913 0006 7860     		str	r0, [r7, #4]
 5914 0008 3960     		str	r1, [r7]
 5915 000a 0023     		movs	r3, #0
 5916 000c FB61     		str	r3, [r7, #28]
 5917 000e 3B68     		ldr	r3, [r7]
 5918 0010 BB61     		str	r3, [r7, #24]
 5919 0012 7B68     		ldr	r3, [r7, #4]
 5920 0014 1B68     		ldr	r3, [r3]
 5921 0016 1846     		mov	r0, r3
 5922 0018 FFF7FEFF 		bl	LL_ADC_REG_IsConversionOngoing
 5923 001c 3861     		str	r0, [r7, #16]
 5924 001e 7B68     		ldr	r3, [r7, #4]
 5925 0020 1B68     		ldr	r3, [r3]
 5926 0022 1846     		mov	r0, r3
 5927 0024 FFF7FEFF 		bl	LL_ADC_INJ_IsConversionOngoing
 5928 0028 F860     		str	r0, [r7, #12]
 5929 002a 3B69     		ldr	r3, [r7, #16]
 5930 002c 002B     		cmp	r3, #0
 5931 002e 03D1     		bne	.L512
 5932 0030 FB68     		ldr	r3, [r7, #12]
 5933 0032 002B     		cmp	r3, #0
 5934 0034 00F09880 		beq	.L513
 5935              	.L512:
 5936 0038 7B68     		ldr	r3, [r7, #4]
 5937 003a 1B68     		ldr	r3, [r3]
 5938 003c DB68     		ldr	r3, [r3, #12]
 5939 003e 03F00073 		and	r3, r3, #33554432
 5940 0042 002B     		cmp	r3, #0
 5941 0044 2AD0     		beq	.L514
 5942 0046 7B68     		ldr	r3, [r7, #4]
 5943 0048 5B7F     		ldrb	r3, [r3, #29]	@ zero_extendqisi2
ARM GAS  /var/folders/k1/1yttftd15rl7jxtpyc5m93n80000gn/T//ccruZCkn.s 			page 103


 5944 004a 012B     		cmp	r3, #1
 5945 004c 26D1     		bne	.L514
 5946 004e 7B68     		ldr	r3, [r7, #4]
 5947 0050 1B7F     		ldrb	r3, [r3, #28]	@ zero_extendqisi2
 5948 0052 012B     		cmp	r3, #1
 5949 0054 22D1     		bne	.L514
 5950 0056 0123     		movs	r3, #1
 5951 0058 BB61     		str	r3, [r7, #24]
 5952 005a 14E0     		b	.L515
 5953              	.L518:
 5954 005c FB69     		ldr	r3, [r7, #28]
 5955 005e 454A     		ldr	r2, .L527
 5956 0060 9342     		cmp	r3, r2
 5957 0062 0DD9     		bls	.L516
 5958 0064 7B68     		ldr	r3, [r7, #4]
 5959 0066 DB6D     		ldr	r3, [r3, #92]
 5960 0068 43F01002 		orr	r2, r3, #16
 5961 006c 7B68     		ldr	r3, [r7, #4]
 5962 006e DA65     		str	r2, [r3, #92]
 5963 0070 7B68     		ldr	r3, [r7, #4]
 5964 0072 1B6E     		ldr	r3, [r3, #96]
 5965 0074 43F00102 		orr	r2, r3, #1
 5966 0078 7B68     		ldr	r3, [r7, #4]
 5967 007a 1A66     		str	r2, [r3, #96]
 5968 007c 0123     		movs	r3, #1
 5969 007e 74E0     		b	.L517
 5970              	.L516:
 5971 0080 FB69     		ldr	r3, [r7, #28]
 5972 0082 0133     		adds	r3, r3, #1
 5973 0084 FB61     		str	r3, [r7, #28]
 5974              	.L515:
 5975 0086 7B68     		ldr	r3, [r7, #4]
 5976 0088 1B68     		ldr	r3, [r3]
 5977 008a 1B68     		ldr	r3, [r3]
 5978 008c 03F04003 		and	r3, r3, #64
 5979 0090 402B     		cmp	r3, #64
 5980 0092 E3D1     		bne	.L518
 5981 0094 7B68     		ldr	r3, [r7, #4]
 5982 0096 1B68     		ldr	r3, [r3]
 5983 0098 4022     		movs	r2, #64
 5984 009a 1A60     		str	r2, [r3]
 5985              	.L514:
 5986 009c BB69     		ldr	r3, [r7, #24]
 5987 009e 022B     		cmp	r3, #2
 5988 00a0 14D0     		beq	.L519
 5989 00a2 7B68     		ldr	r3, [r7, #4]
 5990 00a4 1B68     		ldr	r3, [r3]
 5991 00a6 1846     		mov	r0, r3
 5992 00a8 FFF7FEFF 		bl	LL_ADC_REG_IsConversionOngoing
 5993 00ac 0346     		mov	r3, r0
 5994 00ae 002B     		cmp	r3, #0
 5995 00b0 0CD0     		beq	.L519
 5996 00b2 7B68     		ldr	r3, [r7, #4]
 5997 00b4 1B68     		ldr	r3, [r3]
 5998 00b6 1846     		mov	r0, r3
 5999 00b8 FFF7FEFF 		bl	LL_ADC_IsDisableOngoing
 6000 00bc 0346     		mov	r3, r0
ARM GAS  /var/folders/k1/1yttftd15rl7jxtpyc5m93n80000gn/T//ccruZCkn.s 			page 104


 6001 00be 002B     		cmp	r3, #0
 6002 00c0 04D1     		bne	.L519
 6003 00c2 7B68     		ldr	r3, [r7, #4]
 6004 00c4 1B68     		ldr	r3, [r3]
 6005 00c6 1846     		mov	r0, r3
 6006 00c8 FFF7FEFF 		bl	LL_ADC_REG_StopConversion
 6007              	.L519:
 6008 00cc BB69     		ldr	r3, [r7, #24]
 6009 00ce 012B     		cmp	r3, #1
 6010 00d0 14D0     		beq	.L520
 6011 00d2 7B68     		ldr	r3, [r7, #4]
 6012 00d4 1B68     		ldr	r3, [r3]
 6013 00d6 1846     		mov	r0, r3
 6014 00d8 FFF7FEFF 		bl	LL_ADC_INJ_IsConversionOngoing
 6015 00dc 0346     		mov	r3, r0
 6016 00de 002B     		cmp	r3, #0
 6017 00e0 0CD0     		beq	.L520
 6018 00e2 7B68     		ldr	r3, [r7, #4]
 6019 00e4 1B68     		ldr	r3, [r3]
 6020 00e6 1846     		mov	r0, r3
 6021 00e8 FFF7FEFF 		bl	LL_ADC_IsDisableOngoing
 6022 00ec 0346     		mov	r3, r0
 6023 00ee 002B     		cmp	r3, #0
 6024 00f0 04D1     		bne	.L520
 6025 00f2 7B68     		ldr	r3, [r7, #4]
 6026 00f4 1B68     		ldr	r3, [r3]
 6027 00f6 1846     		mov	r0, r3
 6028 00f8 FFF7FEFF 		bl	LL_ADC_INJ_StopConversion
 6029              	.L520:
 6030 00fc BB69     		ldr	r3, [r7, #24]
 6031 00fe 022B     		cmp	r3, #2
 6032 0100 05D0     		beq	.L521
 6033 0102 BB69     		ldr	r3, [r7, #24]
 6034 0104 032B     		cmp	r3, #3
 6035 0106 05D1     		bne	.L522
 6036 0108 0C23     		movs	r3, #12
 6037 010a 7B61     		str	r3, [r7, #20]
 6038 010c 05E0     		b	.L523
 6039              	.L521:
 6040 010e 0823     		movs	r3, #8
 6041 0110 7B61     		str	r3, [r7, #20]
 6042 0112 02E0     		b	.L523
 6043              	.L522:
 6044 0114 0423     		movs	r3, #4
 6045 0116 7B61     		str	r3, [r7, #20]
 6046 0118 00BF     		nop
 6047              	.L523:
 6048 011a FFF7FEFF 		bl	HAL_GetTick
 6049 011e B860     		str	r0, [r7, #8]
 6050 0120 1BE0     		b	.L524
 6051              	.L526:
 6052 0122 FFF7FEFF 		bl	HAL_GetTick
 6053 0126 0246     		mov	r2, r0
 6054 0128 BB68     		ldr	r3, [r7, #8]
 6055 012a D31A     		subs	r3, r2, r3
 6056 012c 052B     		cmp	r3, #5
 6057 012e 14D9     		bls	.L524
ARM GAS  /var/folders/k1/1yttftd15rl7jxtpyc5m93n80000gn/T//ccruZCkn.s 			page 105


 6058 0130 7B68     		ldr	r3, [r7, #4]
 6059 0132 1B68     		ldr	r3, [r3]
 6060 0134 9A68     		ldr	r2, [r3, #8]
 6061 0136 7B69     		ldr	r3, [r7, #20]
 6062 0138 1340     		ands	r3, r3, r2
 6063 013a 002B     		cmp	r3, #0
 6064 013c 0DD0     		beq	.L524
 6065 013e 7B68     		ldr	r3, [r7, #4]
 6066 0140 DB6D     		ldr	r3, [r3, #92]
 6067 0142 43F01002 		orr	r2, r3, #16
 6068 0146 7B68     		ldr	r3, [r7, #4]
 6069 0148 DA65     		str	r2, [r3, #92]
 6070 014a 7B68     		ldr	r3, [r7, #4]
 6071 014c 1B6E     		ldr	r3, [r3, #96]
 6072 014e 43F00102 		orr	r2, r3, #1
 6073 0152 7B68     		ldr	r3, [r7, #4]
 6074 0154 1A66     		str	r2, [r3, #96]
 6075 0156 0123     		movs	r3, #1
 6076 0158 07E0     		b	.L517
 6077              	.L524:
 6078 015a 7B68     		ldr	r3, [r7, #4]
 6079 015c 1B68     		ldr	r3, [r3]
 6080 015e 9A68     		ldr	r2, [r3, #8]
 6081 0160 7B69     		ldr	r3, [r7, #20]
 6082 0162 1340     		ands	r3, r3, r2
 6083 0164 002B     		cmp	r3, #0
 6084 0166 DCD1     		bne	.L526
 6085              	.L513:
 6086 0168 0023     		movs	r3, #0
 6087              	.L517:
 6088 016a 1846     		mov	r0, r3
 6089 016c 2037     		adds	r7, r7, #32
 6090 016e BD46     		mov	sp, r7
 6091              		@ sp needed
 6092 0170 80BD     		pop	{r7, pc}
 6093              	.L528:
 6094 0172 00BF     		.align	2
 6095              	.L527:
 6096 0174 FFFF3FA3 		.word	-1556086785
 6098              		.section	.text.ADC_Enable,"ax",%progbits
 6099              		.align	1
 6100              		.global	ADC_Enable
 6101              		.syntax unified
 6102              		.thumb
 6103              		.thumb_func
 6105              	ADC_Enable:
 6106              		@ args = 0, pretend = 0, frame = 16
 6107              		@ frame_needed = 1, uses_anonymous_args = 0
 6108 0000 80B5     		push	{r7, lr}
 6109 0002 84B0     		sub	sp, sp, #16
 6110 0004 00AF     		add	r7, sp, #0
 6111 0006 7860     		str	r0, [r7, #4]
 6112 0008 0023     		movs	r3, #0
 6113 000a BB60     		str	r3, [r7, #8]
 6114 000c 7B68     		ldr	r3, [r7, #4]
 6115 000e 1B68     		ldr	r3, [r3]
 6116 0010 1846     		mov	r0, r3
ARM GAS  /var/folders/k1/1yttftd15rl7jxtpyc5m93n80000gn/T//ccruZCkn.s 			page 106


 6117 0012 FFF7FEFF 		bl	LL_ADC_IsEnabled
 6118 0016 0346     		mov	r3, r0
 6119 0018 002B     		cmp	r3, #0
 6120 001a 76D1     		bne	.L530
 6121 001c 7B68     		ldr	r3, [r7, #4]
 6122 001e 1B68     		ldr	r3, [r3]
 6123 0020 9A68     		ldr	r2, [r3, #8]
 6124 0022 3C4B     		ldr	r3, .L543
 6125 0024 1340     		ands	r3, r3, r2
 6126 0026 002B     		cmp	r3, #0
 6127 0028 0DD0     		beq	.L531
 6128 002a 7B68     		ldr	r3, [r7, #4]
 6129 002c DB6D     		ldr	r3, [r3, #92]
 6130 002e 43F01002 		orr	r2, r3, #16
 6131 0032 7B68     		ldr	r3, [r7, #4]
 6132 0034 DA65     		str	r2, [r3, #92]
 6133 0036 7B68     		ldr	r3, [r7, #4]
 6134 0038 1B6E     		ldr	r3, [r3, #96]
 6135 003a 43F00102 		orr	r2, r3, #1
 6136 003e 7B68     		ldr	r3, [r7, #4]
 6137 0040 1A66     		str	r2, [r3, #96]
 6138 0042 0123     		movs	r3, #1
 6139 0044 62E0     		b	.L532
 6140              	.L531:
 6141 0046 7B68     		ldr	r3, [r7, #4]
 6142 0048 1B68     		ldr	r3, [r3]
 6143 004a 1846     		mov	r0, r3
 6144 004c FFF7FEFF 		bl	LL_ADC_Enable
 6145 0050 7B68     		ldr	r3, [r7, #4]
 6146 0052 1B68     		ldr	r3, [r3]
 6147 0054 B3F1A04F 		cmp	r3, #1342177280
 6148 0058 04D0     		beq	.L533
 6149 005a 7B68     		ldr	r3, [r7, #4]
 6150 005c 1B68     		ldr	r3, [r3]
 6151 005e 2E4A     		ldr	r2, .L543+4
 6152 0060 9342     		cmp	r3, r2
 6153 0062 01D1     		bne	.L534
 6154              	.L533:
 6155 0064 2D4B     		ldr	r3, .L543+8
 6156 0066 00E0     		b	.L535
 6157              	.L534:
 6158 0068 2D4B     		ldr	r3, .L543+12
 6159              	.L535:
 6160 006a 1846     		mov	r0, r3
 6161 006c FFF7FEFF 		bl	LL_ADC_GetCommonPathInternalCh
 6162 0070 0346     		mov	r3, r0
 6163 0072 03F40003 		and	r3, r3, #8388608
 6164 0076 002B     		cmp	r3, #0
 6165 0078 13D0     		beq	.L536
 6166 007a 2A4B     		ldr	r3, .L543+16
 6167 007c 1B68     		ldr	r3, [r3]
 6168 007e 9B09     		lsrs	r3, r3, #6
 6169 0080 294A     		ldr	r2, .L543+20
 6170 0082 A2FB0323 		umull	r2, r3, r2, r3
 6171 0086 9B09     		lsrs	r3, r3, #6
 6172 0088 5A1C     		adds	r2, r3, #1
 6173 008a 1346     		mov	r3, r2
ARM GAS  /var/folders/k1/1yttftd15rl7jxtpyc5m93n80000gn/T//ccruZCkn.s 			page 107


 6174 008c 5B00     		lsls	r3, r3, #1
 6175 008e 1344     		add	r3, r3, r2
 6176 0090 9B00     		lsls	r3, r3, #2
 6177 0092 BB60     		str	r3, [r7, #8]
 6178 0094 02E0     		b	.L537
 6179              	.L538:
 6180 0096 BB68     		ldr	r3, [r7, #8]
 6181 0098 013B     		subs	r3, r3, #1
 6182 009a BB60     		str	r3, [r7, #8]
 6183              	.L537:
 6184 009c BB68     		ldr	r3, [r7, #8]
 6185 009e 002B     		cmp	r3, #0
 6186 00a0 F9D1     		bne	.L538
 6187              	.L536:
 6188 00a2 FFF7FEFF 		bl	HAL_GetTick
 6189 00a6 F860     		str	r0, [r7, #12]
 6190 00a8 28E0     		b	.L539
 6191              	.L542:
 6192 00aa 7B68     		ldr	r3, [r7, #4]
 6193 00ac 1B68     		ldr	r3, [r3]
 6194 00ae 1846     		mov	r0, r3
 6195 00b0 FFF7FEFF 		bl	LL_ADC_IsEnabled
 6196 00b4 0346     		mov	r3, r0
 6197 00b6 002B     		cmp	r3, #0
 6198 00b8 04D1     		bne	.L540
 6199 00ba 7B68     		ldr	r3, [r7, #4]
 6200 00bc 1B68     		ldr	r3, [r3]
 6201 00be 1846     		mov	r0, r3
 6202 00c0 FFF7FEFF 		bl	LL_ADC_Enable
 6203              	.L540:
 6204 00c4 FFF7FEFF 		bl	HAL_GetTick
 6205 00c8 0246     		mov	r2, r0
 6206 00ca FB68     		ldr	r3, [r7, #12]
 6207 00cc D31A     		subs	r3, r2, r3
 6208 00ce 022B     		cmp	r3, #2
 6209 00d0 14D9     		bls	.L539
 6210 00d2 7B68     		ldr	r3, [r7, #4]
 6211 00d4 1B68     		ldr	r3, [r3]
 6212 00d6 1B68     		ldr	r3, [r3]
 6213 00d8 03F00103 		and	r3, r3, #1
 6214 00dc 012B     		cmp	r3, #1
 6215 00de 0DD0     		beq	.L539
 6216 00e0 7B68     		ldr	r3, [r7, #4]
 6217 00e2 DB6D     		ldr	r3, [r3, #92]
 6218 00e4 43F01002 		orr	r2, r3, #16
 6219 00e8 7B68     		ldr	r3, [r7, #4]
 6220 00ea DA65     		str	r2, [r3, #92]
 6221 00ec 7B68     		ldr	r3, [r7, #4]
 6222 00ee 1B6E     		ldr	r3, [r3, #96]
 6223 00f0 43F00102 		orr	r2, r3, #1
 6224 00f4 7B68     		ldr	r3, [r7, #4]
 6225 00f6 1A66     		str	r2, [r3, #96]
 6226 00f8 0123     		movs	r3, #1
 6227 00fa 07E0     		b	.L532
 6228              	.L539:
 6229 00fc 7B68     		ldr	r3, [r7, #4]
 6230 00fe 1B68     		ldr	r3, [r3]
ARM GAS  /var/folders/k1/1yttftd15rl7jxtpyc5m93n80000gn/T//ccruZCkn.s 			page 108


 6231 0100 1B68     		ldr	r3, [r3]
 6232 0102 03F00103 		and	r3, r3, #1
 6233 0106 012B     		cmp	r3, #1
 6234 0108 CFD1     		bne	.L542
 6235              	.L530:
 6236 010a 0023     		movs	r3, #0
 6237              	.L532:
 6238 010c 1846     		mov	r0, r3
 6239 010e 1037     		adds	r7, r7, #16
 6240 0110 BD46     		mov	sp, r7
 6241              		@ sp needed
 6242 0112 80BD     		pop	{r7, pc}
 6243              	.L544:
 6244              		.align	2
 6245              	.L543:
 6246 0114 3F000080 		.word	-2147483585
 6247 0118 00010050 		.word	1342177536
 6248 011c 00030050 		.word	1342178048
 6249 0120 00070050 		.word	1342179072
 6250 0124 00000000 		.word	SystemCoreClock
 6251 0128 632D3E05 		.word	87960931
 6253              		.section	.text.ADC_Disable,"ax",%progbits
 6254              		.align	1
 6255              		.global	ADC_Disable
 6256              		.syntax unified
 6257              		.thumb
 6258              		.thumb_func
 6260              	ADC_Disable:
 6261              		@ args = 0, pretend = 0, frame = 16
 6262              		@ frame_needed = 1, uses_anonymous_args = 0
 6263 0000 80B5     		push	{r7, lr}
 6264 0002 84B0     		sub	sp, sp, #16
 6265 0004 00AF     		add	r7, sp, #0
 6266 0006 7860     		str	r0, [r7, #4]
 6267 0008 7B68     		ldr	r3, [r7, #4]
 6268 000a 1B68     		ldr	r3, [r3]
 6269 000c 1846     		mov	r0, r3
 6270 000e FFF7FEFF 		bl	LL_ADC_IsDisableOngoing
 6271 0012 F860     		str	r0, [r7, #12]
 6272 0014 7B68     		ldr	r3, [r7, #4]
 6273 0016 1B68     		ldr	r3, [r3]
 6274 0018 1846     		mov	r0, r3
 6275 001a FFF7FEFF 		bl	LL_ADC_IsEnabled
 6276 001e 0346     		mov	r3, r0
 6277 0020 002B     		cmp	r3, #0
 6278 0022 47D0     		beq	.L546
 6279 0024 FB68     		ldr	r3, [r7, #12]
 6280 0026 002B     		cmp	r3, #0
 6281 0028 44D1     		bne	.L546
 6282 002a 7B68     		ldr	r3, [r7, #4]
 6283 002c 1B68     		ldr	r3, [r3]
 6284 002e 9B68     		ldr	r3, [r3, #8]
 6285 0030 03F00D03 		and	r3, r3, #13
 6286 0034 012B     		cmp	r3, #1
 6287 0036 0CD1     		bne	.L547
 6288 0038 7B68     		ldr	r3, [r7, #4]
 6289 003a 1B68     		ldr	r3, [r3]
ARM GAS  /var/folders/k1/1yttftd15rl7jxtpyc5m93n80000gn/T//ccruZCkn.s 			page 109


 6290 003c 1846     		mov	r0, r3
 6291 003e FFF7FEFF 		bl	LL_ADC_Disable
 6292 0042 7B68     		ldr	r3, [r7, #4]
 6293 0044 1B68     		ldr	r3, [r3]
 6294 0046 0322     		movs	r2, #3
 6295 0048 1A60     		str	r2, [r3]
 6296 004a FFF7FEFF 		bl	HAL_GetTick
 6297 004e B860     		str	r0, [r7, #8]
 6298 0050 29E0     		b	.L550
 6299              	.L547:
 6300 0052 7B68     		ldr	r3, [r7, #4]
 6301 0054 DB6D     		ldr	r3, [r3, #92]
 6302 0056 43F01002 		orr	r2, r3, #16
 6303 005a 7B68     		ldr	r3, [r7, #4]
 6304 005c DA65     		str	r2, [r3, #92]
 6305 005e 7B68     		ldr	r3, [r7, #4]
 6306 0060 1B6E     		ldr	r3, [r3, #96]
 6307 0062 43F00102 		orr	r2, r3, #1
 6308 0066 7B68     		ldr	r3, [r7, #4]
 6309 0068 1A66     		str	r2, [r3, #96]
 6310 006a 0123     		movs	r3, #1
 6311 006c 23E0     		b	.L549
 6312              	.L552:
 6313 006e FFF7FEFF 		bl	HAL_GetTick
 6314 0072 0246     		mov	r2, r0
 6315 0074 BB68     		ldr	r3, [r7, #8]
 6316 0076 D31A     		subs	r3, r2, r3
 6317 0078 022B     		cmp	r3, #2
 6318 007a 14D9     		bls	.L550
 6319 007c 7B68     		ldr	r3, [r7, #4]
 6320 007e 1B68     		ldr	r3, [r3]
 6321 0080 9B68     		ldr	r3, [r3, #8]
 6322 0082 03F00103 		and	r3, r3, #1
 6323 0086 002B     		cmp	r3, #0
 6324 0088 0DD0     		beq	.L550
 6325 008a 7B68     		ldr	r3, [r7, #4]
 6326 008c DB6D     		ldr	r3, [r3, #92]
 6327 008e 43F01002 		orr	r2, r3, #16
 6328 0092 7B68     		ldr	r3, [r7, #4]
 6329 0094 DA65     		str	r2, [r3, #92]
 6330 0096 7B68     		ldr	r3, [r7, #4]
 6331 0098 1B6E     		ldr	r3, [r3, #96]
 6332 009a 43F00102 		orr	r2, r3, #1
 6333 009e 7B68     		ldr	r3, [r7, #4]
 6334 00a0 1A66     		str	r2, [r3, #96]
 6335 00a2 0123     		movs	r3, #1
 6336 00a4 07E0     		b	.L549
 6337              	.L550:
 6338 00a6 7B68     		ldr	r3, [r7, #4]
 6339 00a8 1B68     		ldr	r3, [r3]
 6340 00aa 9B68     		ldr	r3, [r3, #8]
 6341 00ac 03F00103 		and	r3, r3, #1
 6342 00b0 002B     		cmp	r3, #0
 6343 00b2 DCD1     		bne	.L552
 6344              	.L546:
 6345 00b4 0023     		movs	r3, #0
 6346              	.L549:
ARM GAS  /var/folders/k1/1yttftd15rl7jxtpyc5m93n80000gn/T//ccruZCkn.s 			page 110


 6347 00b6 1846     		mov	r0, r3
 6348 00b8 1037     		adds	r7, r7, #16
 6349 00ba BD46     		mov	sp, r7
 6350              		@ sp needed
 6351 00bc 80BD     		pop	{r7, pc}
 6353              		.section	.text.ADC_DMAConvCplt,"ax",%progbits
 6354              		.align	1
 6355              		.global	ADC_DMAConvCplt
 6356              		.syntax unified
 6357              		.thumb
 6358              		.thumb_func
 6360              	ADC_DMAConvCplt:
 6361              		@ args = 0, pretend = 0, frame = 16
 6362              		@ frame_needed = 1, uses_anonymous_args = 0
 6363 0000 80B5     		push	{r7, lr}
 6364 0002 84B0     		sub	sp, sp, #16
 6365 0004 00AF     		add	r7, sp, #0
 6366 0006 7860     		str	r0, [r7, #4]
 6367 0008 7B68     		ldr	r3, [r7, #4]
 6368 000a 9B6A     		ldr	r3, [r3, #40]
 6369 000c FB60     		str	r3, [r7, #12]
 6370 000e FB68     		ldr	r3, [r7, #12]
 6371 0010 DB6D     		ldr	r3, [r3, #92]
 6372 0012 03F05003 		and	r3, r3, #80
 6373 0016 002B     		cmp	r3, #0
 6374 0018 4BD1     		bne	.L554
 6375 001a FB68     		ldr	r3, [r7, #12]
 6376 001c DB6D     		ldr	r3, [r3, #92]
 6377 001e 43F40072 		orr	r2, r3, #512
 6378 0022 FB68     		ldr	r3, [r7, #12]
 6379 0024 DA65     		str	r2, [r3, #92]
 6380 0026 FB68     		ldr	r3, [r7, #12]
 6381 0028 1B68     		ldr	r3, [r3]
 6382 002a 1B68     		ldr	r3, [r3]
 6383 002c 03F00803 		and	r3, r3, #8
 6384 0030 002B     		cmp	r3, #0
 6385 0032 21D0     		beq	.L555
 6386 0034 FB68     		ldr	r3, [r7, #12]
 6387 0036 1B68     		ldr	r3, [r3]
 6388 0038 1846     		mov	r0, r3
 6389 003a FFF7FEFF 		bl	LL_ADC_REG_IsTriggerSourceSWStart
 6390 003e 0346     		mov	r3, r0
 6391 0040 002B     		cmp	r3, #0
 6392 0042 32D0     		beq	.L556
 6393 0044 FB68     		ldr	r3, [r7, #12]
 6394 0046 1B68     		ldr	r3, [r3]
 6395 0048 DB68     		ldr	r3, [r3, #12]
 6396 004a 03F40053 		and	r3, r3, #8192
 6397 004e 002B     		cmp	r3, #0
 6398 0050 2BD1     		bne	.L556
 6399 0052 FB68     		ldr	r3, [r7, #12]
 6400 0054 DB6D     		ldr	r3, [r3, #92]
 6401 0056 23F48072 		bic	r2, r3, #256
 6402 005a FB68     		ldr	r3, [r7, #12]
 6403 005c DA65     		str	r2, [r3, #92]
 6404 005e FB68     		ldr	r3, [r7, #12]
 6405 0060 DB6D     		ldr	r3, [r3, #92]
ARM GAS  /var/folders/k1/1yttftd15rl7jxtpyc5m93n80000gn/T//ccruZCkn.s 			page 111


 6406 0062 03F48053 		and	r3, r3, #4096
 6407 0066 002B     		cmp	r3, #0
 6408 0068 1FD1     		bne	.L556
 6409 006a FB68     		ldr	r3, [r7, #12]
 6410 006c DB6D     		ldr	r3, [r3, #92]
 6411 006e 43F00102 		orr	r2, r3, #1
 6412 0072 FB68     		ldr	r3, [r7, #12]
 6413 0074 DA65     		str	r2, [r3, #92]
 6414 0076 18E0     		b	.L556
 6415              	.L555:
 6416 0078 FB68     		ldr	r3, [r7, #12]
 6417 007a 1B68     		ldr	r3, [r3]
 6418 007c DB68     		ldr	r3, [r3, #12]
 6419 007e 03F00203 		and	r3, r3, #2
 6420 0082 002B     		cmp	r3, #0
 6421 0084 11D1     		bne	.L556
 6422 0086 FB68     		ldr	r3, [r7, #12]
 6423 0088 DB6D     		ldr	r3, [r3, #92]
 6424 008a 23F48072 		bic	r2, r3, #256
 6425 008e FB68     		ldr	r3, [r7, #12]
 6426 0090 DA65     		str	r2, [r3, #92]
 6427 0092 FB68     		ldr	r3, [r7, #12]
 6428 0094 DB6D     		ldr	r3, [r3, #92]
 6429 0096 03F48053 		and	r3, r3, #4096
 6430 009a 002B     		cmp	r3, #0
 6431 009c 05D1     		bne	.L556
 6432 009e FB68     		ldr	r3, [r7, #12]
 6433 00a0 DB6D     		ldr	r3, [r3, #92]
 6434 00a2 43F00102 		orr	r2, r3, #1
 6435 00a6 FB68     		ldr	r3, [r7, #12]
 6436 00a8 DA65     		str	r2, [r3, #92]
 6437              	.L556:
 6438 00aa F868     		ldr	r0, [r7, #12]
 6439 00ac FFF7FEFF 		bl	HAL_ADC_ConvCpltCallback
 6440 00b0 0EE0     		b	.L559
 6441              	.L554:
 6442 00b2 FB68     		ldr	r3, [r7, #12]
 6443 00b4 DB6D     		ldr	r3, [r3, #92]
 6444 00b6 03F01003 		and	r3, r3, #16
 6445 00ba 002B     		cmp	r3, #0
 6446 00bc 03D0     		beq	.L558
 6447 00be F868     		ldr	r0, [r7, #12]
 6448 00c0 FFF7FEFF 		bl	HAL_ADC_ErrorCallback
 6449 00c4 04E0     		b	.L559
 6450              	.L558:
 6451 00c6 FB68     		ldr	r3, [r7, #12]
 6452 00c8 5B6D     		ldr	r3, [r3, #84]
 6453 00ca 5B6B     		ldr	r3, [r3, #52]
 6454 00cc 7868     		ldr	r0, [r7, #4]
 6455 00ce 9847     		blx	r3
 6456              	.L559:
 6457 00d0 00BF     		nop
 6458 00d2 1037     		adds	r7, r7, #16
 6459 00d4 BD46     		mov	sp, r7
 6460              		@ sp needed
 6461 00d6 80BD     		pop	{r7, pc}
 6463              		.section	.text.ADC_DMAHalfConvCplt,"ax",%progbits
ARM GAS  /var/folders/k1/1yttftd15rl7jxtpyc5m93n80000gn/T//ccruZCkn.s 			page 112


 6464              		.align	1
 6465              		.global	ADC_DMAHalfConvCplt
 6466              		.syntax unified
 6467              		.thumb
 6468              		.thumb_func
 6470              	ADC_DMAHalfConvCplt:
 6471              		@ args = 0, pretend = 0, frame = 16
 6472              		@ frame_needed = 1, uses_anonymous_args = 0
 6473 0000 80B5     		push	{r7, lr}
 6474 0002 84B0     		sub	sp, sp, #16
 6475 0004 00AF     		add	r7, sp, #0
 6476 0006 7860     		str	r0, [r7, #4]
 6477 0008 7B68     		ldr	r3, [r7, #4]
 6478 000a 9B6A     		ldr	r3, [r3, #40]
 6479 000c FB60     		str	r3, [r7, #12]
 6480 000e F868     		ldr	r0, [r7, #12]
 6481 0010 FFF7FEFF 		bl	HAL_ADC_ConvHalfCpltCallback
 6482 0014 00BF     		nop
 6483 0016 1037     		adds	r7, r7, #16
 6484 0018 BD46     		mov	sp, r7
 6485              		@ sp needed
 6486 001a 80BD     		pop	{r7, pc}
 6488              		.section	.text.ADC_DMAError,"ax",%progbits
 6489              		.align	1
 6490              		.global	ADC_DMAError
 6491              		.syntax unified
 6492              		.thumb
 6493              		.thumb_func
 6495              	ADC_DMAError:
 6496              		@ args = 0, pretend = 0, frame = 16
 6497              		@ frame_needed = 1, uses_anonymous_args = 0
 6498 0000 80B5     		push	{r7, lr}
 6499 0002 84B0     		sub	sp, sp, #16
 6500 0004 00AF     		add	r7, sp, #0
 6501 0006 7860     		str	r0, [r7, #4]
 6502 0008 7B68     		ldr	r3, [r7, #4]
 6503 000a 9B6A     		ldr	r3, [r3, #40]
 6504 000c FB60     		str	r3, [r7, #12]
 6505 000e FB68     		ldr	r3, [r7, #12]
 6506 0010 DB6D     		ldr	r3, [r3, #92]
 6507 0012 43F04002 		orr	r2, r3, #64
 6508 0016 FB68     		ldr	r3, [r7, #12]
 6509 0018 DA65     		str	r2, [r3, #92]
 6510 001a FB68     		ldr	r3, [r7, #12]
 6511 001c 1B6E     		ldr	r3, [r3, #96]
 6512 001e 43F00402 		orr	r2, r3, #4
 6513 0022 FB68     		ldr	r3, [r7, #12]
 6514 0024 1A66     		str	r2, [r3, #96]
 6515 0026 F868     		ldr	r0, [r7, #12]
 6516 0028 FFF7FEFF 		bl	HAL_ADC_ErrorCallback
 6517 002c 00BF     		nop
 6518 002e 1037     		adds	r7, r7, #16
 6519 0030 BD46     		mov	sp, r7
 6520              		@ sp needed
 6521 0032 80BD     		pop	{r7, pc}
 6523              		.ident	"GCC: (GNU Tools for STM32 14.3.rel1.20251027-0700) 14.3.1 20250623"
ARM GAS  /var/folders/k1/1yttftd15rl7jxtpyc5m93n80000gn/T//ccruZCkn.s 			page 113

